Archive member included because of file (symbol)

/home/jfb/nacl_sdk/pepper_42//lib/newlib_x86_32/Release/libppapi_cpp.a(instance_x86_32.o)
                              newlib/Release/multi_platform_x86_32.o (_ZN2pp8InstanceC2Ei)
/home/jfb/nacl_sdk/pepper_42//lib/newlib_x86_32/Release/libppapi_cpp.a(module_x86_32.o)
                              newlib/Release/multi_platform_x86_32.o (_ZN2pp6ModuleC2Ev)
/home/jfb/nacl_sdk/pepper_42//lib/newlib_x86_32/Release/libppapi_cpp.a(ppp_entrypoints_x86_32.o)
                              /home/jfb/nacl_sdk/pepper_42//lib/newlib_x86_32/Release/libppapi_cpp.a(instance_x86_32.o) (_ZN2pp6Module3GetEv)
/home/jfb/nacl_sdk/pepper_42//lib/newlib_x86_32/Release/libppapi_cpp.a(resource_x86_32.o)
                              /home/jfb/nacl_sdk/pepper_42//lib/newlib_x86_32/Release/libppapi_cpp.a(module_x86_32.o) (_ZN2pp8ResourceD2Ev)
/home/jfb/nacl_sdk/pepper_42//lib/newlib_x86_32/Release/libppapi_cpp.a(url_loader_x86_32.o)
                              /home/jfb/nacl_sdk/pepper_42//lib/newlib_x86_32/Release/libppapi_cpp.a(module_x86_32.o) (_ZN2pp9URLLoaderC1Ei)
/home/jfb/nacl_sdk/pepper_42//lib/newlib_x86_32/Release/libppapi_cpp.a(url_response_info_x86_32.o)
                              /home/jfb/nacl_sdk/pepper_42//lib/newlib_x86_32/Release/libppapi_cpp.a(url_loader_x86_32.o) (_ZN2pp15URLResponseInfoC1ENS_7PassRefEi)
/home/jfb/nacl_sdk/pepper_42//lib/newlib_x86_32/Release/libppapi_cpp.a(var_x86_32.o)
                              /home/jfb/nacl_sdk/pepper_42//lib/newlib_x86_32/Release/libppapi_cpp.a(module_x86_32.o) (_ZTVN2pp3VarE)
/home/jfb/nacl_sdk/pepper_42//lib/newlib_x86_32/Release/libppapi_cpp.a(view_x86_32.o)
                              /home/jfb/nacl_sdk/pepper_42//lib/newlib_x86_32/Release/libppapi_cpp.a(module_x86_32.o) (_ZN2pp4ViewC1Ei)
/home/jfb/nacl_sdk/pepper_42//lib/newlib_x86_32/Release/libppapi_cpp.a(core_x86_32.o)
                              /home/jfb/nacl_sdk/pepper_42//lib/newlib_x86_32/Release/libppapi_cpp.a(url_loader_x86_32.o) (_ZN2pp4Core16CallOnMainThreadEiRKNS_18CompletionCallbackEi)
/home/jfb/nacl_sdk/pepper_42//lib/newlib_x86_32/Release/libppapi_cpp.a(file_ref_x86_32.o)
                              /home/jfb/nacl_sdk/pepper_42//lib/newlib_x86_32/Release/libppapi_cpp.a(url_response_info_x86_32.o) (_ZN2pp7FileRefC1ENS_7PassRefEi)
/home/jfb/nacl_sdk/pepper_42//lib/newlib_x86_32/Release/libppapi_cpp.a(input_event_x86_32.o)
                              /home/jfb/nacl_sdk/pepper_42//lib/newlib_x86_32/Release/libppapi_cpp.a(module_x86_32.o) (_ZN2pp10InputEventD1Ev)
/home/jfb/nacl_sdk/pepper_42/toolchain/linux_x86_newlib/bin/../lib/gcc/x86_64-nacl/4.4.3/../../../../x86_64-nacl/lib/../lib32/libppapi_stub.a(plugin_main_irt_21ce9d26.o)
                              (main)
/home/jfb/nacl_sdk/pepper_42/toolchain/linux_x86_newlib/bin/../lib/gcc/x86_64-nacl/4.4.3/../../../../x86_64-nacl/lib/../lib32/libppapi_stub.a(ppapi_plugin_main_399d0cf7.o)
                              /home/jfb/nacl_sdk/pepper_42/toolchain/linux_x86_newlib/bin/../lib/gcc/x86_64-nacl/4.4.3/../../../../x86_64-nacl/lib/../lib32/libppapi_stub.a(plugin_main_irt_21ce9d26.o) (PpapiPluginMain)
/home/jfb/nacl_sdk/pepper_42/toolchain/linux_x86_newlib/bin/../lib/gcc/x86_64-nacl/4.4.3/../../../../x86_64-nacl/lib/../lib32/libppapi_stub.a(ppapi_plugin_start_8da67623.o)
                              /home/jfb/nacl_sdk/pepper_42/toolchain/linux_x86_newlib/bin/../lib/gcc/x86_64-nacl/4.4.3/../../../../x86_64-nacl/lib/../lib32/libppapi_stub.a(ppapi_plugin_main_399d0cf7.o) (PpapiPluginStart)
/home/jfb/nacl_sdk/pepper_42/toolchain/linux_x86_newlib/bin/../lib/gcc/x86_64-nacl/4.4.3/../../../../x86_64-nacl/lib/../lib32/libppapi_stub.a(thread_creator_ccf263e1.o)
                              /home/jfb/nacl_sdk/pepper_42/toolchain/linux_x86_newlib/bin/../lib/gcc/x86_64-nacl/4.4.3/../../../../x86_64-nacl/lib/../lib32/libppapi_stub.a(ppapi_plugin_start_8da67623.o) (__nacl_register_thread_creator)
/home/jfb/nacl_sdk/pepper_42/toolchain/linux_x86_newlib/bin/../lib/gcc/x86_64-nacl/4.4.3/../../../../x86_64-nacl/lib/../lib32/libpthread.a(nc_thread_7e478b15.o)
                              /home/jfb/nacl_sdk/pepper_42/toolchain/linux_x86_newlib/bin/../lib/gcc/x86_64-nacl/4.4.3/../../../../x86_64-nacl/lib/../lib32/libppapi_stub.a(thread_creator_ccf263e1.o) (pthread_join)
/home/jfb/nacl_sdk/pepper_42/toolchain/linux_x86_newlib/bin/../lib/gcc/x86_64-nacl/4.4.3/../../../../x86_64-nacl/lib/../lib32/libpthread.a(nc_condvar_305aa45a.o)
                              /home/jfb/nacl_sdk/pepper_42/toolchain/linux_x86_newlib/bin/../lib/gcc/x86_64-nacl/4.4.3/../../../../x86_64-nacl/lib/../lib32/libpthread.a(nc_thread_7e478b15.o) (pthread_cond_init)
/home/jfb/nacl_sdk/pepper_42/toolchain/linux_x86_newlib/bin/../lib/gcc/x86_64-nacl/4.4.3/../../../../x86_64-nacl/lib/../lib32/libpthread.a(dynamic_annotations_33ba59cc.o)
                              /home/jfb/nacl_sdk/pepper_42/toolchain/linux_x86_newlib/bin/../lib/gcc/x86_64-nacl/4.4.3/../../../../x86_64-nacl/lib/../lib32/libpthread.a(nc_thread_7e478b15.o) (NACL_AnnotateCondVarWait)
/home/jfb/nacl_sdk/pepper_42/toolchain/linux_x86_newlib/bin/../lib/gcc/x86_64-nacl/4.4.3/../../../../x86_64-nacl/lib/../lib32/libpthread.a(nc_mutex_86341ae1.o)
                              /home/jfb/nacl_sdk/pepper_42/toolchain/linux_x86_newlib/bin/../lib/gcc/x86_64-nacl/4.4.3/../../../../x86_64-nacl/lib/../lib32/libpthread.a(nc_thread_7e478b15.o) (pthread_mutex_init)
/home/jfb/nacl_sdk/pepper_42/toolchain/linux_x86_newlib/bin/../lib/gcc/x86_64-nacl/4.4.3/../../../../x86_64-nacl/lib/../lib32/libpthread.a(nc_init_irt_d3daafc0.o)
                              /home/jfb/nacl_sdk/pepper_42/toolchain/linux_x86_newlib/bin/../lib/gcc/x86_64-nacl/4.4.3/../../../../x86_64-nacl/lib/../lib32/libpthread.a(nc_thread_7e478b15.o) (__nc_initialize_interfaces)
/home/jfb/nacl_sdk/pepper_42/toolchain/linux_x86_newlib/bin/../lib/gcc/x86_64-nacl/4.4.3/../../../../x86_64-nacl/lib/../lib32/libstdc++.a(tree.o)
                              /home/jfb/nacl_sdk/pepper_42//lib/newlib_x86_32/Release/libppapi_cpp.a(instance_x86_32.o) (_ZSt18_Rb_tree_incrementPKSt18_Rb_tree_node_base)
/home/jfb/nacl_sdk/pepper_42/toolchain/linux_x86_newlib/bin/../lib/gcc/x86_64-nacl/4.4.3/../../../../x86_64-nacl/lib/../lib32/libstdc++.a(string-inst.o)
                              /home/jfb/nacl_sdk/pepper_42//lib/newlib_x86_32/Release/libppapi_cpp.a(instance_x86_32.o) (_ZNSs4_Rep20_S_empty_rep_storageE)
/home/jfb/nacl_sdk/pepper_42/toolchain/linux_x86_newlib/bin/../lib/gcc/x86_64-nacl/4.4.3/../../../../x86_64-nacl/lib/../lib32/libstdc++.a(eh_personality.o)
                              newlib/Release/multi_platform_x86_32.o (__gxx_personality_v0)
/home/jfb/nacl_sdk/pepper_42/toolchain/linux_x86_newlib/bin/../lib/gcc/x86_64-nacl/4.4.3/../../../../x86_64-nacl/lib/../lib32/libstdc++.a(eh_globals.o)
                              /home/jfb/nacl_sdk/pepper_42/toolchain/linux_x86_newlib/bin/../lib/gcc/x86_64-nacl/4.4.3/../../../../x86_64-nacl/lib/../lib32/libstdc++.a(eh_personality.o) (__cxa_get_globals_fast)
/home/jfb/nacl_sdk/pepper_42/toolchain/linux_x86_newlib/bin/../lib/gcc/x86_64-nacl/4.4.3/../../../../x86_64-nacl/lib/../lib32/libstdc++.a(eh_throw.o)
                              /home/jfb/nacl_sdk/pepper_42//lib/newlib_x86_32/Release/libppapi_cpp.a(instance_x86_32.o) (__cxa_rethrow)
/home/jfb/nacl_sdk/pepper_42/toolchain/linux_x86_newlib/bin/../lib/gcc/x86_64-nacl/4.4.3/../../../../x86_64-nacl/lib/../lib32/libstdc++.a(del_op.o)
                              newlib/Release/multi_platform_x86_32.o (_ZdlPv)
/home/jfb/nacl_sdk/pepper_42/toolchain/linux_x86_newlib/bin/../lib/gcc/x86_64-nacl/4.4.3/../../../../x86_64-nacl/lib/../lib32/libstdc++.a(eh_call.o)
                              /home/jfb/nacl_sdk/pepper_42/toolchain/linux_x86_newlib/bin/../lib/gcc/x86_64-nacl/4.4.3/../../../../x86_64-nacl/lib/../lib32/libstdc++.a(eh_personality.o) (__cxa_call_terminate)
/home/jfb/nacl_sdk/pepper_42/toolchain/linux_x86_newlib/bin/../lib/gcc/x86_64-nacl/4.4.3/../../../../x86_64-nacl/lib/../lib32/libstdc++.a(guard.o)
                              /home/jfb/nacl_sdk/pepper_42//lib/newlib_x86_32/Release/libppapi_cpp.a(instance_x86_32.o) (__cxa_guard_release)
/home/jfb/nacl_sdk/pepper_42/toolchain/linux_x86_newlib/bin/../lib/gcc/x86_64-nacl/4.4.3/../../../../x86_64-nacl/lib/../lib32/libstdc++.a(si_class_type_info.o)
                              newlib/Release/multi_platform_x86_32.o (_ZTVN10__cxxabiv120__si_class_type_infoE)
/home/jfb/nacl_sdk/pepper_42/toolchain/linux_x86_newlib/bin/../lib/gcc/x86_64-nacl/4.4.3/../../../../x86_64-nacl/lib/../lib32/libstdc++.a(eh_terminate.o)
                              /home/jfb/nacl_sdk/pepper_42/toolchain/linux_x86_newlib/bin/../lib/gcc/x86_64-nacl/4.4.3/../../../../x86_64-nacl/lib/../lib32/libstdc++.a(eh_personality.o) (_ZN10__cxxabiv111__terminateEPFvvE)
/home/jfb/nacl_sdk/pepper_42/toolchain/linux_x86_newlib/bin/../lib/gcc/x86_64-nacl/4.4.3/../../../../x86_64-nacl/lib/../lib32/libstdc++.a(class_type_info.o)
                              /home/jfb/nacl_sdk/pepper_42/toolchain/linux_x86_newlib/bin/../lib/gcc/x86_64-nacl/4.4.3/../../../../x86_64-nacl/lib/../lib32/libstdc++.a(si_class_type_info.o) (_ZNK10__cxxabiv117__class_type_info10__do_catchEPKSt9type_infoPPvj)
/home/jfb/nacl_sdk/pepper_42/toolchain/linux_x86_newlib/bin/../lib/gcc/x86_64-nacl/4.4.3/../../../../x86_64-nacl/lib/../lib32/libstdc++.a(eh_alloc.o)
                              /home/jfb/nacl_sdk/pepper_42/toolchain/linux_x86_newlib/bin/../lib/gcc/x86_64-nacl/4.4.3/../../../../x86_64-nacl/lib/../lib32/libstdc++.a(eh_personality.o) (__cxa_allocate_exception)
/home/jfb/nacl_sdk/pepper_42/toolchain/linux_x86_newlib/bin/../lib/gcc/x86_64-nacl/4.4.3/../../../../x86_64-nacl/lib/../lib32/libstdc++.a(eh_catch.o)
                              /home/jfb/nacl_sdk/pepper_42//lib/newlib_x86_32/Release/libppapi_cpp.a(instance_x86_32.o) (__cxa_end_catch)
/home/jfb/nacl_sdk/pepper_42/toolchain/linux_x86_newlib/bin/../lib/gcc/x86_64-nacl/4.4.3/../../../../x86_64-nacl/lib/../lib32/libstdc++.a(eh_exception.o)
                              /home/jfb/nacl_sdk/pepper_42/toolchain/linux_x86_newlib/bin/../lib/gcc/x86_64-nacl/4.4.3/../../../../x86_64-nacl/lib/../lib32/libstdc++.a(guard.o) (_ZNSt9exceptionD2Ev)
/home/jfb/nacl_sdk/pepper_42/toolchain/linux_x86_newlib/bin/../lib/gcc/x86_64-nacl/4.4.3/../../../../x86_64-nacl/lib/../lib32/libstdc++.a(pure.o)
                              /home/jfb/nacl_sdk/pepper_42//lib/newlib_x86_32/Release/libppapi_cpp.a(module_x86_32.o) (__cxa_pure_virtual)
/home/jfb/nacl_sdk/pepper_42/toolchain/linux_x86_newlib/bin/../lib/gcc/x86_64-nacl/4.4.3/../../../../x86_64-nacl/lib/../lib32/libstdc++.a(new_op.o)
                              newlib/Release/multi_platform_x86_32.o (_Znwj)
/home/jfb/nacl_sdk/pepper_42/toolchain/linux_x86_newlib/bin/../lib/gcc/x86_64-nacl/4.4.3/../../../../x86_64-nacl/lib/../lib32/libstdc++.a(tinfo.o)
                              /home/jfb/nacl_sdk/pepper_42/toolchain/linux_x86_newlib/bin/../lib/gcc/x86_64-nacl/4.4.3/../../../../x86_64-nacl/lib/../lib32/libstdc++.a(class_type_info.o) (_ZNSt9type_infoD2Ev)
/home/jfb/nacl_sdk/pepper_42/toolchain/linux_x86_newlib/bin/../lib/gcc/x86_64-nacl/4.4.3/../../../../x86_64-nacl/lib/../lib32/libstdc++.a(functexcept.o)
                              /home/jfb/nacl_sdk/pepper_42/toolchain/linux_x86_newlib/bin/../lib/gcc/x86_64-nacl/4.4.3/../../../../x86_64-nacl/lib/../lib32/libstdc++.a(string-inst.o) (_ZSt20__throw_out_of_rangePKc)
/home/jfb/nacl_sdk/pepper_42/toolchain/linux_x86_newlib/bin/../lib/gcc/x86_64-nacl/4.4.3/../../../../x86_64-nacl/lib/../lib32/libstdc++.a(ios_failure.o)
                              /home/jfb/nacl_sdk/pepper_42/toolchain/linux_x86_newlib/bin/../lib/gcc/x86_64-nacl/4.4.3/../../../../x86_64-nacl/lib/../lib32/libstdc++.a(functexcept.o) (_ZNSt8ios_base7failureC1ERKSs)
/home/jfb/nacl_sdk/pepper_42/toolchain/linux_x86_newlib/bin/../lib/gcc/x86_64-nacl/4.4.3/../../../../x86_64-nacl/lib/../lib32/libstdc++.a(stdexcept.o)
                              /home/jfb/nacl_sdk/pepper_42/toolchain/linux_x86_newlib/bin/../lib/gcc/x86_64-nacl/4.4.3/../../../../x86_64-nacl/lib/../lib32/libstdc++.a(functexcept.o) (_ZNKSt11logic_error4whatEv)
/home/jfb/nacl_sdk/pepper_42/toolchain/linux_x86_newlib/bin/../lib/gcc/x86_64-nacl/4.4.3/../../../../x86_64-nacl/lib/../lib32/libstdc++.a(system_error.o)
                              /home/jfb/nacl_sdk/pepper_42/toolchain/linux_x86_newlib/bin/../lib/gcc/x86_64-nacl/4.4.3/../../../../x86_64-nacl/lib/../lib32/libstdc++.a(functexcept.o) (_ZSt16generic_categoryv)
/home/jfb/nacl_sdk/pepper_42/toolchain/linux_x86_newlib/bin/../lib/gcc/x86_64-nacl/4.4.3/../../../../x86_64-nacl/lib/../lib32/libstdc++.a(eh_unex_handler.o)
                              /home/jfb/nacl_sdk/pepper_42/toolchain/linux_x86_newlib/bin/../lib/gcc/x86_64-nacl/4.4.3/../../../../x86_64-nacl/lib/../lib32/libstdc++.a(eh_throw.o) (_ZN10__cxxabiv120__unexpected_handlerE)
/home/jfb/nacl_sdk/pepper_42/toolchain/linux_x86_newlib/bin/../lib/gcc/x86_64-nacl/4.4.3/../../../../x86_64-nacl/lib/../lib32/libstdc++.a(eh_term_handler.o)
                              /home/jfb/nacl_sdk/pepper_42/toolchain/linux_x86_newlib/bin/../lib/gcc/x86_64-nacl/4.4.3/../../../../x86_64-nacl/lib/../lib32/libstdc++.a(eh_throw.o) (_ZN10__cxxabiv119__terminate_handlerE)
/home/jfb/nacl_sdk/pepper_42/toolchain/linux_x86_newlib/bin/../lib/gcc/x86_64-nacl/4.4.3/../../../../x86_64-nacl/lib/../lib32/libstdc++.a(bad_typeid.o)
                              /home/jfb/nacl_sdk/pepper_42/toolchain/linux_x86_newlib/bin/../lib/gcc/x86_64-nacl/4.4.3/../../../../x86_64-nacl/lib/../lib32/libstdc++.a(functexcept.o) (_ZNSt10bad_typeidD1Ev)
/home/jfb/nacl_sdk/pepper_42/toolchain/linux_x86_newlib/bin/../lib/gcc/x86_64-nacl/4.4.3/../../../../x86_64-nacl/lib/../lib32/libstdc++.a(new_handler.o)
                              /home/jfb/nacl_sdk/pepper_42/toolchain/linux_x86_newlib/bin/../lib/gcc/x86_64-nacl/4.4.3/../../../../x86_64-nacl/lib/../lib32/libstdc++.a(new_op.o) (__new_handler)
/home/jfb/nacl_sdk/pepper_42/toolchain/linux_x86_newlib/bin/../lib/gcc/x86_64-nacl/4.4.3/../../../../x86_64-nacl/lib/../lib32/libstdc++.a(bad_cast.o)
                              /home/jfb/nacl_sdk/pepper_42/toolchain/linux_x86_newlib/bin/../lib/gcc/x86_64-nacl/4.4.3/../../../../x86_64-nacl/lib/../lib32/libstdc++.a(functexcept.o) (_ZNSt8bad_castD1Ev)
/home/jfb/nacl_sdk/pepper_42/toolchain/linux_x86_newlib/bin/../lib/gcc/x86_64-nacl/4.4.3/../../../../x86_64-nacl/lib/../lib32/libstdc++.a(vterminate.o)
                              /home/jfb/nacl_sdk/pepper_42/toolchain/linux_x86_newlib/bin/../lib/gcc/x86_64-nacl/4.4.3/../../../../x86_64-nacl/lib/../lib32/libstdc++.a(eh_term_handler.o) (_ZN9__gnu_cxx27__verbose_terminate_handlerEv)
/home/jfb/nacl_sdk/pepper_42/toolchain/linux_x86_newlib/bin/../lib/gcc/x86_64-nacl/4.4.3/../../../../x86_64-nacl/lib/../lib32/libstdc++.a(cp-demangle.o)
                              /home/jfb/nacl_sdk/pepper_42/toolchain/linux_x86_newlib/bin/../lib/gcc/x86_64-nacl/4.4.3/../../../../x86_64-nacl/lib/../lib32/libstdc++.a(vterminate.o) (__cxa_demangle)
/home/jfb/nacl_sdk/pepper_42/toolchain/linux_x86_newlib/bin/../lib/gcc/x86_64-nacl/4.4.3/../../../../x86_64-nacl/lib/../lib32/libstdc++.a(eh_type.o)
                              /home/jfb/nacl_sdk/pepper_42/toolchain/linux_x86_newlib/bin/../lib/gcc/x86_64-nacl/4.4.3/../../../../x86_64-nacl/lib/../lib32/libstdc++.a(vterminate.o) (__cxa_current_exception_type)
/home/jfb/nacl_sdk/pepper_42/toolchain/linux_x86_newlib/bin/../lib/gcc/x86_64-nacl/4.4.3/32/libgcc.a(unwind-dw2.o)
                              /home/jfb/nacl_sdk/pepper_42/toolchain/linux_x86_newlib/bin/../lib/gcc/x86_64-nacl/4.4.3/../../../../x86_64-nacl/lib/../lib32/libstdc++.a(eh_personality.o) (_Unwind_GetIPInfo)
/home/jfb/nacl_sdk/pepper_42/toolchain/linux_x86_newlib/bin/../lib/gcc/x86_64-nacl/4.4.3/32/libgcc.a(unwind-dw2-fde-glibc.o)
                              /home/jfb/nacl_sdk/pepper_42/toolchain/linux_x86_newlib/bin/../lib/gcc/x86_64-nacl/4.4.3/32/libgcc.a(unwind-dw2.o) (_Unwind_Find_FDE)
/home/jfb/nacl_sdk/pepper_42/toolchain/linux_x86_newlib/bin/../lib/gcc/x86_64-nacl/4.4.3/../../../../x86_64-nacl/lib/../lib32/libnacl.a(_exit_710c7d0d.o)
                              (_exit)
/home/jfb/nacl_sdk/pepper_42/toolchain/linux_x86_newlib/bin/../lib/gcc/x86_64-nacl/4.4.3/../../../../x86_64-nacl/lib/../lib32/libnacl.a(abort_9f6b5845.o)
                              /home/jfb/nacl_sdk/pepper_42/toolchain/linux_x86_newlib/bin/../lib/gcc/x86_64-nacl/4.4.3/../../../../x86_64-nacl/lib/../lib32/libstdc++.a(eh_personality.o) (abort)
/home/jfb/nacl_sdk/pepper_42/toolchain/linux_x86_newlib/bin/../lib/gcc/x86_64-nacl/4.4.3/../../../../x86_64-nacl/lib/../lib32/libnacl.a(environ_25cd24d8.o)
                              /home/jfb/nacl_sdk/pepper_42/toolchain/linux_x86_newlib/bin/../lib/gcc/x86_64-nacl/4.4.3/../../../../x86_64-nacl/lib/../lib32/libppapi_stub.a(ppapi_plugin_start_8da67623.o) (environ)
/home/jfb/nacl_sdk/pepper_42/toolchain/linux_x86_newlib/bin/../lib/gcc/x86_64-nacl/4.4.3/../../../../x86_64-nacl/lib/../lib32/libnacl.a(start_fa9ef7de.o)
                              (_start)
/home/jfb/nacl_sdk/pepper_42/toolchain/linux_x86_newlib/bin/../lib/gcc/x86_64-nacl/4.4.3/../../../../x86_64-nacl/lib/../lib32/libnacl.a(malloc_222c4a1e.o)
                              /home/jfb/nacl_sdk/pepper_42/toolchain/linux_x86_newlib/bin/../lib/gcc/x86_64-nacl/4.4.3/../../../../x86_64-nacl/lib/../lib32/libpthread.a(nc_thread_7e478b15.o) (free)
/home/jfb/nacl_sdk/pepper_42/toolchain/linux_x86_newlib/bin/../lib/gcc/x86_64-nacl/4.4.3/../../../../x86_64-nacl/lib/../lib32/libnacl.a(nacl_irt_6de1d53f.o)
                              /home/jfb/nacl_sdk/pepper_42/toolchain/linux_x86_newlib/bin/../lib/gcc/x86_64-nacl/4.4.3/../../../../x86_64-nacl/lib/../lib32/libpthread.a(nc_init_irt_d3daafc0.o) (__libnacl_mandatory_irt_query)
/home/jfb/nacl_sdk/pepper_42/toolchain/linux_x86_newlib/bin/../lib/gcc/x86_64-nacl/4.4.3/../../../../x86_64-nacl/lib/../lib32/libnacl.a(pthread_initialize_minimal_4b6e776b.o)
                              /home/jfb/nacl_sdk/pepper_42/toolchain/linux_x86_newlib/bin/../lib/gcc/x86_64-nacl/4.4.3/../../../../x86_64-nacl/lib/../lib32/libpthread.a(nc_thread_7e478b15.o) (__pthread_initialize_minimal)
/home/jfb/nacl_sdk/pepper_42/toolchain/linux_x86_newlib/bin/../lib/gcc/x86_64-nacl/4.4.3/../../../../x86_64-nacl/lib/../lib32/libnacl.a(nacl_read_tp_5748ac47.o)
                              /home/jfb/nacl_sdk/pepper_42/toolchain/linux_x86_newlib/bin/../lib/gcc/x86_64-nacl/4.4.3/../../../../x86_64-nacl/lib/../lib32/libpthread.a(nc_thread_7e478b15.o) (__nacl_read_tp)
/home/jfb/nacl_sdk/pepper_42/toolchain/linux_x86_newlib/bin/../lib/gcc/x86_64-nacl/4.4.3/../../../../x86_64-nacl/lib/../lib32/libnacl.a(mmap_767fb080.o)
                              /home/jfb/nacl_sdk/pepper_42/toolchain/linux_x86_newlib/bin/../lib/gcc/x86_64-nacl/4.4.3/../../../../x86_64-nacl/lib/../lib32/libnacl.a(malloc_222c4a1e.o) (mmap)
/home/jfb/nacl_sdk/pepper_42/toolchain/linux_x86_newlib/bin/../lib/gcc/x86_64-nacl/4.4.3/../../../../x86_64-nacl/lib/../lib32/libnacl.a(sched_yield_56c375be.o)
                              /home/jfb/nacl_sdk/pepper_42/toolchain/linux_x86_newlib/bin/../lib/gcc/x86_64-nacl/4.4.3/../../../../x86_64-nacl/lib/../lib32/libnacl.a(malloc_222c4a1e.o) (sched_yield)
/home/jfb/nacl_sdk/pepper_42/toolchain/linux_x86_newlib/bin/../lib/gcc/x86_64-nacl/4.4.3/../../../../x86_64-nacl/lib/../lib32/libnacl.a(munmap_d4f09867.o)
                              /home/jfb/nacl_sdk/pepper_42/toolchain/linux_x86_newlib/bin/../lib/gcc/x86_64-nacl/4.4.3/../../../../x86_64-nacl/lib/../lib32/libnacl.a(malloc_222c4a1e.o) (munmap)
/home/jfb/nacl_sdk/pepper_42/toolchain/linux_x86_newlib/bin/../lib/gcc/x86_64-nacl/4.4.3/../../../../x86_64-nacl/lib/../lib32/libnacl.a(tls_bba1975b.o)
                              /home/jfb/nacl_sdk/pepper_42/toolchain/linux_x86_newlib/bin/../lib/gcc/x86_64-nacl/4.4.3/../../../../x86_64-nacl/lib/../lib32/libpthread.a(nc_thread_7e478b15.o) (__nacl_tls_combined_size)
/home/jfb/nacl_sdk/pepper_42/toolchain/linux_x86_newlib/bin/../lib/gcc/x86_64-nacl/4.4.3/../../../../x86_64-nacl/lib/../lib32/libnacl.a(write_fb49787f.o)
                              /home/jfb/nacl_sdk/pepper_42/toolchain/linux_x86_newlib/bin/../lib/gcc/x86_64-nacl/4.4.3/../../../../x86_64-nacl/lib/../lib32/libppapi_stub.a(ppapi_plugin_start_8da67623.o) (write)
/home/jfb/nacl_sdk/pepper_42/toolchain/linux_x86_newlib/bin/../lib/gcc/x86_64-nacl/4.4.3/../../../../x86_64-nacl/lib/../lib32/libnacl.a(nacl_tls_get_d2f842b5.o)
                              /home/jfb/nacl_sdk/pepper_42/toolchain/linux_x86_newlib/bin/../lib/gcc/x86_64-nacl/4.4.3/../../../../x86_64-nacl/lib/../lib32/libnacl.a(nacl_read_tp_5748ac47.o) (nacl_tls_get)
/home/jfb/nacl_sdk/pepper_42/toolchain/linux_x86_newlib/bin/../lib/gcc/x86_64-nacl/4.4.3/../../../../x86_64-nacl/lib/../lib32/libnacl.a(nacl_irt_init_7b4f826e.o)
                              /home/jfb/nacl_sdk/pepper_42/toolchain/linux_x86_newlib/bin/../lib/gcc/x86_64-nacl/4.4.3/../../../../x86_64-nacl/lib/../lib32/libnacl.a(start_fa9ef7de.o) (__libnacl_irt_init)
/home/jfb/nacl_sdk/pepper_42/toolchain/linux_x86_newlib/bin/../lib/gcc/x86_64-nacl/4.4.3/../../../../x86_64-nacl/lib/../lib32/libnacl.a(sysconf_ad295ea2.o)
                              /home/jfb/nacl_sdk/pepper_42/toolchain/linux_x86_newlib/bin/../lib/gcc/x86_64-nacl/4.4.3/../../../../x86_64-nacl/lib/../lib32/libnacl.a(malloc_222c4a1e.o) (sysconf)
/home/jfb/nacl_sdk/pepper_42/toolchain/linux_x86_newlib/bin/../lib/gcc/x86_64-nacl/4.4.3/../../../../x86_64-nacl/lib/../lib32/libnacl.a(nacl_tls_init_eb0cd232.o)
                              /home/jfb/nacl_sdk/pepper_42/toolchain/linux_x86_newlib/bin/../lib/gcc/x86_64-nacl/4.4.3/../../../../x86_64-nacl/lib/../lib32/libnacl.a(pthread_initialize_minimal_4b6e776b.o) (nacl_tls_init)
/home/jfb/nacl_sdk/pepper_42/toolchain/linux_x86_newlib/bin/../lib/gcc/x86_64-nacl/4.4.3/../../../../x86_64-nacl/lib/../lib32/libcrt_common.a(lib_a-atexit.o)
                              /home/jfb/nacl_sdk/pepper_42/toolchain/linux_x86_newlib/bin/../lib/gcc/x86_64-nacl/4.4.3/../../../../x86_64-nacl/lib/../lib32/libnacl.a(start_fa9ef7de.o) (atexit)
/home/jfb/nacl_sdk/pepper_42/toolchain/linux_x86_newlib/bin/../lib/gcc/x86_64-nacl/4.4.3/../../../../x86_64-nacl/lib/../lib32/libcrt_common.a(lib_a-cxa_atexit.o)
                              /home/jfb/nacl_sdk/pepper_42/toolchain/linux_x86_newlib/bin/../lib/gcc/x86_64-nacl/4.4.3/../../../../x86_64-nacl/lib/../lib32/libstdc++.a(eh_globals.o) (__cxa_atexit)
/home/jfb/nacl_sdk/pepper_42/toolchain/linux_x86_newlib/bin/../lib/gcc/x86_64-nacl/4.4.3/../../../../x86_64-nacl/lib/../lib32/libcrt_common.a(lib_a-errno.o)
                              /home/jfb/nacl_sdk/pepper_42/toolchain/linux_x86_newlib/bin/../lib/gcc/x86_64-nacl/4.4.3/../../../../x86_64-nacl/lib/../lib32/libnacl.a(malloc_222c4a1e.o) (__errno)
/home/jfb/nacl_sdk/pepper_42/toolchain/linux_x86_newlib/bin/../lib/gcc/x86_64-nacl/4.4.3/../../../../x86_64-nacl/lib/../lib32/libcrt_common.a(lib_a-exit.o)
                              (exit)
/home/jfb/nacl_sdk/pepper_42/toolchain/linux_x86_newlib/bin/../lib/gcc/x86_64-nacl/4.4.3/../../../../x86_64-nacl/lib/../lib32/libcrt_common.a(lib_a-fini.o)
                              /home/jfb/nacl_sdk/pepper_42/toolchain/linux_x86_newlib/bin/../lib/gcc/x86_64-nacl/4.4.3/../../../../x86_64-nacl/lib/../lib32/libnacl.a(start_fa9ef7de.o) (__libc_fini_array)
/home/jfb/nacl_sdk/pepper_42/toolchain/linux_x86_newlib/bin/../lib/gcc/x86_64-nacl/4.4.3/../../../../x86_64-nacl/lib/../lib32/libcrt_common.a(lib_a-fprintf.o)
                              /home/jfb/nacl_sdk/pepper_42/toolchain/linux_x86_newlib/bin/../lib/gcc/x86_64-nacl/4.4.3/../../../../x86_64-nacl/lib/../lib32/libnacl.a(malloc_222c4a1e.o) (fprintf)
/home/jfb/nacl_sdk/pepper_42/toolchain/linux_x86_newlib/bin/../lib/gcc/x86_64-nacl/4.4.3/../../../../x86_64-nacl/lib/../lib32/libcrt_common.a(lib_a-fputc.o)
                              /home/jfb/nacl_sdk/pepper_42/toolchain/linux_x86_newlib/bin/../lib/gcc/x86_64-nacl/4.4.3/../../../../x86_64-nacl/lib/../lib32/libstdc++.a(vterminate.o) (fputc)
/home/jfb/nacl_sdk/pepper_42/toolchain/linux_x86_newlib/bin/../lib/gcc/x86_64-nacl/4.4.3/../../../../x86_64-nacl/lib/../lib32/libcrt_common.a(lib_a-fputs.o)
                              /home/jfb/nacl_sdk/pepper_42/toolchain/linux_x86_newlib/bin/../lib/gcc/x86_64-nacl/4.4.3/../../../../x86_64-nacl/lib/../lib32/libstdc++.a(vterminate.o) (fputs)
/home/jfb/nacl_sdk/pepper_42/toolchain/linux_x86_newlib/bin/../lib/gcc/x86_64-nacl/4.4.3/../../../../x86_64-nacl/lib/../lib32/libcrt_common.a(lib_a-fvwrite.o)
                              /home/jfb/nacl_sdk/pepper_42/toolchain/linux_x86_newlib/bin/../lib/gcc/x86_64-nacl/4.4.3/../../../../x86_64-nacl/lib/../lib32/libcrt_common.a(lib_a-fputs.o) (__sfvwrite_r)
/home/jfb/nacl_sdk/pepper_42/toolchain/linux_x86_newlib/bin/../lib/gcc/x86_64-nacl/4.4.3/../../../../x86_64-nacl/lib/../lib32/libcrt_common.a(lib_a-fwrite.o)
                              /home/jfb/nacl_sdk/pepper_42/toolchain/linux_x86_newlib/bin/../lib/gcc/x86_64-nacl/4.4.3/../../../../x86_64-nacl/lib/../lib32/libstdc++.a(vterminate.o) (fwrite)
/home/jfb/nacl_sdk/pepper_42/toolchain/linux_x86_newlib/bin/../lib/gcc/x86_64-nacl/4.4.3/../../../../x86_64-nacl/lib/../lib32/libcrt_common.a(lib_a-getenv.o)
                              /home/jfb/nacl_sdk/pepper_42/toolchain/linux_x86_newlib/bin/../lib/gcc/x86_64-nacl/4.4.3/../../../../x86_64-nacl/lib/../lib32/libpthread.a(dynamic_annotations_33ba59cc.o) (getenv)
/home/jfb/nacl_sdk/pepper_42/toolchain/linux_x86_newlib/bin/../lib/gcc/x86_64-nacl/4.4.3/../../../../x86_64-nacl/lib/../lib32/libcrt_common.a(lib_a-getenv_r.o)
                              /home/jfb/nacl_sdk/pepper_42/toolchain/linux_x86_newlib/bin/../lib/gcc/x86_64-nacl/4.4.3/../../../../x86_64-nacl/lib/../lib32/libcrt_common.a(lib_a-getenv.o) (_findenv_r)
/home/jfb/nacl_sdk/pepper_42/toolchain/linux_x86_newlib/bin/../lib/gcc/x86_64-nacl/4.4.3/../../../../x86_64-nacl/lib/../lib32/libcrt_common.a(lib_a-impure.o)
                              /home/jfb/nacl_sdk/pepper_42/toolchain/linux_x86_newlib/bin/../lib/gcc/x86_64-nacl/4.4.3/../../../../x86_64-nacl/lib/../lib32/libpthread.a(nc_thread_7e478b15.o) (__newlib_thread_init)
/home/jfb/nacl_sdk/pepper_42/toolchain/linux_x86_newlib/bin/../lib/gcc/x86_64-nacl/4.4.3/../../../../x86_64-nacl/lib/../lib32/libcrt_common.a(lib_a-init.o)
                              /home/jfb/nacl_sdk/pepper_42/toolchain/linux_x86_newlib/bin/../lib/gcc/x86_64-nacl/4.4.3/../../../../x86_64-nacl/lib/../lib32/libnacl.a(start_fa9ef7de.o) (__libc_init_array)
/home/jfb/nacl_sdk/pepper_42/toolchain/linux_x86_newlib/bin/../lib/gcc/x86_64-nacl/4.4.3/../../../../x86_64-nacl/lib/../lib32/libcrt_common.a(lib_a-memchr.o)
                              /home/jfb/nacl_sdk/pepper_42/toolchain/linux_x86_newlib/bin/../lib/gcc/x86_64-nacl/4.4.3/../../../../x86_64-nacl/lib/../lib32/libstdc++.a(string-inst.o) (memchr)
/home/jfb/nacl_sdk/pepper_42/toolchain/linux_x86_newlib/bin/../lib/gcc/x86_64-nacl/4.4.3/../../../../x86_64-nacl/lib/../lib32/libcrt_common.a(lib_a-memcpy.o)
                              /home/jfb/nacl_sdk/pepper_42/toolchain/linux_x86_newlib/bin/../lib/gcc/x86_64-nacl/4.4.3/../../../../x86_64-nacl/lib/../lib32/libstdc++.a(string-inst.o) (memcpy)
/home/jfb/nacl_sdk/pepper_42/toolchain/linux_x86_newlib/bin/../lib/gcc/x86_64-nacl/4.4.3/../../../../x86_64-nacl/lib/../lib32/libcrt_common.a(lib_a-memmove.o)
                              /home/jfb/nacl_sdk/pepper_42/toolchain/linux_x86_newlib/bin/../lib/gcc/x86_64-nacl/4.4.3/../../../../x86_64-nacl/lib/../lib32/libstdc++.a(string-inst.o) (memmove)
/home/jfb/nacl_sdk/pepper_42/toolchain/linux_x86_newlib/bin/../lib/gcc/x86_64-nacl/4.4.3/../../../../x86_64-nacl/lib/../lib32/libcrt_common.a(lib_a-memset.o)
                              /home/jfb/nacl_sdk/pepper_42/toolchain/linux_x86_newlib/bin/../lib/gcc/x86_64-nacl/4.4.3/../../../../x86_64-nacl/lib/../lib32/libstdc++.a(string-inst.o) (memset)
/home/jfb/nacl_sdk/pepper_42/toolchain/linux_x86_newlib/bin/../lib/gcc/x86_64-nacl/4.4.3/../../../../x86_64-nacl/lib/../lib32/libcrt_common.a(lib_a-putc.o)
                              /home/jfb/nacl_sdk/pepper_42/toolchain/linux_x86_newlib/bin/../lib/gcc/x86_64-nacl/4.4.3/../../../../x86_64-nacl/lib/../lib32/libcrt_common.a(lib_a-fputc.o) (_putc_r)
/home/jfb/nacl_sdk/pepper_42/toolchain/linux_x86_newlib/bin/../lib/gcc/x86_64-nacl/4.4.3/../../../../x86_64-nacl/lib/../lib32/libcrt_common.a(lib_a-snprintf.o)
                              /home/jfb/nacl_sdk/pepper_42//lib/newlib_x86_32/Release/libppapi_cpp.a(var_x86_32.o) (snprintf)
/home/jfb/nacl_sdk/pepper_42/toolchain/linux_x86_newlib/bin/../lib/gcc/x86_64-nacl/4.4.3/../../../../x86_64-nacl/lib/../lib32/libcrt_common.a(lib_a-sprintf.o)
                              /home/jfb/nacl_sdk/pepper_42/toolchain/linux_x86_newlib/bin/../lib/gcc/x86_64-nacl/4.4.3/../../../../x86_64-nacl/lib/../lib32/libstdc++.a(cp-demangle.o) (sprintf)
/home/jfb/nacl_sdk/pepper_42/toolchain/linux_x86_newlib/bin/../lib/gcc/x86_64-nacl/4.4.3/../../../../x86_64-nacl/lib/../lib32/libcrt_common.a(lib_a-strcpy.o)
                              /home/jfb/nacl_sdk/pepper_42/toolchain/linux_x86_newlib/bin/../lib/gcc/x86_64-nacl/4.4.3/../../../../x86_64-nacl/lib/../lib32/libstdc++.a(cp-demangle.o) (strcpy)
/home/jfb/nacl_sdk/pepper_42/toolchain/linux_x86_newlib/bin/../lib/gcc/x86_64-nacl/4.4.3/../../../../x86_64-nacl/lib/../lib32/libcrt_common.a(lib_a-strerror.o)
                              /home/jfb/nacl_sdk/pepper_42/toolchain/linux_x86_newlib/bin/../lib/gcc/x86_64-nacl/4.4.3/../../../../x86_64-nacl/lib/../lib32/libstdc++.a(system_error.o) (strerror)
/home/jfb/nacl_sdk/pepper_42/toolchain/linux_x86_newlib/bin/../lib/gcc/x86_64-nacl/4.4.3/../../../../x86_64-nacl/lib/../lib32/libcrt_common.a(lib_a-strlen.o)
                              /home/jfb/nacl_sdk/pepper_42//lib/newlib_x86_32/Release/libppapi_cpp.a(var_x86_32.o) (strlen)
/home/jfb/nacl_sdk/pepper_42/toolchain/linux_x86_newlib/bin/../lib/gcc/x86_64-nacl/4.4.3/../../../../x86_64-nacl/lib/../lib32/libcrt_common.a(lib_a-strncmp.o)
                              /home/jfb/nacl_sdk/pepper_42/toolchain/linux_x86_newlib/bin/../lib/gcc/x86_64-nacl/4.4.3/../../../../x86_64-nacl/lib/../lib32/libcrt_common.a(lib_a-getenv_r.o) (strncmp)
/home/jfb/nacl_sdk/pepper_42/toolchain/linux_x86_newlib/bin/../lib/gcc/x86_64-nacl/4.4.3/../../../../x86_64-nacl/lib/../lib32/libcrt_common.a(lib_a-svfprintf.o)
                              /home/jfb/nacl_sdk/pepper_42/toolchain/linux_x86_newlib/bin/../lib/gcc/x86_64-nacl/4.4.3/../../../../x86_64-nacl/lib/../lib32/libcrt_common.a(lib_a-snprintf.o) (_svfprintf_r)
/home/jfb/nacl_sdk/pepper_42/toolchain/linux_x86_newlib/bin/../lib/gcc/x86_64-nacl/4.4.3/../../../../x86_64-nacl/lib/../lib32/libcrt_common.a(lib_a-u_strerr.o)
                              /home/jfb/nacl_sdk/pepper_42/toolchain/linux_x86_newlib/bin/../lib/gcc/x86_64-nacl/4.4.3/../../../../x86_64-nacl/lib/../lib32/libcrt_common.a(lib_a-strerror.o) (_user_strerror)
/home/jfb/nacl_sdk/pepper_42/toolchain/linux_x86_newlib/bin/../lib/gcc/x86_64-nacl/4.4.3/../../../../x86_64-nacl/lib/../lib32/libcrt_common.a(lib_a-vfprintf.o)
                              /home/jfb/nacl_sdk/pepper_42/toolchain/linux_x86_newlib/bin/../lib/gcc/x86_64-nacl/4.4.3/../../../../x86_64-nacl/lib/../lib32/libcrt_common.a(lib_a-fprintf.o) (_vfprintf_r)
/home/jfb/nacl_sdk/pepper_42/toolchain/linux_x86_newlib/bin/../lib/gcc/x86_64-nacl/4.4.3/../../../../x86_64-nacl/lib/../lib32/libcrt_common.a(lib_a-wbuf.o)
                              /home/jfb/nacl_sdk/pepper_42/toolchain/linux_x86_newlib/bin/../lib/gcc/x86_64-nacl/4.4.3/../../../../x86_64-nacl/lib/../lib32/libcrt_common.a(lib_a-putc.o) (__swbuf_r)
/home/jfb/nacl_sdk/pepper_42/toolchain/linux_x86_newlib/bin/../lib/gcc/x86_64-nacl/4.4.3/../../../../x86_64-nacl/lib/../lib32/libcrt_common.a(lib_a-wcrtomb.o)
                              /home/jfb/nacl_sdk/pepper_42/toolchain/linux_x86_newlib/bin/../lib/gcc/x86_64-nacl/4.4.3/../../../../x86_64-nacl/lib/../lib32/libcrt_common.a(lib_a-svfprintf.o) (_wcrtomb_r)
/home/jfb/nacl_sdk/pepper_42/toolchain/linux_x86_newlib/bin/../lib/gcc/x86_64-nacl/4.4.3/../../../../x86_64-nacl/lib/../lib32/libcrt_common.a(lib_a-wcsrtombs.o)
                              /home/jfb/nacl_sdk/pepper_42/toolchain/linux_x86_newlib/bin/../lib/gcc/x86_64-nacl/4.4.3/../../../../x86_64-nacl/lib/../lib32/libcrt_common.a(lib_a-svfprintf.o) (_wcsrtombs_r)
/home/jfb/nacl_sdk/pepper_42/toolchain/linux_x86_newlib/bin/../lib/gcc/x86_64-nacl/4.4.3/../../../../x86_64-nacl/lib/../lib32/libcrt_common.a(lib_a-wctomb_r.o)
                              /home/jfb/nacl_sdk/pepper_42/toolchain/linux_x86_newlib/bin/../lib/gcc/x86_64-nacl/4.4.3/../../../../x86_64-nacl/lib/../lib32/libcrt_common.a(lib_a-wcrtomb.o) (__wctomb)
/home/jfb/nacl_sdk/pepper_42/toolchain/linux_x86_newlib/bin/../lib/gcc/x86_64-nacl/4.4.3/../../../../x86_64-nacl/lib/../lib32/libcrt_common.a(lib_a-wsetup.o)
                              /home/jfb/nacl_sdk/pepper_42/toolchain/linux_x86_newlib/bin/../lib/gcc/x86_64-nacl/4.4.3/../../../../x86_64-nacl/lib/../lib32/libcrt_common.a(lib_a-fvwrite.o) (__swsetup_r)
/home/jfb/nacl_sdk/pepper_42/toolchain/linux_x86_newlib/bin/../lib/gcc/x86_64-nacl/4.4.3/../../../../x86_64-nacl/lib/../lib32/libcrt_common.a(lib_a-__atexit.o)
                              /home/jfb/nacl_sdk/pepper_42/toolchain/linux_x86_newlib/bin/../lib/gcc/x86_64-nacl/4.4.3/../../../../x86_64-nacl/lib/../lib32/libcrt_common.a(lib_a-atexit.o) (__register_exitproc)
/home/jfb/nacl_sdk/pepper_42/toolchain/linux_x86_newlib/bin/../lib/gcc/x86_64-nacl/4.4.3/../../../../x86_64-nacl/lib/../lib32/libcrt_common.a(lib_a-__call_atexit.o)
                              /home/jfb/nacl_sdk/pepper_42/toolchain/linux_x86_newlib/bin/../lib/gcc/x86_64-nacl/4.4.3/../../../../x86_64-nacl/lib/../lib32/libcrt_common.a(lib_a-exit.o) (__call_exitprocs)
/home/jfb/nacl_sdk/pepper_42/toolchain/linux_x86_newlib/bin/../lib/gcc/x86_64-nacl/4.4.3/../../../../x86_64-nacl/lib/../lib32/libcrt_common.a(lib_a-dtoa.o)
                              /home/jfb/nacl_sdk/pepper_42/toolchain/linux_x86_newlib/bin/../lib/gcc/x86_64-nacl/4.4.3/../../../../x86_64-nacl/lib/../lib32/libcrt_common.a(lib_a-svfprintf.o) (_dtoa_r)
/home/jfb/nacl_sdk/pepper_42/toolchain/linux_x86_newlib/bin/../lib/gcc/x86_64-nacl/4.4.3/../../../../x86_64-nacl/lib/../lib32/libcrt_common.a(lib_a-envlock.o)
                              /home/jfb/nacl_sdk/pepper_42/toolchain/linux_x86_newlib/bin/../lib/gcc/x86_64-nacl/4.4.3/../../../../x86_64-nacl/lib/../lib32/libcrt_common.a(lib_a-getenv_r.o) (__env_unlock)
/home/jfb/nacl_sdk/pepper_42/toolchain/linux_x86_newlib/bin/../lib/gcc/x86_64-nacl/4.4.3/../../../../x86_64-nacl/lib/../lib32/libcrt_common.a(lib_a-fflush.o)
                              /home/jfb/nacl_sdk/pepper_42/toolchain/linux_x86_newlib/bin/../lib/gcc/x86_64-nacl/4.4.3/../../../../x86_64-nacl/lib/../lib32/libcrt_common.a(lib_a-fvwrite.o) (_fflush_r)
/home/jfb/nacl_sdk/pepper_42/toolchain/linux_x86_newlib/bin/../lib/gcc/x86_64-nacl/4.4.3/../../../../x86_64-nacl/lib/../lib32/libcrt_common.a(lib_a-findfp.o)
                              /home/jfb/nacl_sdk/pepper_42/toolchain/linux_x86_newlib/bin/../lib/gcc/x86_64-nacl/4.4.3/../../../../x86_64-nacl/lib/../lib32/libcrt_common.a(lib_a-fputc.o) (__sinit)
/home/jfb/nacl_sdk/pepper_42/toolchain/linux_x86_newlib/bin/../lib/gcc/x86_64-nacl/4.4.3/../../../../x86_64-nacl/lib/../lib32/libcrt_common.a(lib_a-fwalk.o)
                              /home/jfb/nacl_sdk/pepper_42/toolchain/linux_x86_newlib/bin/../lib/gcc/x86_64-nacl/4.4.3/../../../../x86_64-nacl/lib/../lib32/libcrt_common.a(lib_a-fflush.o) (_fwalk_reent)
/home/jfb/nacl_sdk/pepper_42/toolchain/linux_x86_newlib/bin/../lib/gcc/x86_64-nacl/4.4.3/../../../../x86_64-nacl/lib/../lib32/libcrt_common.a(lib_a-locale.o)
                              /home/jfb/nacl_sdk/pepper_42/toolchain/linux_x86_newlib/bin/../lib/gcc/x86_64-nacl/4.4.3/../../../../x86_64-nacl/lib/../lib32/libcrt_common.a(lib_a-svfprintf.o) (__locale_charset)
/home/jfb/nacl_sdk/pepper_42/toolchain/linux_x86_newlib/bin/../lib/gcc/x86_64-nacl/4.4.3/../../../../x86_64-nacl/lib/../lib32/libcrt_common.a(lib_a-makebuf.o)
                              /home/jfb/nacl_sdk/pepper_42/toolchain/linux_x86_newlib/bin/../lib/gcc/x86_64-nacl/4.4.3/../../../../x86_64-nacl/lib/../lib32/libcrt_common.a(lib_a-wsetup.o) (__smakebuf_r)
/home/jfb/nacl_sdk/pepper_42/toolchain/linux_x86_newlib/bin/../lib/gcc/x86_64-nacl/4.4.3/../../../../x86_64-nacl/lib/../lib32/libcrt_common.a(lib_a-mbtowc_r.o)
                              /home/jfb/nacl_sdk/pepper_42/toolchain/linux_x86_newlib/bin/../lib/gcc/x86_64-nacl/4.4.3/../../../../x86_64-nacl/lib/../lib32/libcrt_common.a(lib_a-locale.o) (__ascii_mbtowc)
/home/jfb/nacl_sdk/pepper_42/toolchain/linux_x86_newlib/bin/../lib/gcc/x86_64-nacl/4.4.3/../../../../x86_64-nacl/lib/../lib32/libcrt_common.a(lib_a-mprec.o)
                              /home/jfb/nacl_sdk/pepper_42/toolchain/linux_x86_newlib/bin/../lib/gcc/x86_64-nacl/4.4.3/../../../../x86_64-nacl/lib/../lib32/libcrt_common.a(lib_a-dtoa.o) (_Bfree)
/home/jfb/nacl_sdk/pepper_42/toolchain/linux_x86_newlib/bin/../lib/gcc/x86_64-nacl/4.4.3/../../../../x86_64-nacl/lib/../lib32/libcrt_common.a(lib_a-s_fpclassify.o)
                              /home/jfb/nacl_sdk/pepper_42/toolchain/linux_x86_newlib/bin/../lib/gcc/x86_64-nacl/4.4.3/../../../../x86_64-nacl/lib/../lib32/libcrt_common.a(lib_a-svfprintf.o) (__fpclassifyd)
/home/jfb/nacl_sdk/pepper_42/toolchain/linux_x86_newlib/bin/../lib/gcc/x86_64-nacl/4.4.3/../../../../x86_64-nacl/lib/../lib32/libcrt_common.a(lib_a-s_frexp.o)
                              /home/jfb/nacl_sdk/pepper_42/toolchain/linux_x86_newlib/bin/../lib/gcc/x86_64-nacl/4.4.3/../../../../x86_64-nacl/lib/../lib32/libcrt_common.a(lib_a-svfprintf.o) (frexp)
/home/jfb/nacl_sdk/pepper_42/toolchain/linux_x86_newlib/bin/../lib/gcc/x86_64-nacl/4.4.3/../../../../x86_64-nacl/lib/../lib32/libcrt_common.a(lib_a-stdio.o)
                              /home/jfb/nacl_sdk/pepper_42/toolchain/linux_x86_newlib/bin/../lib/gcc/x86_64-nacl/4.4.3/../../../../x86_64-nacl/lib/../lib32/libcrt_common.a(lib_a-findfp.o) (__sclose)
/home/jfb/nacl_sdk/pepper_42/toolchain/linux_x86_newlib/bin/../lib/gcc/x86_64-nacl/4.4.3/../../../../x86_64-nacl/lib/../lib32/libcrt_common.a(lib_a-strcasecmp.o)
                              /home/jfb/nacl_sdk/pepper_42/toolchain/linux_x86_newlib/bin/../lib/gcc/x86_64-nacl/4.4.3/../../../../x86_64-nacl/lib/../lib32/libcrt_common.a(lib_a-locale.o) (strcasecmp)
/home/jfb/nacl_sdk/pepper_42/toolchain/linux_x86_newlib/bin/../lib/gcc/x86_64-nacl/4.4.3/../../../../x86_64-nacl/lib/../lib32/libcrt_common.a(lib_a-strcat.o)
                              /home/jfb/nacl_sdk/pepper_42/toolchain/linux_x86_newlib/bin/../lib/gcc/x86_64-nacl/4.4.3/../../../../x86_64-nacl/lib/../lib32/libcrt_common.a(lib_a-locale.o) (strcat)
/home/jfb/nacl_sdk/pepper_42/toolchain/linux_x86_newlib/bin/../lib/gcc/x86_64-nacl/4.4.3/../../../../x86_64-nacl/lib/../lib32/libcrt_common.a(lib_a-strchr.o)
                              /home/jfb/nacl_sdk/pepper_42/toolchain/linux_x86_newlib/bin/../lib/gcc/x86_64-nacl/4.4.3/../../../../x86_64-nacl/lib/../lib32/libcrt_common.a(lib_a-locale.o) (strchr)
/home/jfb/nacl_sdk/pepper_42/toolchain/linux_x86_newlib/bin/../lib/gcc/x86_64-nacl/4.4.3/../../../../x86_64-nacl/lib/../lib32/libcrt_common.a(lib_a-strcmp.o)
                              /home/jfb/nacl_sdk/pepper_42/toolchain/linux_x86_newlib/bin/../lib/gcc/x86_64-nacl/4.4.3/../../../../x86_64-nacl/lib/../lib32/libcrt_common.a(lib_a-locale.o) (strcmp)
/home/jfb/nacl_sdk/pepper_42/toolchain/linux_x86_newlib/bin/../lib/gcc/x86_64-nacl/4.4.3/../../../../x86_64-nacl/lib/../lib32/libcrt_common.a(lib_a-strlcpy.o)
                              /home/jfb/nacl_sdk/pepper_42/toolchain/linux_x86_newlib/bin/../lib/gcc/x86_64-nacl/4.4.3/../../../../x86_64-nacl/lib/../lib32/libcrt_common.a(lib_a-locale.o) (strlcpy)
/home/jfb/nacl_sdk/pepper_42/toolchain/linux_x86_newlib/bin/../lib/gcc/x86_64-nacl/4.4.3/../../../../x86_64-nacl/lib/../lib32/libcrt_common.a(lib_a-strncasecmp.o)
                              /home/jfb/nacl_sdk/pepper_42/toolchain/linux_x86_newlib/bin/../lib/gcc/x86_64-nacl/4.4.3/../../../../x86_64-nacl/lib/../lib32/libcrt_common.a(lib_a-locale.o) (strncasecmp)
/home/jfb/nacl_sdk/pepper_42/toolchain/linux_x86_newlib/bin/../lib/gcc/x86_64-nacl/4.4.3/../../../../x86_64-nacl/lib/../lib32/libcrt_common.a(lib_a-strncpy.o)
                              /home/jfb/nacl_sdk/pepper_42/toolchain/linux_x86_newlib/bin/../lib/gcc/x86_64-nacl/4.4.3/../../../../x86_64-nacl/lib/../lib32/libcrt_common.a(lib_a-svfprintf.o) (strncpy)
/home/jfb/nacl_sdk/pepper_42/toolchain/linux_x86_newlib/bin/../lib/gcc/x86_64-nacl/4.4.3/../../../../x86_64-nacl/lib/../lib32/libcrt_common.a(lib_a-strtol.o)
                              /home/jfb/nacl_sdk/pepper_42/toolchain/linux_x86_newlib/bin/../lib/gcc/x86_64-nacl/4.4.3/../../../../x86_64-nacl/lib/../lib32/libcrt_common.a(lib_a-locale.o) (_strtol_r)
/home/jfb/nacl_sdk/pepper_42/toolchain/linux_x86_newlib/bin/../lib/gcc/x86_64-nacl/4.4.3/../../../../x86_64-nacl/lib/../lib32/libcrt_common.a(lib_a-svfiprintf.o)
                              /home/jfb/nacl_sdk/pepper_42/toolchain/linux_x86_newlib/bin/../lib/gcc/x86_64-nacl/4.4.3/../../../../x86_64-nacl/lib/../lib32/libcrt_common.a(lib_a-svfprintf.o) (__ssprint_r)
/home/jfb/nacl_sdk/pepper_42/toolchain/linux_x86_newlib/bin/../lib/gcc/x86_64-nacl/4.4.3/../../../../x86_64-nacl/lib/../lib32/libcrt_common.a(lib_a-vfiprintf.o)
                              /home/jfb/nacl_sdk/pepper_42/toolchain/linux_x86_newlib/bin/../lib/gcc/x86_64-nacl/4.4.3/../../../../x86_64-nacl/lib/../lib32/libcrt_common.a(lib_a-vfprintf.o) (__sprint_r)
/home/jfb/nacl_sdk/pepper_42/toolchain/linux_x86_newlib/bin/../lib/gcc/x86_64-nacl/4.4.3/../../../../x86_64-nacl/lib/../lib32/libcrt_common.a(lib_a-wcsnrtombs.o)
                              /home/jfb/nacl_sdk/pepper_42/toolchain/linux_x86_newlib/bin/../lib/gcc/x86_64-nacl/4.4.3/../../../../x86_64-nacl/lib/../lib32/libcrt_common.a(lib_a-wcsrtombs.o) (_wcsnrtombs_r)
/home/jfb/nacl_sdk/pepper_42/toolchain/linux_x86_newlib/bin/../lib/gcc/x86_64-nacl/4.4.3/../../../../x86_64-nacl/lib/../lib32/libcrt_common.a(lib_a-ctype_.o)
                              /home/jfb/nacl_sdk/pepper_42/toolchain/linux_x86_newlib/bin/../lib/gcc/x86_64-nacl/4.4.3/../../../../x86_64-nacl/lib/../lib32/libcrt_common.a(lib_a-locale.o) (__set_ctype)
/home/jfb/nacl_sdk/pepper_42/toolchain/linux_x86_newlib/bin/../lib/gcc/x86_64-nacl/4.4.3/../../../../x86_64-nacl/lib/../lib32/libcrt_common.a(lib_a-fclose.o)
                              /home/jfb/nacl_sdk/pepper_42/toolchain/linux_x86_newlib/bin/../lib/gcc/x86_64-nacl/4.4.3/../../../../x86_64-nacl/lib/../lib32/libcrt_common.a(lib_a-findfp.o) (_fclose_r)
/home/jfb/nacl_sdk/pepper_42/toolchain/linux_x86_newlib/bin/../lib/gcc/x86_64-nacl/4.4.3/../../../../x86_64-nacl/lib/../lib32/libcrt_common.a(lib_a-fputwc.o)
                              /home/jfb/nacl_sdk/pepper_42/toolchain/linux_x86_newlib/bin/../lib/gcc/x86_64-nacl/4.4.3/../../../../x86_64-nacl/lib/../lib32/libcrt_common.a(lib_a-vfiprintf.o) (_fputwc_r)
/home/jfb/nacl_sdk/pepper_42/toolchain/linux_x86_newlib/bin/../lib/gcc/x86_64-nacl/4.4.3/../../../../x86_64-nacl/lib/../lib32/libnacl.a(close_e9b92fbd.o)
                              /home/jfb/nacl_sdk/pepper_42/toolchain/linux_x86_newlib/bin/../lib/gcc/x86_64-nacl/4.4.3/../../../../x86_64-nacl/lib/../lib32/libcrt_common.a(lib_a-stdio.o) (close)
/home/jfb/nacl_sdk/pepper_42/toolchain/linux_x86_newlib/bin/../lib/gcc/x86_64-nacl/4.4.3/../../../../x86_64-nacl/lib/../lib32/libnacl.a(isatty_02f56e94.o)
                              /home/jfb/nacl_sdk/pepper_42/toolchain/linux_x86_newlib/bin/../lib/gcc/x86_64-nacl/4.4.3/../../../../x86_64-nacl/lib/../lib32/libcrt_common.a(lib_a-makebuf.o) (isatty)
/home/jfb/nacl_sdk/pepper_42/toolchain/linux_x86_newlib/bin/../lib/gcc/x86_64-nacl/4.4.3/../../../../x86_64-nacl/lib/../lib32/libnacl.a(nacl_irt_fdio_b571b5e7.o)
                              /home/jfb/nacl_sdk/pepper_42/toolchain/linux_x86_newlib/bin/../lib/gcc/x86_64-nacl/4.4.3/../../../../x86_64-nacl/lib/../lib32/libnacl.a(isatty_02f56e94.o) (__libnacl_irt_dev_fdio_init)
/home/jfb/nacl_sdk/pepper_42/toolchain/linux_x86_newlib/bin/../lib/gcc/x86_64-nacl/4.4.3/../../../../x86_64-nacl/lib/../lib32/libnacl.a(fstat_0540ff63.o)
                              /home/jfb/nacl_sdk/pepper_42/toolchain/linux_x86_newlib/bin/../lib/gcc/x86_64-nacl/4.4.3/../../../../x86_64-nacl/lib/../lib32/libcrt_common.a(lib_a-makebuf.o) (fstat)
/home/jfb/nacl_sdk/pepper_42/toolchain/linux_x86_newlib/bin/../lib/gcc/x86_64-nacl/4.4.3/../../../../x86_64-nacl/lib/../lib32/libnacl.a(lseek_64d2d05c.o)
                              /home/jfb/nacl_sdk/pepper_42/toolchain/linux_x86_newlib/bin/../lib/gcc/x86_64-nacl/4.4.3/../../../../x86_64-nacl/lib/../lib32/libcrt_common.a(lib_a-stdio.o) (lseek)
/home/jfb/nacl_sdk/pepper_42/toolchain/linux_x86_newlib/bin/../lib/gcc/x86_64-nacl/4.4.3/../../../../x86_64-nacl/lib/../lib32/libnacl.a(read_df872e10.o)
                              /home/jfb/nacl_sdk/pepper_42/toolchain/linux_x86_newlib/bin/../lib/gcc/x86_64-nacl/4.4.3/../../../../x86_64-nacl/lib/../lib32/libcrt_common.a(lib_a-stdio.o) (read)
/home/jfb/nacl_sdk/pepper_42/toolchain/linux_x86_newlib/bin/../lib/gcc/x86_64-nacl/4.4.3/32/libgcc.a(_udivdi3.o)
                              /home/jfb/nacl_sdk/pepper_42/toolchain/linux_x86_newlib/bin/../lib/gcc/x86_64-nacl/4.4.3/../../../../x86_64-nacl/lib/../lib32/libcrt_common.a(lib_a-svfprintf.o) (__udivdi3)
/home/jfb/nacl_sdk/pepper_42/toolchain/linux_x86_newlib/bin/../lib/gcc/x86_64-nacl/4.4.3/32/libgcc.a(_umoddi3.o)
                              /home/jfb/nacl_sdk/pepper_42/toolchain/linux_x86_newlib/bin/../lib/gcc/x86_64-nacl/4.4.3/../../../../x86_64-nacl/lib/../lib32/libcrt_common.a(lib_a-svfprintf.o) (__umoddi3)

Allocating common symbols
Common symbol       size              file

__nacl_irt_query    0x4               /home/jfb/nacl_sdk/pepper_42/toolchain/linux_x86_newlib/bin/../lib/gcc/x86_64-nacl/4.4.3/../../../../x86_64-nacl/lib/../lib32/libnacl.a(nacl_irt_6de1d53f.o)
__libnacl_irt_dev_filename
                    0x40              /home/jfb/nacl_sdk/pepper_42/toolchain/linux_x86_newlib/bin/../lib/gcc/x86_64-nacl/4.4.3/../../../../x86_64-nacl/lib/../lib32/libnacl.a(nacl_irt_6de1d53f.o)
__nc_thread_initialized
                    0x4               /home/jfb/nacl_sdk/pepper_42/toolchain/linux_x86_newlib/bin/../lib/gcc/x86_64-nacl/4.4.3/../../../../x86_64-nacl/lib/../lib32/libpthread.a(nc_thread_7e478b15.o)
__libnacl_irt_clock
                    0x8               /home/jfb/nacl_sdk/pepper_42/toolchain/linux_x86_newlib/bin/../lib/gcc/x86_64-nacl/4.4.3/../../../../x86_64-nacl/lib/../lib32/libnacl.a(nacl_irt_6de1d53f.o)
__nc_thread_management_lock
                    0x14              /home/jfb/nacl_sdk/pepper_42/toolchain/linux_x86_newlib/bin/../lib/gcc/x86_64-nacl/4.4.3/../../../../x86_64-nacl/lib/../lib32/libpthread.a(nc_thread_7e478b15.o)
__libnacl_irt_futex
                    0x8               /home/jfb/nacl_sdk/pepper_42/toolchain/linux_x86_newlib/bin/../lib/gcc/x86_64-nacl/4.4.3/../../../../x86_64-nacl/lib/../lib32/libpthread.a(nc_init_irt_d3daafc0.o)
__nc_memory_block_counter
                    0x8               /home/jfb/nacl_sdk/pepper_42/toolchain/linux_x86_newlib/bin/../lib/gcc/x86_64-nacl/4.4.3/../../../../x86_64-nacl/lib/../lib32/libpthread.a(nc_thread_7e478b15.o)
__nacl_initial_thread_stack_end
                    0x4               /home/jfb/nacl_sdk/pepper_42/toolchain/linux_x86_newlib/bin/../lib/gcc/x86_64-nacl/4.4.3/../../../../x86_64-nacl/lib/../lib32/libnacl.a(start_fa9ef7de.o)
__libnacl_irt_memory
                    0xc               /home/jfb/nacl_sdk/pepper_42/toolchain/linux_x86_newlib/bin/../lib/gcc/x86_64-nacl/4.4.3/../../../../x86_64-nacl/lib/../lib32/libnacl.a(nacl_irt_6de1d53f.o)
__nc_initial_thread_id
                    0x4               /home/jfb/nacl_sdk/pepper_42/toolchain/linux_x86_newlib/bin/../lib/gcc/x86_64-nacl/4.4.3/../../../../x86_64-nacl/lib/../lib32/libpthread.a(nc_thread_7e478b15.o)
__libnacl_irt_dev_fdio
                    0x38              /home/jfb/nacl_sdk/pepper_42/toolchain/linux_x86_newlib/bin/../lib/gcc/x86_64-nacl/4.4.3/../../../../x86_64-nacl/lib/../lib32/libnacl.a(nacl_irt_6de1d53f.o)
__libnacl_irt_basic
                    0x18              /home/jfb/nacl_sdk/pepper_42/toolchain/linux_x86_newlib/bin/../lib/gcc/x86_64-nacl/4.4.3/../../../../x86_64-nacl/lib/../lib32/libnacl.a(nacl_irt_6de1d53f.o)
__nc_thread_memory_blocks
                    0x10              /home/jfb/nacl_sdk/pepper_42/toolchain/linux_x86_newlib/bin/../lib/gcc/x86_64-nacl/4.4.3/../../../../x86_64-nacl/lib/../lib32/libpthread.a(nc_thread_7e478b15.o)
__libnacl_irt_thread
                    0xc               /home/jfb/nacl_sdk/pepper_42/toolchain/linux_x86_newlib/bin/../lib/gcc/x86_64-nacl/4.4.3/../../../../x86_64-nacl/lib/../lib32/libpthread.a(nc_thread_7e478b15.o)
__libnacl_irt_tls   0x8               /home/jfb/nacl_sdk/pepper_42/toolchain/linux_x86_newlib/bin/../lib/gcc/x86_64-nacl/4.4.3/../../../../x86_64-nacl/lib/../lib32/libnacl.a(nacl_irt_6de1d53f.o)
__libnacl_irt_dev_getpid
                    0x4               /home/jfb/nacl_sdk/pepper_42/toolchain/linux_x86_newlib/bin/../lib/gcc/x86_64-nacl/4.4.3/../../../../x86_64-nacl/lib/../lib32/libnacl.a(nacl_irt_6de1d53f.o)

Discarded input sections

 .note.GNU-stack
                0x0000000000000000        0x0 /home/jfb/nacl_sdk/pepper_42/toolchain/linux_x86_newlib/bin/../lib/gcc/x86_64-nacl/4.4.3/32/crtbegin.o
 .group         0x0000000000000000        0x8 newlib/Release/multi_platform_x86_32.o
 .group         0x0000000000000000        0x8 newlib/Release/multi_platform_x86_32.o
 .group         0x0000000000000000        0x8 newlib/Release/multi_platform_x86_32.o
 .group         0x0000000000000000        0x8 newlib/Release/multi_platform_x86_32.o
 .group         0x0000000000000000        0x8 newlib/Release/multi_platform_x86_32.o
 .group         0x0000000000000000        0x8 newlib/Release/multi_platform_x86_32.o
 .group         0x0000000000000000        0x8 newlib/Release/multi_platform_x86_32.o
 .group         0x0000000000000000        0x8 newlib/Release/multi_platform_x86_32.o
 .group         0x0000000000000000        0x8 newlib/Release/multi_platform_x86_32.o
 .group         0x0000000000000000        0x8 newlib/Release/multi_platform_x86_32.o
 .group         0x0000000000000000        0x8 newlib/Release/multi_platform_x86_32.o
 .group         0x0000000000000000        0x8 newlib/Release/multi_platform_x86_32.o
 .note.GNU-stack
                0x0000000000000000        0x0 newlib/Release/multi_platform_x86_32.o
 .group         0x0000000000000000        0x8 /home/jfb/nacl_sdk/pepper_42//lib/newlib_x86_32/Release/libppapi_cpp.a(instance_x86_32.o)
 .group         0x0000000000000000        0x8 /home/jfb/nacl_sdk/pepper_42//lib/newlib_x86_32/Release/libppapi_cpp.a(instance_x86_32.o)
 .group         0x0000000000000000        0x8 /home/jfb/nacl_sdk/pepper_42//lib/newlib_x86_32/Release/libppapi_cpp.a(instance_x86_32.o)
 .group         0x0000000000000000        0x8 /home/jfb/nacl_sdk/pepper_42//lib/newlib_x86_32/Release/libppapi_cpp.a(instance_x86_32.o)
 .group         0x0000000000000000        0x8 /home/jfb/nacl_sdk/pepper_42//lib/newlib_x86_32/Release/libppapi_cpp.a(instance_x86_32.o)
 .group         0x0000000000000000        0x8 /home/jfb/nacl_sdk/pepper_42//lib/newlib_x86_32/Release/libppapi_cpp.a(instance_x86_32.o)
 .group         0x0000000000000000        0x8 /home/jfb/nacl_sdk/pepper_42//lib/newlib_x86_32/Release/libppapi_cpp.a(instance_x86_32.o)
 .note.GNU-stack
                0x0000000000000000        0x0 /home/jfb/nacl_sdk/pepper_42//lib/newlib_x86_32/Release/libppapi_cpp.a(instance_x86_32.o)
 .group         0x0000000000000000        0x8 /home/jfb/nacl_sdk/pepper_42//lib/newlib_x86_32/Release/libppapi_cpp.a(module_x86_32.o)
 .group         0x0000000000000000        0x8 /home/jfb/nacl_sdk/pepper_42//lib/newlib_x86_32/Release/libppapi_cpp.a(module_x86_32.o)
 .group         0x0000000000000000        0x8 /home/jfb/nacl_sdk/pepper_42//lib/newlib_x86_32/Release/libppapi_cpp.a(module_x86_32.o)
 .group         0x0000000000000000        0x8 /home/jfb/nacl_sdk/pepper_42//lib/newlib_x86_32/Release/libppapi_cpp.a(module_x86_32.o)
 .group         0x0000000000000000        0x8 /home/jfb/nacl_sdk/pepper_42//lib/newlib_x86_32/Release/libppapi_cpp.a(module_x86_32.o)
 .group         0x0000000000000000        0x8 /home/jfb/nacl_sdk/pepper_42//lib/newlib_x86_32/Release/libppapi_cpp.a(module_x86_32.o)
 .group         0x0000000000000000        0x8 /home/jfb/nacl_sdk/pepper_42//lib/newlib_x86_32/Release/libppapi_cpp.a(module_x86_32.o)
 .group         0x0000000000000000        0x8 /home/jfb/nacl_sdk/pepper_42//lib/newlib_x86_32/Release/libppapi_cpp.a(module_x86_32.o)
 .group         0x0000000000000000        0x8 /home/jfb/nacl_sdk/pepper_42//lib/newlib_x86_32/Release/libppapi_cpp.a(module_x86_32.o)
 .group         0x0000000000000000        0x8 /home/jfb/nacl_sdk/pepper_42//lib/newlib_x86_32/Release/libppapi_cpp.a(module_x86_32.o)
 .group         0x0000000000000000        0x8 /home/jfb/nacl_sdk/pepper_42//lib/newlib_x86_32/Release/libppapi_cpp.a(module_x86_32.o)
 .group         0x0000000000000000        0x8 /home/jfb/nacl_sdk/pepper_42//lib/newlib_x86_32/Release/libppapi_cpp.a(module_x86_32.o)
 .group         0x0000000000000000        0x8 /home/jfb/nacl_sdk/pepper_42//lib/newlib_x86_32/Release/libppapi_cpp.a(module_x86_32.o)
 .group         0x0000000000000000        0x8 /home/jfb/nacl_sdk/pepper_42//lib/newlib_x86_32/Release/libppapi_cpp.a(module_x86_32.o)
 .group         0x0000000000000000        0x8 /home/jfb/nacl_sdk/pepper_42//lib/newlib_x86_32/Release/libppapi_cpp.a(module_x86_32.o)
 .group         0x0000000000000000        0x8 /home/jfb/nacl_sdk/pepper_42//lib/newlib_x86_32/Release/libppapi_cpp.a(module_x86_32.o)
 .group         0x0000000000000000        0x8 /home/jfb/nacl_sdk/pepper_42//lib/newlib_x86_32/Release/libppapi_cpp.a(module_x86_32.o)
 .group         0x0000000000000000        0x8 /home/jfb/nacl_sdk/pepper_42//lib/newlib_x86_32/Release/libppapi_cpp.a(module_x86_32.o)
 .group         0x0000000000000000        0x8 /home/jfb/nacl_sdk/pepper_42//lib/newlib_x86_32/Release/libppapi_cpp.a(module_x86_32.o)
 .group         0x0000000000000000        0x8 /home/jfb/nacl_sdk/pepper_42//lib/newlib_x86_32/Release/libppapi_cpp.a(module_x86_32.o)
 .group         0x0000000000000000        0x8 /home/jfb/nacl_sdk/pepper_42//lib/newlib_x86_32/Release/libppapi_cpp.a(module_x86_32.o)
 .note.GNU-stack
                0x0000000000000000        0x0 /home/jfb/nacl_sdk/pepper_42//lib/newlib_x86_32/Release/libppapi_cpp.a(module_x86_32.o)
 .note.GNU-stack
                0x0000000000000000        0x0 /home/jfb/nacl_sdk/pepper_42//lib/newlib_x86_32/Release/libppapi_cpp.a(ppp_entrypoints_x86_32.o)
 .group         0x0000000000000000        0x8 /home/jfb/nacl_sdk/pepper_42//lib/newlib_x86_32/Release/libppapi_cpp.a(resource_x86_32.o)
 .group         0x0000000000000000        0x8 /home/jfb/nacl_sdk/pepper_42//lib/newlib_x86_32/Release/libppapi_cpp.a(resource_x86_32.o)
 .group         0x0000000000000000        0x8 /home/jfb/nacl_sdk/pepper_42//lib/newlib_x86_32/Release/libppapi_cpp.a(resource_x86_32.o)
 .note.GNU-stack
                0x0000000000000000        0x0 /home/jfb/nacl_sdk/pepper_42//lib/newlib_x86_32/Release/libppapi_cpp.a(resource_x86_32.o)
 .group         0x0000000000000000        0x8 /home/jfb/nacl_sdk/pepper_42//lib/newlib_x86_32/Release/libppapi_cpp.a(url_loader_x86_32.o)
 .group         0x0000000000000000        0x8 /home/jfb/nacl_sdk/pepper_42//lib/newlib_x86_32/Release/libppapi_cpp.a(url_loader_x86_32.o)
 .group         0x0000000000000000        0x8 /home/jfb/nacl_sdk/pepper_42//lib/newlib_x86_32/Release/libppapi_cpp.a(url_loader_x86_32.o)
 .group         0x0000000000000000        0x8 /home/jfb/nacl_sdk/pepper_42//lib/newlib_x86_32/Release/libppapi_cpp.a(url_loader_x86_32.o)
 .group         0x0000000000000000        0x8 /home/jfb/nacl_sdk/pepper_42//lib/newlib_x86_32/Release/libppapi_cpp.a(url_loader_x86_32.o)
 .group         0x0000000000000000        0x8 /home/jfb/nacl_sdk/pepper_42//lib/newlib_x86_32/Release/libppapi_cpp.a(url_loader_x86_32.o)
 .group         0x0000000000000000        0x8 /home/jfb/nacl_sdk/pepper_42//lib/newlib_x86_32/Release/libppapi_cpp.a(url_loader_x86_32.o)
 .group         0x0000000000000000        0x8 /home/jfb/nacl_sdk/pepper_42//lib/newlib_x86_32/Release/libppapi_cpp.a(url_loader_x86_32.o)
 .group         0x0000000000000000        0x8 /home/jfb/nacl_sdk/pepper_42//lib/newlib_x86_32/Release/libppapi_cpp.a(url_loader_x86_32.o)
 .group         0x0000000000000000        0x8 /home/jfb/nacl_sdk/pepper_42//lib/newlib_x86_32/Release/libppapi_cpp.a(url_loader_x86_32.o)
 .text._ZN2pp9URLLoaderD1Ev
                0x0000000000000000       0x20 /home/jfb/nacl_sdk/pepper_42//lib/newlib_x86_32/Release/libppapi_cpp.a(url_loader_x86_32.o)
 .text._ZN2pp9URLLoaderD0Ev
                0x0000000000000000       0x40 /home/jfb/nacl_sdk/pepper_42//lib/newlib_x86_32/Release/libppapi_cpp.a(url_loader_x86_32.o)
 .rodata._ZTVN2pp9URLLoaderE
                0x0000000000000000       0x10 /home/jfb/nacl_sdk/pepper_42//lib/newlib_x86_32/Release/libppapi_cpp.a(url_loader_x86_32.o)
 .rodata._ZTIN2pp9URLLoaderE
                0x0000000000000000        0xc /home/jfb/nacl_sdk/pepper_42//lib/newlib_x86_32/Release/libppapi_cpp.a(url_loader_x86_32.o)
 .rodata._ZTSN2pp9URLLoaderE
                0x0000000000000000       0x10 /home/jfb/nacl_sdk/pepper_42//lib/newlib_x86_32/Release/libppapi_cpp.a(url_loader_x86_32.o)
 .note.GNU-stack
                0x0000000000000000        0x0 /home/jfb/nacl_sdk/pepper_42//lib/newlib_x86_32/Release/libppapi_cpp.a(url_loader_x86_32.o)
 .group         0x0000000000000000        0x8 /home/jfb/nacl_sdk/pepper_42//lib/newlib_x86_32/Release/libppapi_cpp.a(url_response_info_x86_32.o)
 .group         0x0000000000000000        0x8 /home/jfb/nacl_sdk/pepper_42//lib/newlib_x86_32/Release/libppapi_cpp.a(url_response_info_x86_32.o)
 .group         0x0000000000000000        0x8 /home/jfb/nacl_sdk/pepper_42//lib/newlib_x86_32/Release/libppapi_cpp.a(url_response_info_x86_32.o)
 .group         0x0000000000000000        0x8 /home/jfb/nacl_sdk/pepper_42//lib/newlib_x86_32/Release/libppapi_cpp.a(url_response_info_x86_32.o)
 .group         0x0000000000000000        0x8 /home/jfb/nacl_sdk/pepper_42//lib/newlib_x86_32/Release/libppapi_cpp.a(url_response_info_x86_32.o)
 .group         0x0000000000000000        0x8 /home/jfb/nacl_sdk/pepper_42//lib/newlib_x86_32/Release/libppapi_cpp.a(url_response_info_x86_32.o)
 .group         0x0000000000000000        0x8 /home/jfb/nacl_sdk/pepper_42//lib/newlib_x86_32/Release/libppapi_cpp.a(url_response_info_x86_32.o)
 .group         0x0000000000000000        0x8 /home/jfb/nacl_sdk/pepper_42//lib/newlib_x86_32/Release/libppapi_cpp.a(url_response_info_x86_32.o)
 .group         0x0000000000000000        0x8 /home/jfb/nacl_sdk/pepper_42//lib/newlib_x86_32/Release/libppapi_cpp.a(url_response_info_x86_32.o)
 .group         0x0000000000000000        0x8 /home/jfb/nacl_sdk/pepper_42//lib/newlib_x86_32/Release/libppapi_cpp.a(url_response_info_x86_32.o)
 .text._ZN2pp15URLResponseInfoD1Ev
                0x0000000000000000       0x20 /home/jfb/nacl_sdk/pepper_42//lib/newlib_x86_32/Release/libppapi_cpp.a(url_response_info_x86_32.o)
 .text._ZN2pp15URLResponseInfoD0Ev
                0x0000000000000000       0x40 /home/jfb/nacl_sdk/pepper_42//lib/newlib_x86_32/Release/libppapi_cpp.a(url_response_info_x86_32.o)
 .rodata._ZTVN2pp15URLResponseInfoE
                0x0000000000000000       0x10 /home/jfb/nacl_sdk/pepper_42//lib/newlib_x86_32/Release/libppapi_cpp.a(url_response_info_x86_32.o)
 .rodata._ZTIN2pp15URLResponseInfoE
                0x0000000000000000        0xc /home/jfb/nacl_sdk/pepper_42//lib/newlib_x86_32/Release/libppapi_cpp.a(url_response_info_x86_32.o)
 .rodata._ZTSN2pp15URLResponseInfoE
                0x0000000000000000       0x17 /home/jfb/nacl_sdk/pepper_42//lib/newlib_x86_32/Release/libppapi_cpp.a(url_response_info_x86_32.o)
 .note.GNU-stack
                0x0000000000000000        0x0 /home/jfb/nacl_sdk/pepper_42//lib/newlib_x86_32/Release/libppapi_cpp.a(url_response_info_x86_32.o)
 .group         0x0000000000000000        0x8 /home/jfb/nacl_sdk/pepper_42//lib/newlib_x86_32/Release/libppapi_cpp.a(var_x86_32.o)
 .group         0x0000000000000000        0x8 /home/jfb/nacl_sdk/pepper_42//lib/newlib_x86_32/Release/libppapi_cpp.a(var_x86_32.o)
 .group         0x0000000000000000        0x8 /home/jfb/nacl_sdk/pepper_42//lib/newlib_x86_32/Release/libppapi_cpp.a(var_x86_32.o)
 .note.GNU-stack
                0x0000000000000000        0x0 /home/jfb/nacl_sdk/pepper_42//lib/newlib_x86_32/Release/libppapi_cpp.a(var_x86_32.o)
 .group         0x0000000000000000        0x8 /home/jfb/nacl_sdk/pepper_42//lib/newlib_x86_32/Release/libppapi_cpp.a(view_x86_32.o)
 .group         0x0000000000000000        0x8 /home/jfb/nacl_sdk/pepper_42//lib/newlib_x86_32/Release/libppapi_cpp.a(view_x86_32.o)
 .group         0x0000000000000000        0x8 /home/jfb/nacl_sdk/pepper_42//lib/newlib_x86_32/Release/libppapi_cpp.a(view_x86_32.o)
 .group         0x0000000000000000        0x8 /home/jfb/nacl_sdk/pepper_42//lib/newlib_x86_32/Release/libppapi_cpp.a(view_x86_32.o)
 .group         0x0000000000000000        0x8 /home/jfb/nacl_sdk/pepper_42//lib/newlib_x86_32/Release/libppapi_cpp.a(view_x86_32.o)
 .text._ZN2pp4ViewD1Ev
                0x0000000000000000       0x20 /home/jfb/nacl_sdk/pepper_42//lib/newlib_x86_32/Release/libppapi_cpp.a(view_x86_32.o)
 .text._ZN2pp4ViewD0Ev
                0x0000000000000000       0x40 /home/jfb/nacl_sdk/pepper_42//lib/newlib_x86_32/Release/libppapi_cpp.a(view_x86_32.o)
 .rodata._ZTVN2pp4ViewE
                0x0000000000000000       0x10 /home/jfb/nacl_sdk/pepper_42//lib/newlib_x86_32/Release/libppapi_cpp.a(view_x86_32.o)
 .rodata._ZTIN2pp4ViewE
                0x0000000000000000        0xc /home/jfb/nacl_sdk/pepper_42//lib/newlib_x86_32/Release/libppapi_cpp.a(view_x86_32.o)
 .rodata._ZTSN2pp4ViewE
                0x0000000000000000        0xb /home/jfb/nacl_sdk/pepper_42//lib/newlib_x86_32/Release/libppapi_cpp.a(view_x86_32.o)
 .note.GNU-stack
                0x0000000000000000        0x0 /home/jfb/nacl_sdk/pepper_42//lib/newlib_x86_32/Release/libppapi_cpp.a(view_x86_32.o)
 .note.GNU-stack
                0x0000000000000000        0x0 /home/jfb/nacl_sdk/pepper_42//lib/newlib_x86_32/Release/libppapi_cpp.a(core_x86_32.o)
 .group         0x0000000000000000        0x8 /home/jfb/nacl_sdk/pepper_42//lib/newlib_x86_32/Release/libppapi_cpp.a(file_ref_x86_32.o)
 .group         0x0000000000000000        0x8 /home/jfb/nacl_sdk/pepper_42//lib/newlib_x86_32/Release/libppapi_cpp.a(file_ref_x86_32.o)
 .group         0x0000000000000000        0x8 /home/jfb/nacl_sdk/pepper_42//lib/newlib_x86_32/Release/libppapi_cpp.a(file_ref_x86_32.o)
 .group         0x0000000000000000        0x8 /home/jfb/nacl_sdk/pepper_42//lib/newlib_x86_32/Release/libppapi_cpp.a(file_ref_x86_32.o)
 .group         0x0000000000000000        0x8 /home/jfb/nacl_sdk/pepper_42//lib/newlib_x86_32/Release/libppapi_cpp.a(file_ref_x86_32.o)
 .group         0x0000000000000000        0x8 /home/jfb/nacl_sdk/pepper_42//lib/newlib_x86_32/Release/libppapi_cpp.a(file_ref_x86_32.o)
 .text._ZN2pp7FileRefD1Ev
                0x0000000000000000       0x20 /home/jfb/nacl_sdk/pepper_42//lib/newlib_x86_32/Release/libppapi_cpp.a(file_ref_x86_32.o)
 .text._ZN2pp7FileRefD0Ev
                0x0000000000000000       0x40 /home/jfb/nacl_sdk/pepper_42//lib/newlib_x86_32/Release/libppapi_cpp.a(file_ref_x86_32.o)
 .rodata._ZTVN2pp7FileRefE
                0x0000000000000000       0x10 /home/jfb/nacl_sdk/pepper_42//lib/newlib_x86_32/Release/libppapi_cpp.a(file_ref_x86_32.o)
 .rodata._ZTIN2pp7FileRefE
                0x0000000000000000        0xc /home/jfb/nacl_sdk/pepper_42//lib/newlib_x86_32/Release/libppapi_cpp.a(file_ref_x86_32.o)
 .rodata._ZTSN2pp7FileRefE
                0x0000000000000000        0xe /home/jfb/nacl_sdk/pepper_42//lib/newlib_x86_32/Release/libppapi_cpp.a(file_ref_x86_32.o)
 .note.GNU-stack
                0x0000000000000000        0x0 /home/jfb/nacl_sdk/pepper_42//lib/newlib_x86_32/Release/libppapi_cpp.a(file_ref_x86_32.o)
 .group         0x0000000000000000        0x8 /home/jfb/nacl_sdk/pepper_42//lib/newlib_x86_32/Release/libppapi_cpp.a(input_event_x86_32.o)
 .group         0x0000000000000000        0x8 /home/jfb/nacl_sdk/pepper_42//lib/newlib_x86_32/Release/libppapi_cpp.a(input_event_x86_32.o)
 .group         0x0000000000000000        0x8 /home/jfb/nacl_sdk/pepper_42//lib/newlib_x86_32/Release/libppapi_cpp.a(input_event_x86_32.o)
 .group         0x0000000000000000        0x8 /home/jfb/nacl_sdk/pepper_42//lib/newlib_x86_32/Release/libppapi_cpp.a(input_event_x86_32.o)
 .group         0x0000000000000000        0x8 /home/jfb/nacl_sdk/pepper_42//lib/newlib_x86_32/Release/libppapi_cpp.a(input_event_x86_32.o)
 .group         0x0000000000000000        0x8 /home/jfb/nacl_sdk/pepper_42//lib/newlib_x86_32/Release/libppapi_cpp.a(input_event_x86_32.o)
 .group         0x0000000000000000        0x8 /home/jfb/nacl_sdk/pepper_42//lib/newlib_x86_32/Release/libppapi_cpp.a(input_event_x86_32.o)
 .group         0x0000000000000000        0x8 /home/jfb/nacl_sdk/pepper_42//lib/newlib_x86_32/Release/libppapi_cpp.a(input_event_x86_32.o)
 .group         0x0000000000000000        0x8 /home/jfb/nacl_sdk/pepper_42//lib/newlib_x86_32/Release/libppapi_cpp.a(input_event_x86_32.o)
 .group         0x0000000000000000        0x8 /home/jfb/nacl_sdk/pepper_42//lib/newlib_x86_32/Release/libppapi_cpp.a(input_event_x86_32.o)
 .group         0x0000000000000000        0x8 /home/jfb/nacl_sdk/pepper_42//lib/newlib_x86_32/Release/libppapi_cpp.a(input_event_x86_32.o)
 .group         0x0000000000000000        0x8 /home/jfb/nacl_sdk/pepper_42//lib/newlib_x86_32/Release/libppapi_cpp.a(input_event_x86_32.o)
 .group         0x0000000000000000        0x8 /home/jfb/nacl_sdk/pepper_42//lib/newlib_x86_32/Release/libppapi_cpp.a(input_event_x86_32.o)
 .group         0x0000000000000000        0x8 /home/jfb/nacl_sdk/pepper_42//lib/newlib_x86_32/Release/libppapi_cpp.a(input_event_x86_32.o)
 .group         0x0000000000000000        0x8 /home/jfb/nacl_sdk/pepper_42//lib/newlib_x86_32/Release/libppapi_cpp.a(input_event_x86_32.o)
 .group         0x0000000000000000        0x8 /home/jfb/nacl_sdk/pepper_42//lib/newlib_x86_32/Release/libppapi_cpp.a(input_event_x86_32.o)
 .group         0x0000000000000000        0x8 /home/jfb/nacl_sdk/pepper_42//lib/newlib_x86_32/Release/libppapi_cpp.a(input_event_x86_32.o)
 .group         0x0000000000000000        0x8 /home/jfb/nacl_sdk/pepper_42//lib/newlib_x86_32/Release/libppapi_cpp.a(input_event_x86_32.o)
 .group         0x0000000000000000        0x8 /home/jfb/nacl_sdk/pepper_42//lib/newlib_x86_32/Release/libppapi_cpp.a(input_event_x86_32.o)
 .group         0x0000000000000000        0x8 /home/jfb/nacl_sdk/pepper_42//lib/newlib_x86_32/Release/libppapi_cpp.a(input_event_x86_32.o)
 .group         0x0000000000000000        0x8 /home/jfb/nacl_sdk/pepper_42//lib/newlib_x86_32/Release/libppapi_cpp.a(input_event_x86_32.o)
 .group         0x0000000000000000        0x8 /home/jfb/nacl_sdk/pepper_42//lib/newlib_x86_32/Release/libppapi_cpp.a(input_event_x86_32.o)
 .group         0x0000000000000000        0x8 /home/jfb/nacl_sdk/pepper_42//lib/newlib_x86_32/Release/libppapi_cpp.a(input_event_x86_32.o)
 .group         0x0000000000000000        0x8 /home/jfb/nacl_sdk/pepper_42//lib/newlib_x86_32/Release/libppapi_cpp.a(input_event_x86_32.o)
 .group         0x0000000000000000        0x8 /home/jfb/nacl_sdk/pepper_42//lib/newlib_x86_32/Release/libppapi_cpp.a(input_event_x86_32.o)
 .group         0x0000000000000000        0x8 /home/jfb/nacl_sdk/pepper_42//lib/newlib_x86_32/Release/libppapi_cpp.a(input_event_x86_32.o)
 .group         0x0000000000000000        0x8 /home/jfb/nacl_sdk/pepper_42//lib/newlib_x86_32/Release/libppapi_cpp.a(input_event_x86_32.o)
 .group         0x0000000000000000        0x8 /home/jfb/nacl_sdk/pepper_42//lib/newlib_x86_32/Release/libppapi_cpp.a(input_event_x86_32.o)
 .note.GNU-stack
                0x0000000000000000        0x0 /home/jfb/nacl_sdk/pepper_42//lib/newlib_x86_32/Release/libppapi_cpp.a(input_event_x86_32.o)
 .note.GNU-stack
                0x0000000000000000        0x0 /home/jfb/nacl_sdk/pepper_42/toolchain/linux_x86_newlib/bin/../lib/gcc/x86_64-nacl/4.4.3/../../../../x86_64-nacl/lib/../lib32/libppapi_stub.a(plugin_main_irt_21ce9d26.o)
 .note.GNU-stack
                0x0000000000000000        0x0 /home/jfb/nacl_sdk/pepper_42/toolchain/linux_x86_newlib/bin/../lib/gcc/x86_64-nacl/4.4.3/../../../../x86_64-nacl/lib/../lib32/libppapi_stub.a(ppapi_plugin_main_399d0cf7.o)
 .note.GNU-stack
                0x0000000000000000        0x0 /home/jfb/nacl_sdk/pepper_42/toolchain/linux_x86_newlib/bin/../lib/gcc/x86_64-nacl/4.4.3/../../../../x86_64-nacl/lib/../lib32/libppapi_stub.a(ppapi_plugin_start_8da67623.o)
 .note.GNU-stack
                0x0000000000000000        0x0 /home/jfb/nacl_sdk/pepper_42/toolchain/linux_x86_newlib/bin/../lib/gcc/x86_64-nacl/4.4.3/../../../../x86_64-nacl/lib/../lib32/libppapi_stub.a(thread_creator_ccf263e1.o)
 .note.GNU-stack
                0x0000000000000000        0x0 /home/jfb/nacl_sdk/pepper_42/toolchain/linux_x86_newlib/bin/../lib/gcc/x86_64-nacl/4.4.3/../../../../x86_64-nacl/lib/../lib32/libpthread.a(nc_thread_7e478b15.o)
 .note.GNU-stack
                0x0000000000000000        0x0 /home/jfb/nacl_sdk/pepper_42/toolchain/linux_x86_newlib/bin/../lib/gcc/x86_64-nacl/4.4.3/../../../../x86_64-nacl/lib/../lib32/libpthread.a(nc_condvar_305aa45a.o)
 .note.GNU-stack
                0x0000000000000000        0x0 /home/jfb/nacl_sdk/pepper_42/toolchain/linux_x86_newlib/bin/../lib/gcc/x86_64-nacl/4.4.3/../../../../x86_64-nacl/lib/../lib32/libpthread.a(dynamic_annotations_33ba59cc.o)
 .note.GNU-stack
                0x0000000000000000        0x0 /home/jfb/nacl_sdk/pepper_42/toolchain/linux_x86_newlib/bin/../lib/gcc/x86_64-nacl/4.4.3/../../../../x86_64-nacl/lib/../lib32/libpthread.a(nc_mutex_86341ae1.o)
 .note.GNU-stack
                0x0000000000000000        0x0 /home/jfb/nacl_sdk/pepper_42/toolchain/linux_x86_newlib/bin/../lib/gcc/x86_64-nacl/4.4.3/../../../../x86_64-nacl/lib/../lib32/libpthread.a(nc_init_irt_d3daafc0.o)
 .note.GNU-stack
                0x0000000000000000        0x0 /home/jfb/nacl_sdk/pepper_42/toolchain/linux_x86_newlib/bin/../lib/gcc/x86_64-nacl/4.4.3/../../../../x86_64-nacl/lib/../lib32/libstdc++.a(tree.o)
 .group         0x0000000000000000        0x8 /home/jfb/nacl_sdk/pepper_42/toolchain/linux_x86_newlib/bin/../lib/gcc/x86_64-nacl/4.4.3/../../../../x86_64-nacl/lib/../lib32/libstdc++.a(string-inst.o)
 .group         0x0000000000000000        0x8 /home/jfb/nacl_sdk/pepper_42/toolchain/linux_x86_newlib/bin/../lib/gcc/x86_64-nacl/4.4.3/../../../../x86_64-nacl/lib/../lib32/libstdc++.a(string-inst.o)
 .group         0x0000000000000000        0x8 /home/jfb/nacl_sdk/pepper_42/toolchain/linux_x86_newlib/bin/../lib/gcc/x86_64-nacl/4.4.3/../../../../x86_64-nacl/lib/../lib32/libstdc++.a(string-inst.o)
 .group         0x0000000000000000        0x8 /home/jfb/nacl_sdk/pepper_42/toolchain/linux_x86_newlib/bin/../lib/gcc/x86_64-nacl/4.4.3/../../../../x86_64-nacl/lib/../lib32/libstdc++.a(string-inst.o)
 .group         0x0000000000000000        0x8 /home/jfb/nacl_sdk/pepper_42/toolchain/linux_x86_newlib/bin/../lib/gcc/x86_64-nacl/4.4.3/../../../../x86_64-nacl/lib/../lib32/libstdc++.a(string-inst.o)
 .group         0x0000000000000000        0x8 /home/jfb/nacl_sdk/pepper_42/toolchain/linux_x86_newlib/bin/../lib/gcc/x86_64-nacl/4.4.3/../../../../x86_64-nacl/lib/../lib32/libstdc++.a(string-inst.o)
 .group         0x0000000000000000        0x8 /home/jfb/nacl_sdk/pepper_42/toolchain/linux_x86_newlib/bin/../lib/gcc/x86_64-nacl/4.4.3/../../../../x86_64-nacl/lib/../lib32/libstdc++.a(string-inst.o)
 .group         0x0000000000000000        0x8 /home/jfb/nacl_sdk/pepper_42/toolchain/linux_x86_newlib/bin/../lib/gcc/x86_64-nacl/4.4.3/../../../../x86_64-nacl/lib/../lib32/libstdc++.a(string-inst.o)
 .group         0x0000000000000000        0x8 /home/jfb/nacl_sdk/pepper_42/toolchain/linux_x86_newlib/bin/../lib/gcc/x86_64-nacl/4.4.3/../../../../x86_64-nacl/lib/../lib32/libstdc++.a(string-inst.o)
 .group         0x0000000000000000        0x8 /home/jfb/nacl_sdk/pepper_42/toolchain/linux_x86_newlib/bin/../lib/gcc/x86_64-nacl/4.4.3/../../../../x86_64-nacl/lib/../lib32/libstdc++.a(string-inst.o)
 .group         0x0000000000000000        0x8 /home/jfb/nacl_sdk/pepper_42/toolchain/linux_x86_newlib/bin/../lib/gcc/x86_64-nacl/4.4.3/../../../../x86_64-nacl/lib/../lib32/libstdc++.a(string-inst.o)
 .group         0x0000000000000000        0x8 /home/jfb/nacl_sdk/pepper_42/toolchain/linux_x86_newlib/bin/../lib/gcc/x86_64-nacl/4.4.3/../../../../x86_64-nacl/lib/../lib32/libstdc++.a(string-inst.o)
 .group         0x0000000000000000        0x8 /home/jfb/nacl_sdk/pepper_42/toolchain/linux_x86_newlib/bin/../lib/gcc/x86_64-nacl/4.4.3/../../../../x86_64-nacl/lib/../lib32/libstdc++.a(string-inst.o)
 .group         0x0000000000000000        0x8 /home/jfb/nacl_sdk/pepper_42/toolchain/linux_x86_newlib/bin/../lib/gcc/x86_64-nacl/4.4.3/../../../../x86_64-nacl/lib/../lib32/libstdc++.a(string-inst.o)
 .group         0x0000000000000000        0x8 /home/jfb/nacl_sdk/pepper_42/toolchain/linux_x86_newlib/bin/../lib/gcc/x86_64-nacl/4.4.3/../../../../x86_64-nacl/lib/../lib32/libstdc++.a(string-inst.o)
 .group         0x0000000000000000        0x8 /home/jfb/nacl_sdk/pepper_42/toolchain/linux_x86_newlib/bin/../lib/gcc/x86_64-nacl/4.4.3/../../../../x86_64-nacl/lib/../lib32/libstdc++.a(string-inst.o)
 .group         0x0000000000000000        0x8 /home/jfb/nacl_sdk/pepper_42/toolchain/linux_x86_newlib/bin/../lib/gcc/x86_64-nacl/4.4.3/../../../../x86_64-nacl/lib/../lib32/libstdc++.a(string-inst.o)
 .group         0x0000000000000000        0x8 /home/jfb/nacl_sdk/pepper_42/toolchain/linux_x86_newlib/bin/../lib/gcc/x86_64-nacl/4.4.3/../../../../x86_64-nacl/lib/../lib32/libstdc++.a(string-inst.o)
 .group         0x0000000000000000        0x8 /home/jfb/nacl_sdk/pepper_42/toolchain/linux_x86_newlib/bin/../lib/gcc/x86_64-nacl/4.4.3/../../../../x86_64-nacl/lib/../lib32/libstdc++.a(string-inst.o)
 .group         0x0000000000000000        0x8 /home/jfb/nacl_sdk/pepper_42/toolchain/linux_x86_newlib/bin/../lib/gcc/x86_64-nacl/4.4.3/../../../../x86_64-nacl/lib/../lib32/libstdc++.a(string-inst.o)
 .group         0x0000000000000000        0x8 /home/jfb/nacl_sdk/pepper_42/toolchain/linux_x86_newlib/bin/../lib/gcc/x86_64-nacl/4.4.3/../../../../x86_64-nacl/lib/../lib32/libstdc++.a(string-inst.o)
 .group         0x0000000000000000        0x8 /home/jfb/nacl_sdk/pepper_42/toolchain/linux_x86_newlib/bin/../lib/gcc/x86_64-nacl/4.4.3/../../../../x86_64-nacl/lib/../lib32/libstdc++.a(string-inst.o)
 .group         0x0000000000000000        0x8 /home/jfb/nacl_sdk/pepper_42/toolchain/linux_x86_newlib/bin/../lib/gcc/x86_64-nacl/4.4.3/../../../../x86_64-nacl/lib/../lib32/libstdc++.a(string-inst.o)
 .group         0x0000000000000000        0x8 /home/jfb/nacl_sdk/pepper_42/toolchain/linux_x86_newlib/bin/../lib/gcc/x86_64-nacl/4.4.3/../../../../x86_64-nacl/lib/../lib32/libstdc++.a(string-inst.o)
 .group         0x0000000000000000        0x8 /home/jfb/nacl_sdk/pepper_42/toolchain/linux_x86_newlib/bin/../lib/gcc/x86_64-nacl/4.4.3/../../../../x86_64-nacl/lib/../lib32/libstdc++.a(string-inst.o)
 .group         0x0000000000000000        0x8 /home/jfb/nacl_sdk/pepper_42/toolchain/linux_x86_newlib/bin/../lib/gcc/x86_64-nacl/4.4.3/../../../../x86_64-nacl/lib/../lib32/libstdc++.a(string-inst.o)
 .group         0x0000000000000000        0x8 /home/jfb/nacl_sdk/pepper_42/toolchain/linux_x86_newlib/bin/../lib/gcc/x86_64-nacl/4.4.3/../../../../x86_64-nacl/lib/../lib32/libstdc++.a(string-inst.o)
 .group         0x0000000000000000        0x8 /home/jfb/nacl_sdk/pepper_42/toolchain/linux_x86_newlib/bin/../lib/gcc/x86_64-nacl/4.4.3/../../../../x86_64-nacl/lib/../lib32/libstdc++.a(string-inst.o)
 .group         0x0000000000000000        0x8 /home/jfb/nacl_sdk/pepper_42/toolchain/linux_x86_newlib/bin/../lib/gcc/x86_64-nacl/4.4.3/../../../../x86_64-nacl/lib/../lib32/libstdc++.a(string-inst.o)
 .group         0x0000000000000000        0x8 /home/jfb/nacl_sdk/pepper_42/toolchain/linux_x86_newlib/bin/../lib/gcc/x86_64-nacl/4.4.3/../../../../x86_64-nacl/lib/../lib32/libstdc++.a(string-inst.o)
 .group         0x0000000000000000        0x8 /home/jfb/nacl_sdk/pepper_42/toolchain/linux_x86_newlib/bin/../lib/gcc/x86_64-nacl/4.4.3/../../../../x86_64-nacl/lib/../lib32/libstdc++.a(string-inst.o)
 .group         0x0000000000000000        0x8 /home/jfb/nacl_sdk/pepper_42/toolchain/linux_x86_newlib/bin/../lib/gcc/x86_64-nacl/4.4.3/../../../../x86_64-nacl/lib/../lib32/libstdc++.a(string-inst.o)
 .group         0x0000000000000000        0x8 /home/jfb/nacl_sdk/pepper_42/toolchain/linux_x86_newlib/bin/../lib/gcc/x86_64-nacl/4.4.3/../../../../x86_64-nacl/lib/../lib32/libstdc++.a(string-inst.o)
 .group         0x0000000000000000        0x8 /home/jfb/nacl_sdk/pepper_42/toolchain/linux_x86_newlib/bin/../lib/gcc/x86_64-nacl/4.4.3/../../../../x86_64-nacl/lib/../lib32/libstdc++.a(string-inst.o)
 .group         0x0000000000000000        0x8 /home/jfb/nacl_sdk/pepper_42/toolchain/linux_x86_newlib/bin/../lib/gcc/x86_64-nacl/4.4.3/../../../../x86_64-nacl/lib/../lib32/libstdc++.a(string-inst.o)
 .group         0x0000000000000000        0x8 /home/jfb/nacl_sdk/pepper_42/toolchain/linux_x86_newlib/bin/../lib/gcc/x86_64-nacl/4.4.3/../../../../x86_64-nacl/lib/../lib32/libstdc++.a(string-inst.o)
 .group         0x0000000000000000        0x8 /home/jfb/nacl_sdk/pepper_42/toolchain/linux_x86_newlib/bin/../lib/gcc/x86_64-nacl/4.4.3/../../../../x86_64-nacl/lib/../lib32/libstdc++.a(string-inst.o)
 .group         0x0000000000000000        0x8 /home/jfb/nacl_sdk/pepper_42/toolchain/linux_x86_newlib/bin/../lib/gcc/x86_64-nacl/4.4.3/../../../../x86_64-nacl/lib/../lib32/libstdc++.a(string-inst.o)
 .group         0x0000000000000000        0x8 /home/jfb/nacl_sdk/pepper_42/toolchain/linux_x86_newlib/bin/../lib/gcc/x86_64-nacl/4.4.3/../../../../x86_64-nacl/lib/../lib32/libstdc++.a(string-inst.o)
 .group         0x0000000000000000        0x8 /home/jfb/nacl_sdk/pepper_42/toolchain/linux_x86_newlib/bin/../lib/gcc/x86_64-nacl/4.4.3/../../../../x86_64-nacl/lib/../lib32/libstdc++.a(string-inst.o)
 .group         0x0000000000000000        0x8 /home/jfb/nacl_sdk/pepper_42/toolchain/linux_x86_newlib/bin/../lib/gcc/x86_64-nacl/4.4.3/../../../../x86_64-nacl/lib/../lib32/libstdc++.a(string-inst.o)
 .group         0x0000000000000000        0x8 /home/jfb/nacl_sdk/pepper_42/toolchain/linux_x86_newlib/bin/../lib/gcc/x86_64-nacl/4.4.3/../../../../x86_64-nacl/lib/../lib32/libstdc++.a(string-inst.o)
 .group         0x0000000000000000        0x8 /home/jfb/nacl_sdk/pepper_42/toolchain/linux_x86_newlib/bin/../lib/gcc/x86_64-nacl/4.4.3/../../../../x86_64-nacl/lib/../lib32/libstdc++.a(string-inst.o)
 .group         0x0000000000000000        0x8 /home/jfb/nacl_sdk/pepper_42/toolchain/linux_x86_newlib/bin/../lib/gcc/x86_64-nacl/4.4.3/../../../../x86_64-nacl/lib/../lib32/libstdc++.a(string-inst.o)
 .group         0x0000000000000000        0x8 /home/jfb/nacl_sdk/pepper_42/toolchain/linux_x86_newlib/bin/../lib/gcc/x86_64-nacl/4.4.3/../../../../x86_64-nacl/lib/../lib32/libstdc++.a(string-inst.o)
 .group         0x0000000000000000        0x8 /home/jfb/nacl_sdk/pepper_42/toolchain/linux_x86_newlib/bin/../lib/gcc/x86_64-nacl/4.4.3/../../../../x86_64-nacl/lib/../lib32/libstdc++.a(string-inst.o)
 .group         0x0000000000000000        0x8 /home/jfb/nacl_sdk/pepper_42/toolchain/linux_x86_newlib/bin/../lib/gcc/x86_64-nacl/4.4.3/../../../../x86_64-nacl/lib/../lib32/libstdc++.a(string-inst.o)
 .group         0x0000000000000000        0x8 /home/jfb/nacl_sdk/pepper_42/toolchain/linux_x86_newlib/bin/../lib/gcc/x86_64-nacl/4.4.3/../../../../x86_64-nacl/lib/../lib32/libstdc++.a(string-inst.o)
 .group         0x0000000000000000        0x8 /home/jfb/nacl_sdk/pepper_42/toolchain/linux_x86_newlib/bin/../lib/gcc/x86_64-nacl/4.4.3/../../../../x86_64-nacl/lib/../lib32/libstdc++.a(string-inst.o)
 .group         0x0000000000000000        0x8 /home/jfb/nacl_sdk/pepper_42/toolchain/linux_x86_newlib/bin/../lib/gcc/x86_64-nacl/4.4.3/../../../../x86_64-nacl/lib/../lib32/libstdc++.a(string-inst.o)
 .group         0x0000000000000000        0x8 /home/jfb/nacl_sdk/pepper_42/toolchain/linux_x86_newlib/bin/../lib/gcc/x86_64-nacl/4.4.3/../../../../x86_64-nacl/lib/../lib32/libstdc++.a(string-inst.o)
 .group         0x0000000000000000        0x8 /home/jfb/nacl_sdk/pepper_42/toolchain/linux_x86_newlib/bin/../lib/gcc/x86_64-nacl/4.4.3/../../../../x86_64-nacl/lib/../lib32/libstdc++.a(string-inst.o)
 .group         0x0000000000000000        0x8 /home/jfb/nacl_sdk/pepper_42/toolchain/linux_x86_newlib/bin/../lib/gcc/x86_64-nacl/4.4.3/../../../../x86_64-nacl/lib/../lib32/libstdc++.a(string-inst.o)
 .group         0x0000000000000000        0x8 /home/jfb/nacl_sdk/pepper_42/toolchain/linux_x86_newlib/bin/../lib/gcc/x86_64-nacl/4.4.3/../../../../x86_64-nacl/lib/../lib32/libstdc++.a(string-inst.o)
 .group         0x0000000000000000        0x8 /home/jfb/nacl_sdk/pepper_42/toolchain/linux_x86_newlib/bin/../lib/gcc/x86_64-nacl/4.4.3/../../../../x86_64-nacl/lib/../lib32/libstdc++.a(string-inst.o)
 .group         0x0000000000000000        0x8 /home/jfb/nacl_sdk/pepper_42/toolchain/linux_x86_newlib/bin/../lib/gcc/x86_64-nacl/4.4.3/../../../../x86_64-nacl/lib/../lib32/libstdc++.a(string-inst.o)
 .group         0x0000000000000000        0x8 /home/jfb/nacl_sdk/pepper_42/toolchain/linux_x86_newlib/bin/../lib/gcc/x86_64-nacl/4.4.3/../../../../x86_64-nacl/lib/../lib32/libstdc++.a(string-inst.o)
 .group         0x0000000000000000        0x8 /home/jfb/nacl_sdk/pepper_42/toolchain/linux_x86_newlib/bin/../lib/gcc/x86_64-nacl/4.4.3/../../../../x86_64-nacl/lib/../lib32/libstdc++.a(string-inst.o)
 .group         0x0000000000000000        0x8 /home/jfb/nacl_sdk/pepper_42/toolchain/linux_x86_newlib/bin/../lib/gcc/x86_64-nacl/4.4.3/../../../../x86_64-nacl/lib/../lib32/libstdc++.a(string-inst.o)
 .group         0x0000000000000000        0x8 /home/jfb/nacl_sdk/pepper_42/toolchain/linux_x86_newlib/bin/../lib/gcc/x86_64-nacl/4.4.3/../../../../x86_64-nacl/lib/../lib32/libstdc++.a(string-inst.o)
 .group         0x0000000000000000        0x8 /home/jfb/nacl_sdk/pepper_42/toolchain/linux_x86_newlib/bin/../lib/gcc/x86_64-nacl/4.4.3/../../../../x86_64-nacl/lib/../lib32/libstdc++.a(string-inst.o)
 .group         0x0000000000000000        0x8 /home/jfb/nacl_sdk/pepper_42/toolchain/linux_x86_newlib/bin/../lib/gcc/x86_64-nacl/4.4.3/../../../../x86_64-nacl/lib/../lib32/libstdc++.a(string-inst.o)
 .group         0x0000000000000000        0x8 /home/jfb/nacl_sdk/pepper_42/toolchain/linux_x86_newlib/bin/../lib/gcc/x86_64-nacl/4.4.3/../../../../x86_64-nacl/lib/../lib32/libstdc++.a(string-inst.o)
 .group         0x0000000000000000        0x8 /home/jfb/nacl_sdk/pepper_42/toolchain/linux_x86_newlib/bin/../lib/gcc/x86_64-nacl/4.4.3/../../../../x86_64-nacl/lib/../lib32/libstdc++.a(string-inst.o)
 .group         0x0000000000000000        0x8 /home/jfb/nacl_sdk/pepper_42/toolchain/linux_x86_newlib/bin/../lib/gcc/x86_64-nacl/4.4.3/../../../../x86_64-nacl/lib/../lib32/libstdc++.a(string-inst.o)
 .group         0x0000000000000000        0x8 /home/jfb/nacl_sdk/pepper_42/toolchain/linux_x86_newlib/bin/../lib/gcc/x86_64-nacl/4.4.3/../../../../x86_64-nacl/lib/../lib32/libstdc++.a(string-inst.o)
 .group         0x0000000000000000        0x8 /home/jfb/nacl_sdk/pepper_42/toolchain/linux_x86_newlib/bin/../lib/gcc/x86_64-nacl/4.4.3/../../../../x86_64-nacl/lib/../lib32/libstdc++.a(string-inst.o)
 .group         0x0000000000000000        0x8 /home/jfb/nacl_sdk/pepper_42/toolchain/linux_x86_newlib/bin/../lib/gcc/x86_64-nacl/4.4.3/../../../../x86_64-nacl/lib/../lib32/libstdc++.a(string-inst.o)
 .group         0x0000000000000000        0x8 /home/jfb/nacl_sdk/pepper_42/toolchain/linux_x86_newlib/bin/../lib/gcc/x86_64-nacl/4.4.3/../../../../x86_64-nacl/lib/../lib32/libstdc++.a(string-inst.o)
 .group         0x0000000000000000        0x8 /home/jfb/nacl_sdk/pepper_42/toolchain/linux_x86_newlib/bin/../lib/gcc/x86_64-nacl/4.4.3/../../../../x86_64-nacl/lib/../lib32/libstdc++.a(string-inst.o)
 .group         0x0000000000000000        0x8 /home/jfb/nacl_sdk/pepper_42/toolchain/linux_x86_newlib/bin/../lib/gcc/x86_64-nacl/4.4.3/../../../../x86_64-nacl/lib/../lib32/libstdc++.a(string-inst.o)
 .group         0x0000000000000000        0x8 /home/jfb/nacl_sdk/pepper_42/toolchain/linux_x86_newlib/bin/../lib/gcc/x86_64-nacl/4.4.3/../../../../x86_64-nacl/lib/../lib32/libstdc++.a(string-inst.o)
 .group         0x0000000000000000        0x8 /home/jfb/nacl_sdk/pepper_42/toolchain/linux_x86_newlib/bin/../lib/gcc/x86_64-nacl/4.4.3/../../../../x86_64-nacl/lib/../lib32/libstdc++.a(string-inst.o)
 .group         0x0000000000000000        0x8 /home/jfb/nacl_sdk/pepper_42/toolchain/linux_x86_newlib/bin/../lib/gcc/x86_64-nacl/4.4.3/../../../../x86_64-nacl/lib/../lib32/libstdc++.a(string-inst.o)
 .group         0x0000000000000000        0x8 /home/jfb/nacl_sdk/pepper_42/toolchain/linux_x86_newlib/bin/../lib/gcc/x86_64-nacl/4.4.3/../../../../x86_64-nacl/lib/../lib32/libstdc++.a(string-inst.o)
 .group         0x0000000000000000        0x8 /home/jfb/nacl_sdk/pepper_42/toolchain/linux_x86_newlib/bin/../lib/gcc/x86_64-nacl/4.4.3/../../../../x86_64-nacl/lib/../lib32/libstdc++.a(string-inst.o)
 .group         0x0000000000000000        0x8 /home/jfb/nacl_sdk/pepper_42/toolchain/linux_x86_newlib/bin/../lib/gcc/x86_64-nacl/4.4.3/../../../../x86_64-nacl/lib/../lib32/libstdc++.a(string-inst.o)
 .group         0x0000000000000000        0x8 /home/jfb/nacl_sdk/pepper_42/toolchain/linux_x86_newlib/bin/../lib/gcc/x86_64-nacl/4.4.3/../../../../x86_64-nacl/lib/../lib32/libstdc++.a(string-inst.o)
 .group         0x0000000000000000        0x8 /home/jfb/nacl_sdk/pepper_42/toolchain/linux_x86_newlib/bin/../lib/gcc/x86_64-nacl/4.4.3/../../../../x86_64-nacl/lib/../lib32/libstdc++.a(string-inst.o)
 .group         0x0000000000000000        0x8 /home/jfb/nacl_sdk/pepper_42/toolchain/linux_x86_newlib/bin/../lib/gcc/x86_64-nacl/4.4.3/../../../../x86_64-nacl/lib/../lib32/libstdc++.a(string-inst.o)
 .group         0x0000000000000000        0x8 /home/jfb/nacl_sdk/pepper_42/toolchain/linux_x86_newlib/bin/../lib/gcc/x86_64-nacl/4.4.3/../../../../x86_64-nacl/lib/../lib32/libstdc++.a(string-inst.o)
 .group         0x0000000000000000        0x8 /home/jfb/nacl_sdk/pepper_42/toolchain/linux_x86_newlib/bin/../lib/gcc/x86_64-nacl/4.4.3/../../../../x86_64-nacl/lib/../lib32/libstdc++.a(string-inst.o)
 .group         0x0000000000000000        0x8 /home/jfb/nacl_sdk/pepper_42/toolchain/linux_x86_newlib/bin/../lib/gcc/x86_64-nacl/4.4.3/../../../../x86_64-nacl/lib/../lib32/libstdc++.a(string-inst.o)
 .group         0x0000000000000000        0x8 /home/jfb/nacl_sdk/pepper_42/toolchain/linux_x86_newlib/bin/../lib/gcc/x86_64-nacl/4.4.3/../../../../x86_64-nacl/lib/../lib32/libstdc++.a(string-inst.o)
 .group         0x0000000000000000        0x8 /home/jfb/nacl_sdk/pepper_42/toolchain/linux_x86_newlib/bin/../lib/gcc/x86_64-nacl/4.4.3/../../../../x86_64-nacl/lib/../lib32/libstdc++.a(string-inst.o)
 .group         0x0000000000000000        0x8 /home/jfb/nacl_sdk/pepper_42/toolchain/linux_x86_newlib/bin/../lib/gcc/x86_64-nacl/4.4.3/../../../../x86_64-nacl/lib/../lib32/libstdc++.a(string-inst.o)
 .group         0x0000000000000000        0x8 /home/jfb/nacl_sdk/pepper_42/toolchain/linux_x86_newlib/bin/../lib/gcc/x86_64-nacl/4.4.3/../../../../x86_64-nacl/lib/../lib32/libstdc++.a(string-inst.o)
 .group         0x0000000000000000        0x8 /home/jfb/nacl_sdk/pepper_42/toolchain/linux_x86_newlib/bin/../lib/gcc/x86_64-nacl/4.4.3/../../../../x86_64-nacl/lib/../lib32/libstdc++.a(string-inst.o)
 .group         0x0000000000000000        0x8 /home/jfb/nacl_sdk/pepper_42/toolchain/linux_x86_newlib/bin/../lib/gcc/x86_64-nacl/4.4.3/../../../../x86_64-nacl/lib/../lib32/libstdc++.a(string-inst.o)
 .group         0x0000000000000000        0x8 /home/jfb/nacl_sdk/pepper_42/toolchain/linux_x86_newlib/bin/../lib/gcc/x86_64-nacl/4.4.3/../../../../x86_64-nacl/lib/../lib32/libstdc++.a(string-inst.o)
 .group         0x0000000000000000        0x8 /home/jfb/nacl_sdk/pepper_42/toolchain/linux_x86_newlib/bin/../lib/gcc/x86_64-nacl/4.4.3/../../../../x86_64-nacl/lib/../lib32/libstdc++.a(string-inst.o)
 .group         0x0000000000000000        0x8 /home/jfb/nacl_sdk/pepper_42/toolchain/linux_x86_newlib/bin/../lib/gcc/x86_64-nacl/4.4.3/../../../../x86_64-nacl/lib/../lib32/libstdc++.a(string-inst.o)
 .group         0x0000000000000000        0x8 /home/jfb/nacl_sdk/pepper_42/toolchain/linux_x86_newlib/bin/../lib/gcc/x86_64-nacl/4.4.3/../../../../x86_64-nacl/lib/../lib32/libstdc++.a(string-inst.o)
 .group         0x0000000000000000        0x8 /home/jfb/nacl_sdk/pepper_42/toolchain/linux_x86_newlib/bin/../lib/gcc/x86_64-nacl/4.4.3/../../../../x86_64-nacl/lib/../lib32/libstdc++.a(string-inst.o)
 .group         0x0000000000000000        0x8 /home/jfb/nacl_sdk/pepper_42/toolchain/linux_x86_newlib/bin/../lib/gcc/x86_64-nacl/4.4.3/../../../../x86_64-nacl/lib/../lib32/libstdc++.a(string-inst.o)
 .group         0x0000000000000000        0x8 /home/jfb/nacl_sdk/pepper_42/toolchain/linux_x86_newlib/bin/../lib/gcc/x86_64-nacl/4.4.3/../../../../x86_64-nacl/lib/../lib32/libstdc++.a(string-inst.o)
 .group         0x0000000000000000        0x8 /home/jfb/nacl_sdk/pepper_42/toolchain/linux_x86_newlib/bin/../lib/gcc/x86_64-nacl/4.4.3/../../../../x86_64-nacl/lib/../lib32/libstdc++.a(string-inst.o)
 .group         0x0000000000000000        0x8 /home/jfb/nacl_sdk/pepper_42/toolchain/linux_x86_newlib/bin/../lib/gcc/x86_64-nacl/4.4.3/../../../../x86_64-nacl/lib/../lib32/libstdc++.a(string-inst.o)
 .group         0x0000000000000000        0x8 /home/jfb/nacl_sdk/pepper_42/toolchain/linux_x86_newlib/bin/../lib/gcc/x86_64-nacl/4.4.3/../../../../x86_64-nacl/lib/../lib32/libstdc++.a(string-inst.o)
 .group         0x0000000000000000        0x8 /home/jfb/nacl_sdk/pepper_42/toolchain/linux_x86_newlib/bin/../lib/gcc/x86_64-nacl/4.4.3/../../../../x86_64-nacl/lib/../lib32/libstdc++.a(string-inst.o)
 .group         0x0000000000000000        0x8 /home/jfb/nacl_sdk/pepper_42/toolchain/linux_x86_newlib/bin/../lib/gcc/x86_64-nacl/4.4.3/../../../../x86_64-nacl/lib/../lib32/libstdc++.a(string-inst.o)
 .group         0x0000000000000000        0x8 /home/jfb/nacl_sdk/pepper_42/toolchain/linux_x86_newlib/bin/../lib/gcc/x86_64-nacl/4.4.3/../../../../x86_64-nacl/lib/../lib32/libstdc++.a(string-inst.o)
 .group         0x0000000000000000        0x8 /home/jfb/nacl_sdk/pepper_42/toolchain/linux_x86_newlib/bin/../lib/gcc/x86_64-nacl/4.4.3/../../../../x86_64-nacl/lib/../lib32/libstdc++.a(string-inst.o)
 .group         0x0000000000000000        0x8 /home/jfb/nacl_sdk/pepper_42/toolchain/linux_x86_newlib/bin/../lib/gcc/x86_64-nacl/4.4.3/../../../../x86_64-nacl/lib/../lib32/libstdc++.a(string-inst.o)
 .group         0x0000000000000000        0x8 /home/jfb/nacl_sdk/pepper_42/toolchain/linux_x86_newlib/bin/../lib/gcc/x86_64-nacl/4.4.3/../../../../x86_64-nacl/lib/../lib32/libstdc++.a(string-inst.o)
 .group         0x0000000000000000        0x8 /home/jfb/nacl_sdk/pepper_42/toolchain/linux_x86_newlib/bin/../lib/gcc/x86_64-nacl/4.4.3/../../../../x86_64-nacl/lib/../lib32/libstdc++.a(string-inst.o)
 .group         0x0000000000000000        0x8 /home/jfb/nacl_sdk/pepper_42/toolchain/linux_x86_newlib/bin/../lib/gcc/x86_64-nacl/4.4.3/../../../../x86_64-nacl/lib/../lib32/libstdc++.a(string-inst.o)
 .group         0x0000000000000000        0x8 /home/jfb/nacl_sdk/pepper_42/toolchain/linux_x86_newlib/bin/../lib/gcc/x86_64-nacl/4.4.3/../../../../x86_64-nacl/lib/../lib32/libstdc++.a(string-inst.o)
 .group         0x0000000000000000        0x8 /home/jfb/nacl_sdk/pepper_42/toolchain/linux_x86_newlib/bin/../lib/gcc/x86_64-nacl/4.4.3/../../../../x86_64-nacl/lib/../lib32/libstdc++.a(string-inst.o)
 .group         0x0000000000000000        0x8 /home/jfb/nacl_sdk/pepper_42/toolchain/linux_x86_newlib/bin/../lib/gcc/x86_64-nacl/4.4.3/../../../../x86_64-nacl/lib/../lib32/libstdc++.a(string-inst.o)
 .group         0x0000000000000000        0x8 /home/jfb/nacl_sdk/pepper_42/toolchain/linux_x86_newlib/bin/../lib/gcc/x86_64-nacl/4.4.3/../../../../x86_64-nacl/lib/../lib32/libstdc++.a(string-inst.o)
 .group         0x0000000000000000        0x8 /home/jfb/nacl_sdk/pepper_42/toolchain/linux_x86_newlib/bin/../lib/gcc/x86_64-nacl/4.4.3/../../../../x86_64-nacl/lib/../lib32/libstdc++.a(string-inst.o)
 .group         0x0000000000000000        0x8 /home/jfb/nacl_sdk/pepper_42/toolchain/linux_x86_newlib/bin/../lib/gcc/x86_64-nacl/4.4.3/../../../../x86_64-nacl/lib/../lib32/libstdc++.a(string-inst.o)
 .group         0x0000000000000000        0x8 /home/jfb/nacl_sdk/pepper_42/toolchain/linux_x86_newlib/bin/../lib/gcc/x86_64-nacl/4.4.3/../../../../x86_64-nacl/lib/../lib32/libstdc++.a(string-inst.o)
 .group         0x0000000000000000        0x8 /home/jfb/nacl_sdk/pepper_42/toolchain/linux_x86_newlib/bin/../lib/gcc/x86_64-nacl/4.4.3/../../../../x86_64-nacl/lib/../lib32/libstdc++.a(string-inst.o)
 .group         0x0000000000000000        0x8 /home/jfb/nacl_sdk/pepper_42/toolchain/linux_x86_newlib/bin/../lib/gcc/x86_64-nacl/4.4.3/../../../../x86_64-nacl/lib/../lib32/libstdc++.a(string-inst.o)
 .group         0x0000000000000000        0x8 /home/jfb/nacl_sdk/pepper_42/toolchain/linux_x86_newlib/bin/../lib/gcc/x86_64-nacl/4.4.3/../../../../x86_64-nacl/lib/../lib32/libstdc++.a(string-inst.o)
 .group         0x0000000000000000        0x8 /home/jfb/nacl_sdk/pepper_42/toolchain/linux_x86_newlib/bin/../lib/gcc/x86_64-nacl/4.4.3/../../../../x86_64-nacl/lib/../lib32/libstdc++.a(string-inst.o)
 .group         0x0000000000000000        0x8 /home/jfb/nacl_sdk/pepper_42/toolchain/linux_x86_newlib/bin/../lib/gcc/x86_64-nacl/4.4.3/../../../../x86_64-nacl/lib/../lib32/libstdc++.a(string-inst.o)
 .group         0x0000000000000000        0x8 /home/jfb/nacl_sdk/pepper_42/toolchain/linux_x86_newlib/bin/../lib/gcc/x86_64-nacl/4.4.3/../../../../x86_64-nacl/lib/../lib32/libstdc++.a(string-inst.o)
 .group         0x0000000000000000        0x8 /home/jfb/nacl_sdk/pepper_42/toolchain/linux_x86_newlib/bin/../lib/gcc/x86_64-nacl/4.4.3/../../../../x86_64-nacl/lib/../lib32/libstdc++.a(string-inst.o)
 .group         0x0000000000000000        0x8 /home/jfb/nacl_sdk/pepper_42/toolchain/linux_x86_newlib/bin/../lib/gcc/x86_64-nacl/4.4.3/../../../../x86_64-nacl/lib/../lib32/libstdc++.a(string-inst.o)
 .group         0x0000000000000000        0x8 /home/jfb/nacl_sdk/pepper_42/toolchain/linux_x86_newlib/bin/../lib/gcc/x86_64-nacl/4.4.3/../../../../x86_64-nacl/lib/../lib32/libstdc++.a(string-inst.o)
 .group         0x0000000000000000        0x8 /home/jfb/nacl_sdk/pepper_42/toolchain/linux_x86_newlib/bin/../lib/gcc/x86_64-nacl/4.4.3/../../../../x86_64-nacl/lib/../lib32/libstdc++.a(string-inst.o)
 .group         0x0000000000000000        0x8 /home/jfb/nacl_sdk/pepper_42/toolchain/linux_x86_newlib/bin/../lib/gcc/x86_64-nacl/4.4.3/../../../../x86_64-nacl/lib/../lib32/libstdc++.a(string-inst.o)
 .group         0x0000000000000000        0x8 /home/jfb/nacl_sdk/pepper_42/toolchain/linux_x86_newlib/bin/../lib/gcc/x86_64-nacl/4.4.3/../../../../x86_64-nacl/lib/../lib32/libstdc++.a(string-inst.o)
 .group         0x0000000000000000        0x8 /home/jfb/nacl_sdk/pepper_42/toolchain/linux_x86_newlib/bin/../lib/gcc/x86_64-nacl/4.4.3/../../../../x86_64-nacl/lib/../lib32/libstdc++.a(string-inst.o)
 .group         0x0000000000000000        0x8 /home/jfb/nacl_sdk/pepper_42/toolchain/linux_x86_newlib/bin/../lib/gcc/x86_64-nacl/4.4.3/../../../../x86_64-nacl/lib/../lib32/libstdc++.a(string-inst.o)
 .group         0x0000000000000000        0x8 /home/jfb/nacl_sdk/pepper_42/toolchain/linux_x86_newlib/bin/../lib/gcc/x86_64-nacl/4.4.3/../../../../x86_64-nacl/lib/../lib32/libstdc++.a(string-inst.o)
 .group         0x0000000000000000        0x8 /home/jfb/nacl_sdk/pepper_42/toolchain/linux_x86_newlib/bin/../lib/gcc/x86_64-nacl/4.4.3/../../../../x86_64-nacl/lib/../lib32/libstdc++.a(string-inst.o)
 .group         0x0000000000000000        0x8 /home/jfb/nacl_sdk/pepper_42/toolchain/linux_x86_newlib/bin/../lib/gcc/x86_64-nacl/4.4.3/../../../../x86_64-nacl/lib/../lib32/libstdc++.a(string-inst.o)
 .group         0x0000000000000000        0x8 /home/jfb/nacl_sdk/pepper_42/toolchain/linux_x86_newlib/bin/../lib/gcc/x86_64-nacl/4.4.3/../../../../x86_64-nacl/lib/../lib32/libstdc++.a(string-inst.o)
 .group         0x0000000000000000        0x8 /home/jfb/nacl_sdk/pepper_42/toolchain/linux_x86_newlib/bin/../lib/gcc/x86_64-nacl/4.4.3/../../../../x86_64-nacl/lib/../lib32/libstdc++.a(string-inst.o)
 .group         0x0000000000000000        0x8 /home/jfb/nacl_sdk/pepper_42/toolchain/linux_x86_newlib/bin/../lib/gcc/x86_64-nacl/4.4.3/../../../../x86_64-nacl/lib/../lib32/libstdc++.a(string-inst.o)
 .group         0x0000000000000000        0x8 /home/jfb/nacl_sdk/pepper_42/toolchain/linux_x86_newlib/bin/../lib/gcc/x86_64-nacl/4.4.3/../../../../x86_64-nacl/lib/../lib32/libstdc++.a(string-inst.o)
 .group         0x0000000000000000        0x8 /home/jfb/nacl_sdk/pepper_42/toolchain/linux_x86_newlib/bin/../lib/gcc/x86_64-nacl/4.4.3/../../../../x86_64-nacl/lib/../lib32/libstdc++.a(string-inst.o)
 .group         0x0000000000000000        0x8 /home/jfb/nacl_sdk/pepper_42/toolchain/linux_x86_newlib/bin/../lib/gcc/x86_64-nacl/4.4.3/../../../../x86_64-nacl/lib/../lib32/libstdc++.a(string-inst.o)
 .group         0x0000000000000000        0x8 /home/jfb/nacl_sdk/pepper_42/toolchain/linux_x86_newlib/bin/../lib/gcc/x86_64-nacl/4.4.3/../../../../x86_64-nacl/lib/../lib32/libstdc++.a(string-inst.o)
 .group         0x0000000000000000        0x8 /home/jfb/nacl_sdk/pepper_42/toolchain/linux_x86_newlib/bin/../lib/gcc/x86_64-nacl/4.4.3/../../../../x86_64-nacl/lib/../lib32/libstdc++.a(string-inst.o)
 .group         0x0000000000000000        0x8 /home/jfb/nacl_sdk/pepper_42/toolchain/linux_x86_newlib/bin/../lib/gcc/x86_64-nacl/4.4.3/../../../../x86_64-nacl/lib/../lib32/libstdc++.a(string-inst.o)
 .group         0x0000000000000000        0x8 /home/jfb/nacl_sdk/pepper_42/toolchain/linux_x86_newlib/bin/../lib/gcc/x86_64-nacl/4.4.3/../../../../x86_64-nacl/lib/../lib32/libstdc++.a(string-inst.o)
 .group         0x0000000000000000        0x8 /home/jfb/nacl_sdk/pepper_42/toolchain/linux_x86_newlib/bin/../lib/gcc/x86_64-nacl/4.4.3/../../../../x86_64-nacl/lib/../lib32/libstdc++.a(string-inst.o)
 .group         0x0000000000000000        0x8 /home/jfb/nacl_sdk/pepper_42/toolchain/linux_x86_newlib/bin/../lib/gcc/x86_64-nacl/4.4.3/../../../../x86_64-nacl/lib/../lib32/libstdc++.a(string-inst.o)
 .group         0x0000000000000000        0x8 /home/jfb/nacl_sdk/pepper_42/toolchain/linux_x86_newlib/bin/../lib/gcc/x86_64-nacl/4.4.3/../../../../x86_64-nacl/lib/../lib32/libstdc++.a(string-inst.o)
 .group         0x0000000000000000        0x8 /home/jfb/nacl_sdk/pepper_42/toolchain/linux_x86_newlib/bin/../lib/gcc/x86_64-nacl/4.4.3/../../../../x86_64-nacl/lib/../lib32/libstdc++.a(string-inst.o)
 .group         0x0000000000000000        0x8 /home/jfb/nacl_sdk/pepper_42/toolchain/linux_x86_newlib/bin/../lib/gcc/x86_64-nacl/4.4.3/../../../../x86_64-nacl/lib/../lib32/libstdc++.a(string-inst.o)
 .group         0x0000000000000000        0x8 /home/jfb/nacl_sdk/pepper_42/toolchain/linux_x86_newlib/bin/../lib/gcc/x86_64-nacl/4.4.3/../../../../x86_64-nacl/lib/../lib32/libstdc++.a(string-inst.o)
 .group         0x0000000000000000        0x8 /home/jfb/nacl_sdk/pepper_42/toolchain/linux_x86_newlib/bin/../lib/gcc/x86_64-nacl/4.4.3/../../../../x86_64-nacl/lib/../lib32/libstdc++.a(string-inst.o)
 .group         0x0000000000000000        0x8 /home/jfb/nacl_sdk/pepper_42/toolchain/linux_x86_newlib/bin/../lib/gcc/x86_64-nacl/4.4.3/../../../../x86_64-nacl/lib/../lib32/libstdc++.a(string-inst.o)
 .group         0x0000000000000000        0x8 /home/jfb/nacl_sdk/pepper_42/toolchain/linux_x86_newlib/bin/../lib/gcc/x86_64-nacl/4.4.3/../../../../x86_64-nacl/lib/../lib32/libstdc++.a(string-inst.o)
 .group         0x0000000000000000        0x8 /home/jfb/nacl_sdk/pepper_42/toolchain/linux_x86_newlib/bin/../lib/gcc/x86_64-nacl/4.4.3/../../../../x86_64-nacl/lib/../lib32/libstdc++.a(string-inst.o)
 .group         0x0000000000000000        0x8 /home/jfb/nacl_sdk/pepper_42/toolchain/linux_x86_newlib/bin/../lib/gcc/x86_64-nacl/4.4.3/../../../../x86_64-nacl/lib/../lib32/libstdc++.a(string-inst.o)
 .group         0x0000000000000000        0x8 /home/jfb/nacl_sdk/pepper_42/toolchain/linux_x86_newlib/bin/../lib/gcc/x86_64-nacl/4.4.3/../../../../x86_64-nacl/lib/../lib32/libstdc++.a(string-inst.o)
 .group         0x0000000000000000        0x8 /home/jfb/nacl_sdk/pepper_42/toolchain/linux_x86_newlib/bin/../lib/gcc/x86_64-nacl/4.4.3/../../../../x86_64-nacl/lib/../lib32/libstdc++.a(string-inst.o)
 .group         0x0000000000000000        0x8 /home/jfb/nacl_sdk/pepper_42/toolchain/linux_x86_newlib/bin/../lib/gcc/x86_64-nacl/4.4.3/../../../../x86_64-nacl/lib/../lib32/libstdc++.a(string-inst.o)
 .group         0x0000000000000000        0x8 /home/jfb/nacl_sdk/pepper_42/toolchain/linux_x86_newlib/bin/../lib/gcc/x86_64-nacl/4.4.3/../../../../x86_64-nacl/lib/../lib32/libstdc++.a(string-inst.o)
 .group         0x0000000000000000        0x8 /home/jfb/nacl_sdk/pepper_42/toolchain/linux_x86_newlib/bin/../lib/gcc/x86_64-nacl/4.4.3/../../../../x86_64-nacl/lib/../lib32/libstdc++.a(string-inst.o)
 .group         0x0000000000000000        0x8 /home/jfb/nacl_sdk/pepper_42/toolchain/linux_x86_newlib/bin/../lib/gcc/x86_64-nacl/4.4.3/../../../../x86_64-nacl/lib/../lib32/libstdc++.a(string-inst.o)
 .group         0x0000000000000000        0x8 /home/jfb/nacl_sdk/pepper_42/toolchain/linux_x86_newlib/bin/../lib/gcc/x86_64-nacl/4.4.3/../../../../x86_64-nacl/lib/../lib32/libstdc++.a(string-inst.o)
 .group         0x0000000000000000        0x8 /home/jfb/nacl_sdk/pepper_42/toolchain/linux_x86_newlib/bin/../lib/gcc/x86_64-nacl/4.4.3/../../../../x86_64-nacl/lib/../lib32/libstdc++.a(string-inst.o)
 .group         0x0000000000000000        0x8 /home/jfb/nacl_sdk/pepper_42/toolchain/linux_x86_newlib/bin/../lib/gcc/x86_64-nacl/4.4.3/../../../../x86_64-nacl/lib/../lib32/libstdc++.a(string-inst.o)
 .group         0x0000000000000000        0x8 /home/jfb/nacl_sdk/pepper_42/toolchain/linux_x86_newlib/bin/../lib/gcc/x86_64-nacl/4.4.3/../../../../x86_64-nacl/lib/../lib32/libstdc++.a(string-inst.o)
 .group         0x0000000000000000        0x8 /home/jfb/nacl_sdk/pepper_42/toolchain/linux_x86_newlib/bin/../lib/gcc/x86_64-nacl/4.4.3/../../../../x86_64-nacl/lib/../lib32/libstdc++.a(string-inst.o)
 .group         0x0000000000000000        0x8 /home/jfb/nacl_sdk/pepper_42/toolchain/linux_x86_newlib/bin/../lib/gcc/x86_64-nacl/4.4.3/../../../../x86_64-nacl/lib/../lib32/libstdc++.a(string-inst.o)
 .group         0x0000000000000000        0x8 /home/jfb/nacl_sdk/pepper_42/toolchain/linux_x86_newlib/bin/../lib/gcc/x86_64-nacl/4.4.3/../../../../x86_64-nacl/lib/../lib32/libstdc++.a(string-inst.o)
 .group         0x0000000000000000        0x8 /home/jfb/nacl_sdk/pepper_42/toolchain/linux_x86_newlib/bin/../lib/gcc/x86_64-nacl/4.4.3/../../../../x86_64-nacl/lib/../lib32/libstdc++.a(string-inst.o)
 .group         0x0000000000000000        0x8 /home/jfb/nacl_sdk/pepper_42/toolchain/linux_x86_newlib/bin/../lib/gcc/x86_64-nacl/4.4.3/../../../../x86_64-nacl/lib/../lib32/libstdc++.a(string-inst.o)
 .group         0x0000000000000000        0x8 /home/jfb/nacl_sdk/pepper_42/toolchain/linux_x86_newlib/bin/../lib/gcc/x86_64-nacl/4.4.3/../../../../x86_64-nacl/lib/../lib32/libstdc++.a(string-inst.o)
 .group         0x0000000000000000        0x8 /home/jfb/nacl_sdk/pepper_42/toolchain/linux_x86_newlib/bin/../lib/gcc/x86_64-nacl/4.4.3/../../../../x86_64-nacl/lib/../lib32/libstdc++.a(string-inst.o)
 .group         0x0000000000000000        0x8 /home/jfb/nacl_sdk/pepper_42/toolchain/linux_x86_newlib/bin/../lib/gcc/x86_64-nacl/4.4.3/../../../../x86_64-nacl/lib/../lib32/libstdc++.a(string-inst.o)
 .group         0x0000000000000000        0x8 /home/jfb/nacl_sdk/pepper_42/toolchain/linux_x86_newlib/bin/../lib/gcc/x86_64-nacl/4.4.3/../../../../x86_64-nacl/lib/../lib32/libstdc++.a(string-inst.o)
 .group         0x0000000000000000        0x8 /home/jfb/nacl_sdk/pepper_42/toolchain/linux_x86_newlib/bin/../lib/gcc/x86_64-nacl/4.4.3/../../../../x86_64-nacl/lib/../lib32/libstdc++.a(string-inst.o)
 .group         0x0000000000000000        0x8 /home/jfb/nacl_sdk/pepper_42/toolchain/linux_x86_newlib/bin/../lib/gcc/x86_64-nacl/4.4.3/../../../../x86_64-nacl/lib/../lib32/libstdc++.a(string-inst.o)
 .group         0x0000000000000000        0x8 /home/jfb/nacl_sdk/pepper_42/toolchain/linux_x86_newlib/bin/../lib/gcc/x86_64-nacl/4.4.3/../../../../x86_64-nacl/lib/../lib32/libstdc++.a(string-inst.o)
 .group         0x0000000000000000        0x8 /home/jfb/nacl_sdk/pepper_42/toolchain/linux_x86_newlib/bin/../lib/gcc/x86_64-nacl/4.4.3/../../../../x86_64-nacl/lib/../lib32/libstdc++.a(string-inst.o)
 .group         0x0000000000000000        0x8 /home/jfb/nacl_sdk/pepper_42/toolchain/linux_x86_newlib/bin/../lib/gcc/x86_64-nacl/4.4.3/../../../../x86_64-nacl/lib/../lib32/libstdc++.a(string-inst.o)
 .group         0x0000000000000000        0x8 /home/jfb/nacl_sdk/pepper_42/toolchain/linux_x86_newlib/bin/../lib/gcc/x86_64-nacl/4.4.3/../../../../x86_64-nacl/lib/../lib32/libstdc++.a(string-inst.o)
 .group         0x0000000000000000        0x8 /home/jfb/nacl_sdk/pepper_42/toolchain/linux_x86_newlib/bin/../lib/gcc/x86_64-nacl/4.4.3/../../../../x86_64-nacl/lib/../lib32/libstdc++.a(string-inst.o)
 .group         0x0000000000000000        0x8 /home/jfb/nacl_sdk/pepper_42/toolchain/linux_x86_newlib/bin/../lib/gcc/x86_64-nacl/4.4.3/../../../../x86_64-nacl/lib/../lib32/libstdc++.a(string-inst.o)
 .group         0x0000000000000000        0x8 /home/jfb/nacl_sdk/pepper_42/toolchain/linux_x86_newlib/bin/../lib/gcc/x86_64-nacl/4.4.3/../../../../x86_64-nacl/lib/../lib32/libstdc++.a(string-inst.o)
 .note.GNU-stack
                0x0000000000000000        0x0 /home/jfb/nacl_sdk/pepper_42/toolchain/linux_x86_newlib/bin/../lib/gcc/x86_64-nacl/4.4.3/../../../../x86_64-nacl/lib/../lib32/libstdc++.a(string-inst.o)
 .note.GNU-stack
                0x0000000000000000        0x0 /home/jfb/nacl_sdk/pepper_42/toolchain/linux_x86_newlib/bin/../lib/gcc/x86_64-nacl/4.4.3/../../../../x86_64-nacl/lib/../lib32/libstdc++.a(eh_personality.o)
 .group         0x0000000000000000        0x8 /home/jfb/nacl_sdk/pepper_42/toolchain/linux_x86_newlib/bin/../lib/gcc/x86_64-nacl/4.4.3/../../../../x86_64-nacl/lib/../lib32/libstdc++.a(eh_globals.o)
 .note.GNU-stack
                0x0000000000000000        0x0 /home/jfb/nacl_sdk/pepper_42/toolchain/linux_x86_newlib/bin/../lib/gcc/x86_64-nacl/4.4.3/../../../../x86_64-nacl/lib/../lib32/libstdc++.a(eh_globals.o)
 .note.GNU-stack
                0x0000000000000000        0x0 /home/jfb/nacl_sdk/pepper_42/toolchain/linux_x86_newlib/bin/../lib/gcc/x86_64-nacl/4.4.3/../../../../x86_64-nacl/lib/../lib32/libstdc++.a(eh_throw.o)
 .note.GNU-stack
                0x0000000000000000        0x0 /home/jfb/nacl_sdk/pepper_42/toolchain/linux_x86_newlib/bin/../lib/gcc/x86_64-nacl/4.4.3/../../../../x86_64-nacl/lib/../lib32/libstdc++.a(del_op.o)
 .note.GNU-stack
                0x0000000000000000        0x0 /home/jfb/nacl_sdk/pepper_42/toolchain/linux_x86_newlib/bin/../lib/gcc/x86_64-nacl/4.4.3/../../../../x86_64-nacl/lib/../lib32/libstdc++.a(eh_call.o)
 .group         0x0000000000000000        0x8 /home/jfb/nacl_sdk/pepper_42/toolchain/linux_x86_newlib/bin/../lib/gcc/x86_64-nacl/4.4.3/../../../../x86_64-nacl/lib/../lib32/libstdc++.a(guard.o)
 .group         0x0000000000000000        0x8 /home/jfb/nacl_sdk/pepper_42/toolchain/linux_x86_newlib/bin/../lib/gcc/x86_64-nacl/4.4.3/../../../../x86_64-nacl/lib/../lib32/libstdc++.a(guard.o)
 .group         0x0000000000000000        0x8 /home/jfb/nacl_sdk/pepper_42/toolchain/linux_x86_newlib/bin/../lib/gcc/x86_64-nacl/4.4.3/../../../../x86_64-nacl/lib/../lib32/libstdc++.a(guard.o)
 .group         0x0000000000000000        0x8 /home/jfb/nacl_sdk/pepper_42/toolchain/linux_x86_newlib/bin/../lib/gcc/x86_64-nacl/4.4.3/../../../../x86_64-nacl/lib/../lib32/libstdc++.a(guard.o)
 .group         0x0000000000000000        0x8 /home/jfb/nacl_sdk/pepper_42/toolchain/linux_x86_newlib/bin/../lib/gcc/x86_64-nacl/4.4.3/../../../../x86_64-nacl/lib/../lib32/libstdc++.a(guard.o)
 .group         0x0000000000000000        0x8 /home/jfb/nacl_sdk/pepper_42/toolchain/linux_x86_newlib/bin/../lib/gcc/x86_64-nacl/4.4.3/../../../../x86_64-nacl/lib/../lib32/libstdc++.a(guard.o)
 .group         0x0000000000000000        0x8 /home/jfb/nacl_sdk/pepper_42/toolchain/linux_x86_newlib/bin/../lib/gcc/x86_64-nacl/4.4.3/../../../../x86_64-nacl/lib/../lib32/libstdc++.a(guard.o)
 .group         0x0000000000000000        0x8 /home/jfb/nacl_sdk/pepper_42/toolchain/linux_x86_newlib/bin/../lib/gcc/x86_64-nacl/4.4.3/../../../../x86_64-nacl/lib/../lib32/libstdc++.a(guard.o)
 .group         0x0000000000000000        0x8 /home/jfb/nacl_sdk/pepper_42/toolchain/linux_x86_newlib/bin/../lib/gcc/x86_64-nacl/4.4.3/../../../../x86_64-nacl/lib/../lib32/libstdc++.a(guard.o)
 .group         0x0000000000000000        0x8 /home/jfb/nacl_sdk/pepper_42/toolchain/linux_x86_newlib/bin/../lib/gcc/x86_64-nacl/4.4.3/../../../../x86_64-nacl/lib/../lib32/libstdc++.a(guard.o)
 .group         0x0000000000000000        0x8 /home/jfb/nacl_sdk/pepper_42/toolchain/linux_x86_newlib/bin/../lib/gcc/x86_64-nacl/4.4.3/../../../../x86_64-nacl/lib/../lib32/libstdc++.a(guard.o)
 .group         0x0000000000000000        0x8 /home/jfb/nacl_sdk/pepper_42/toolchain/linux_x86_newlib/bin/../lib/gcc/x86_64-nacl/4.4.3/../../../../x86_64-nacl/lib/../lib32/libstdc++.a(guard.o)
 .group         0x0000000000000000        0x8 /home/jfb/nacl_sdk/pepper_42/toolchain/linux_x86_newlib/bin/../lib/gcc/x86_64-nacl/4.4.3/../../../../x86_64-nacl/lib/../lib32/libstdc++.a(guard.o)
 .group         0x0000000000000000        0x8 /home/jfb/nacl_sdk/pepper_42/toolchain/linux_x86_newlib/bin/../lib/gcc/x86_64-nacl/4.4.3/../../../../x86_64-nacl/lib/../lib32/libstdc++.a(guard.o)
 .group         0x0000000000000000        0x8 /home/jfb/nacl_sdk/pepper_42/toolchain/linux_x86_newlib/bin/../lib/gcc/x86_64-nacl/4.4.3/../../../../x86_64-nacl/lib/../lib32/libstdc++.a(guard.o)
 .note.GNU-stack
                0x0000000000000000        0x0 /home/jfb/nacl_sdk/pepper_42/toolchain/linux_x86_newlib/bin/../lib/gcc/x86_64-nacl/4.4.3/../../../../x86_64-nacl/lib/../lib32/libstdc++.a(guard.o)
 .group         0x0000000000000000        0x8 /home/jfb/nacl_sdk/pepper_42/toolchain/linux_x86_newlib/bin/../lib/gcc/x86_64-nacl/4.4.3/../../../../x86_64-nacl/lib/../lib32/libstdc++.a(si_class_type_info.o)
 .group         0x0000000000000000        0x8 /home/jfb/nacl_sdk/pepper_42/toolchain/linux_x86_newlib/bin/../lib/gcc/x86_64-nacl/4.4.3/../../../../x86_64-nacl/lib/../lib32/libstdc++.a(si_class_type_info.o)
 .group         0x0000000000000000        0x8 /home/jfb/nacl_sdk/pepper_42/toolchain/linux_x86_newlib/bin/../lib/gcc/x86_64-nacl/4.4.3/../../../../x86_64-nacl/lib/../lib32/libstdc++.a(si_class_type_info.o)
 .note.GNU-stack
                0x0000000000000000        0x0 /home/jfb/nacl_sdk/pepper_42/toolchain/linux_x86_newlib/bin/../lib/gcc/x86_64-nacl/4.4.3/../../../../x86_64-nacl/lib/../lib32/libstdc++.a(si_class_type_info.o)
 .note.GNU-stack
                0x0000000000000000        0x0 /home/jfb/nacl_sdk/pepper_42/toolchain/linux_x86_newlib/bin/../lib/gcc/x86_64-nacl/4.4.3/../../../../x86_64-nacl/lib/../lib32/libstdc++.a(eh_terminate.o)
 .group         0x0000000000000000        0x8 /home/jfb/nacl_sdk/pepper_42/toolchain/linux_x86_newlib/bin/../lib/gcc/x86_64-nacl/4.4.3/../../../../x86_64-nacl/lib/../lib32/libstdc++.a(class_type_info.o)
 .group         0x0000000000000000        0x8 /home/jfb/nacl_sdk/pepper_42/toolchain/linux_x86_newlib/bin/../lib/gcc/x86_64-nacl/4.4.3/../../../../x86_64-nacl/lib/../lib32/libstdc++.a(class_type_info.o)
 .group         0x0000000000000000        0x8 /home/jfb/nacl_sdk/pepper_42/toolchain/linux_x86_newlib/bin/../lib/gcc/x86_64-nacl/4.4.3/../../../../x86_64-nacl/lib/../lib32/libstdc++.a(class_type_info.o)
 .note.GNU-stack
                0x0000000000000000        0x0 /home/jfb/nacl_sdk/pepper_42/toolchain/linux_x86_newlib/bin/../lib/gcc/x86_64-nacl/4.4.3/../../../../x86_64-nacl/lib/../lib32/libstdc++.a(class_type_info.o)
 .group         0x0000000000000000        0x8 /home/jfb/nacl_sdk/pepper_42/toolchain/linux_x86_newlib/bin/../lib/gcc/x86_64-nacl/4.4.3/../../../../x86_64-nacl/lib/../lib32/libstdc++.a(eh_alloc.o)
 .group         0x0000000000000000        0x8 /home/jfb/nacl_sdk/pepper_42/toolchain/linux_x86_newlib/bin/../lib/gcc/x86_64-nacl/4.4.3/../../../../x86_64-nacl/lib/../lib32/libstdc++.a(eh_alloc.o)
 .group         0x0000000000000000        0x8 /home/jfb/nacl_sdk/pepper_42/toolchain/linux_x86_newlib/bin/../lib/gcc/x86_64-nacl/4.4.3/../../../../x86_64-nacl/lib/../lib32/libstdc++.a(eh_alloc.o)
 .group         0x0000000000000000        0x8 /home/jfb/nacl_sdk/pepper_42/toolchain/linux_x86_newlib/bin/../lib/gcc/x86_64-nacl/4.4.3/../../../../x86_64-nacl/lib/../lib32/libstdc++.a(eh_alloc.o)
 .group         0x0000000000000000        0x8 /home/jfb/nacl_sdk/pepper_42/toolchain/linux_x86_newlib/bin/../lib/gcc/x86_64-nacl/4.4.3/../../../../x86_64-nacl/lib/../lib32/libstdc++.a(eh_alloc.o)
 .group         0x0000000000000000        0x8 /home/jfb/nacl_sdk/pepper_42/toolchain/linux_x86_newlib/bin/../lib/gcc/x86_64-nacl/4.4.3/../../../../x86_64-nacl/lib/../lib32/libstdc++.a(eh_alloc.o)
 .group         0x0000000000000000        0x8 /home/jfb/nacl_sdk/pepper_42/toolchain/linux_x86_newlib/bin/../lib/gcc/x86_64-nacl/4.4.3/../../../../x86_64-nacl/lib/../lib32/libstdc++.a(eh_alloc.o)
 .group         0x0000000000000000        0x8 /home/jfb/nacl_sdk/pepper_42/toolchain/linux_x86_newlib/bin/../lib/gcc/x86_64-nacl/4.4.3/../../../../x86_64-nacl/lib/../lib32/libstdc++.a(eh_alloc.o)
 .group         0x0000000000000000        0x8 /home/jfb/nacl_sdk/pepper_42/toolchain/linux_x86_newlib/bin/../lib/gcc/x86_64-nacl/4.4.3/../../../../x86_64-nacl/lib/../lib32/libstdc++.a(eh_alloc.o)
 .group         0x0000000000000000        0x8 /home/jfb/nacl_sdk/pepper_42/toolchain/linux_x86_newlib/bin/../lib/gcc/x86_64-nacl/4.4.3/../../../../x86_64-nacl/lib/../lib32/libstdc++.a(eh_alloc.o)
 .group         0x0000000000000000        0x8 /home/jfb/nacl_sdk/pepper_42/toolchain/linux_x86_newlib/bin/../lib/gcc/x86_64-nacl/4.4.3/../../../../x86_64-nacl/lib/../lib32/libstdc++.a(eh_alloc.o)
 .group         0x0000000000000000        0x8 /home/jfb/nacl_sdk/pepper_42/toolchain/linux_x86_newlib/bin/../lib/gcc/x86_64-nacl/4.4.3/../../../../x86_64-nacl/lib/../lib32/libstdc++.a(eh_alloc.o)
 .group         0x0000000000000000        0x8 /home/jfb/nacl_sdk/pepper_42/toolchain/linux_x86_newlib/bin/../lib/gcc/x86_64-nacl/4.4.3/../../../../x86_64-nacl/lib/../lib32/libstdc++.a(eh_alloc.o)
 .text._ZNK9__gnu_cxx24__concurrence_lock_error4whatEv
                0x0000000000000000       0x20 /home/jfb/nacl_sdk/pepper_42/toolchain/linux_x86_newlib/bin/../lib/gcc/x86_64-nacl/4.4.3/../../../../x86_64-nacl/lib/../lib32/libstdc++.a(eh_alloc.o)
 .text._ZNK9__gnu_cxx26__concurrence_unlock_error4whatEv
                0x0000000000000000       0x20 /home/jfb/nacl_sdk/pepper_42/toolchain/linux_x86_newlib/bin/../lib/gcc/x86_64-nacl/4.4.3/../../../../x86_64-nacl/lib/../lib32/libstdc++.a(eh_alloc.o)
 .text._ZN9__gnu_cxx24__concurrence_lock_errorD1Ev
                0x0000000000000000       0x20 /home/jfb/nacl_sdk/pepper_42/toolchain/linux_x86_newlib/bin/../lib/gcc/x86_64-nacl/4.4.3/../../../../x86_64-nacl/lib/../lib32/libstdc++.a(eh_alloc.o)
 .text._ZN9__gnu_cxx26__concurrence_unlock_errorD1Ev
                0x0000000000000000       0x20 /home/jfb/nacl_sdk/pepper_42/toolchain/linux_x86_newlib/bin/../lib/gcc/x86_64-nacl/4.4.3/../../../../x86_64-nacl/lib/../lib32/libstdc++.a(eh_alloc.o)
 .text._ZN9__gnu_cxx24__concurrence_lock_errorD0Ev
                0x0000000000000000       0x40 /home/jfb/nacl_sdk/pepper_42/toolchain/linux_x86_newlib/bin/../lib/gcc/x86_64-nacl/4.4.3/../../../../x86_64-nacl/lib/../lib32/libstdc++.a(eh_alloc.o)
 .text._ZN9__gnu_cxx26__concurrence_unlock_errorD0Ev
                0x0000000000000000       0x40 /home/jfb/nacl_sdk/pepper_42/toolchain/linux_x86_newlib/bin/../lib/gcc/x86_64-nacl/4.4.3/../../../../x86_64-nacl/lib/../lib32/libstdc++.a(eh_alloc.o)
 .rodata._ZTIN9__gnu_cxx24__concurrence_lock_errorE
                0x0000000000000000        0xc /home/jfb/nacl_sdk/pepper_42/toolchain/linux_x86_newlib/bin/../lib/gcc/x86_64-nacl/4.4.3/../../../../x86_64-nacl/lib/../lib32/libstdc++.a(eh_alloc.o)
 .rodata._ZTSN9__gnu_cxx24__concurrence_lock_errorE
                0x0000000000000000       0x27 /home/jfb/nacl_sdk/pepper_42/toolchain/linux_x86_newlib/bin/../lib/gcc/x86_64-nacl/4.4.3/../../../../x86_64-nacl/lib/../lib32/libstdc++.a(eh_alloc.o)
 .rodata._ZTVN9__gnu_cxx24__concurrence_lock_errorE
                0x0000000000000000       0x14 /home/jfb/nacl_sdk/pepper_42/toolchain/linux_x86_newlib/bin/../lib/gcc/x86_64-nacl/4.4.3/../../../../x86_64-nacl/lib/../lib32/libstdc++.a(eh_alloc.o)
 .rodata._ZTIN9__gnu_cxx26__concurrence_unlock_errorE
                0x0000000000000000        0xc /home/jfb/nacl_sdk/pepper_42/toolchain/linux_x86_newlib/bin/../lib/gcc/x86_64-nacl/4.4.3/../../../../x86_64-nacl/lib/../lib32/libstdc++.a(eh_alloc.o)
 .rodata._ZTSN9__gnu_cxx26__concurrence_unlock_errorE
                0x0000000000000000       0x29 /home/jfb/nacl_sdk/pepper_42/toolchain/linux_x86_newlib/bin/../lib/gcc/x86_64-nacl/4.4.3/../../../../x86_64-nacl/lib/../lib32/libstdc++.a(eh_alloc.o)
 .rodata._ZTVN9__gnu_cxx26__concurrence_unlock_errorE
                0x0000000000000000       0x14 /home/jfb/nacl_sdk/pepper_42/toolchain/linux_x86_newlib/bin/../lib/gcc/x86_64-nacl/4.4.3/../../../../x86_64-nacl/lib/../lib32/libstdc++.a(eh_alloc.o)
 .note.GNU-stack
                0x0000000000000000        0x0 /home/jfb/nacl_sdk/pepper_42/toolchain/linux_x86_newlib/bin/../lib/gcc/x86_64-nacl/4.4.3/../../../../x86_64-nacl/lib/../lib32/libstdc++.a(eh_alloc.o)
 .note.GNU-stack
                0x0000000000000000        0x0 /home/jfb/nacl_sdk/pepper_42/toolchain/linux_x86_newlib/bin/../lib/gcc/x86_64-nacl/4.4.3/../../../../x86_64-nacl/lib/../lib32/libstdc++.a(eh_catch.o)
 .group         0x0000000000000000        0x8 /home/jfb/nacl_sdk/pepper_42/toolchain/linux_x86_newlib/bin/../lib/gcc/x86_64-nacl/4.4.3/../../../../x86_64-nacl/lib/../lib32/libstdc++.a(eh_exception.o)
 .group         0x0000000000000000        0x8 /home/jfb/nacl_sdk/pepper_42/toolchain/linux_x86_newlib/bin/../lib/gcc/x86_64-nacl/4.4.3/../../../../x86_64-nacl/lib/../lib32/libstdc++.a(eh_exception.o)
 .group         0x0000000000000000        0x8 /home/jfb/nacl_sdk/pepper_42/toolchain/linux_x86_newlib/bin/../lib/gcc/x86_64-nacl/4.4.3/../../../../x86_64-nacl/lib/../lib32/libstdc++.a(eh_exception.o)
 .group         0x0000000000000000        0x8 /home/jfb/nacl_sdk/pepper_42/toolchain/linux_x86_newlib/bin/../lib/gcc/x86_64-nacl/4.4.3/../../../../x86_64-nacl/lib/../lib32/libstdc++.a(eh_exception.o)
 .group         0x0000000000000000        0x8 /home/jfb/nacl_sdk/pepper_42/toolchain/linux_x86_newlib/bin/../lib/gcc/x86_64-nacl/4.4.3/../../../../x86_64-nacl/lib/../lib32/libstdc++.a(eh_exception.o)
 .group         0x0000000000000000        0x8 /home/jfb/nacl_sdk/pepper_42/toolchain/linux_x86_newlib/bin/../lib/gcc/x86_64-nacl/4.4.3/../../../../x86_64-nacl/lib/../lib32/libstdc++.a(eh_exception.o)
 .group         0x0000000000000000        0x8 /home/jfb/nacl_sdk/pepper_42/toolchain/linux_x86_newlib/bin/../lib/gcc/x86_64-nacl/4.4.3/../../../../x86_64-nacl/lib/../lib32/libstdc++.a(eh_exception.o)
 .group         0x0000000000000000        0x8 /home/jfb/nacl_sdk/pepper_42/toolchain/linux_x86_newlib/bin/../lib/gcc/x86_64-nacl/4.4.3/../../../../x86_64-nacl/lib/../lib32/libstdc++.a(eh_exception.o)
 .group         0x0000000000000000        0x8 /home/jfb/nacl_sdk/pepper_42/toolchain/linux_x86_newlib/bin/../lib/gcc/x86_64-nacl/4.4.3/../../../../x86_64-nacl/lib/../lib32/libstdc++.a(eh_exception.o)
 .group         0x0000000000000000        0x8 /home/jfb/nacl_sdk/pepper_42/toolchain/linux_x86_newlib/bin/../lib/gcc/x86_64-nacl/4.4.3/../../../../x86_64-nacl/lib/../lib32/libstdc++.a(eh_exception.o)
 .group         0x0000000000000000        0x8 /home/jfb/nacl_sdk/pepper_42/toolchain/linux_x86_newlib/bin/../lib/gcc/x86_64-nacl/4.4.3/../../../../x86_64-nacl/lib/../lib32/libstdc++.a(eh_exception.o)
 .group         0x0000000000000000        0x8 /home/jfb/nacl_sdk/pepper_42/toolchain/linux_x86_newlib/bin/../lib/gcc/x86_64-nacl/4.4.3/../../../../x86_64-nacl/lib/../lib32/libstdc++.a(eh_exception.o)
 .note.GNU-stack
                0x0000000000000000        0x0 /home/jfb/nacl_sdk/pepper_42/toolchain/linux_x86_newlib/bin/../lib/gcc/x86_64-nacl/4.4.3/../../../../x86_64-nacl/lib/../lib32/libstdc++.a(eh_exception.o)
 .note.GNU-stack
                0x0000000000000000        0x0 /home/jfb/nacl_sdk/pepper_42/toolchain/linux_x86_newlib/bin/../lib/gcc/x86_64-nacl/4.4.3/../../../../x86_64-nacl/lib/../lib32/libstdc++.a(pure.o)
 .note.GNU-stack
                0x0000000000000000        0x0 /home/jfb/nacl_sdk/pepper_42/toolchain/linux_x86_newlib/bin/../lib/gcc/x86_64-nacl/4.4.3/../../../../x86_64-nacl/lib/../lib32/libstdc++.a(new_op.o)
 .group         0x0000000000000000        0x8 /home/jfb/nacl_sdk/pepper_42/toolchain/linux_x86_newlib/bin/../lib/gcc/x86_64-nacl/4.4.3/../../../../x86_64-nacl/lib/../lib32/libstdc++.a(tinfo.o)
 .group         0x0000000000000000        0x8 /home/jfb/nacl_sdk/pepper_42/toolchain/linux_x86_newlib/bin/../lib/gcc/x86_64-nacl/4.4.3/../../../../x86_64-nacl/lib/../lib32/libstdc++.a(tinfo.o)
 .group         0x0000000000000000        0x8 /home/jfb/nacl_sdk/pepper_42/toolchain/linux_x86_newlib/bin/../lib/gcc/x86_64-nacl/4.4.3/../../../../x86_64-nacl/lib/../lib32/libstdc++.a(tinfo.o)
 .note.GNU-stack
                0x0000000000000000        0x0 /home/jfb/nacl_sdk/pepper_42/toolchain/linux_x86_newlib/bin/../lib/gcc/x86_64-nacl/4.4.3/../../../../x86_64-nacl/lib/../lib32/libstdc++.a(tinfo.o)
 .group         0x0000000000000000        0x8 /home/jfb/nacl_sdk/pepper_42/toolchain/linux_x86_newlib/bin/../lib/gcc/x86_64-nacl/4.4.3/../../../../x86_64-nacl/lib/../lib32/libstdc++.a(functexcept.o)
 .group         0x0000000000000000        0x8 /home/jfb/nacl_sdk/pepper_42/toolchain/linux_x86_newlib/bin/../lib/gcc/x86_64-nacl/4.4.3/../../../../x86_64-nacl/lib/../lib32/libstdc++.a(functexcept.o)
 .group         0x0000000000000000        0x8 /home/jfb/nacl_sdk/pepper_42/toolchain/linux_x86_newlib/bin/../lib/gcc/x86_64-nacl/4.4.3/../../../../x86_64-nacl/lib/../lib32/libstdc++.a(functexcept.o)
 .group         0x0000000000000000        0x8 /home/jfb/nacl_sdk/pepper_42/toolchain/linux_x86_newlib/bin/../lib/gcc/x86_64-nacl/4.4.3/../../../../x86_64-nacl/lib/../lib32/libstdc++.a(functexcept.o)
 .group         0x0000000000000000        0x8 /home/jfb/nacl_sdk/pepper_42/toolchain/linux_x86_newlib/bin/../lib/gcc/x86_64-nacl/4.4.3/../../../../x86_64-nacl/lib/../lib32/libstdc++.a(functexcept.o)
 .group         0x0000000000000000        0x8 /home/jfb/nacl_sdk/pepper_42/toolchain/linux_x86_newlib/bin/../lib/gcc/x86_64-nacl/4.4.3/../../../../x86_64-nacl/lib/../lib32/libstdc++.a(functexcept.o)
 .group         0x0000000000000000        0x8 /home/jfb/nacl_sdk/pepper_42/toolchain/linux_x86_newlib/bin/../lib/gcc/x86_64-nacl/4.4.3/../../../../x86_64-nacl/lib/../lib32/libstdc++.a(functexcept.o)
 .group         0x0000000000000000        0x8 /home/jfb/nacl_sdk/pepper_42/toolchain/linux_x86_newlib/bin/../lib/gcc/x86_64-nacl/4.4.3/../../../../x86_64-nacl/lib/../lib32/libstdc++.a(functexcept.o)
 .group         0x0000000000000000        0x8 /home/jfb/nacl_sdk/pepper_42/toolchain/linux_x86_newlib/bin/../lib/gcc/x86_64-nacl/4.4.3/../../../../x86_64-nacl/lib/../lib32/libstdc++.a(functexcept.o)
 .group         0x0000000000000000        0x8 /home/jfb/nacl_sdk/pepper_42/toolchain/linux_x86_newlib/bin/../lib/gcc/x86_64-nacl/4.4.3/../../../../x86_64-nacl/lib/../lib32/libstdc++.a(functexcept.o)
 .group         0x0000000000000000        0x8 /home/jfb/nacl_sdk/pepper_42/toolchain/linux_x86_newlib/bin/../lib/gcc/x86_64-nacl/4.4.3/../../../../x86_64-nacl/lib/../lib32/libstdc++.a(functexcept.o)
 .group         0x0000000000000000        0x8 /home/jfb/nacl_sdk/pepper_42/toolchain/linux_x86_newlib/bin/../lib/gcc/x86_64-nacl/4.4.3/../../../../x86_64-nacl/lib/../lib32/libstdc++.a(functexcept.o)
 .group         0x0000000000000000        0x8 /home/jfb/nacl_sdk/pepper_42/toolchain/linux_x86_newlib/bin/../lib/gcc/x86_64-nacl/4.4.3/../../../../x86_64-nacl/lib/../lib32/libstdc++.a(functexcept.o)
 .group         0x0000000000000000        0x8 /home/jfb/nacl_sdk/pepper_42/toolchain/linux_x86_newlib/bin/../lib/gcc/x86_64-nacl/4.4.3/../../../../x86_64-nacl/lib/../lib32/libstdc++.a(functexcept.o)
 .group         0x0000000000000000        0x8 /home/jfb/nacl_sdk/pepper_42/toolchain/linux_x86_newlib/bin/../lib/gcc/x86_64-nacl/4.4.3/../../../../x86_64-nacl/lib/../lib32/libstdc++.a(functexcept.o)
 .group         0x0000000000000000        0x8 /home/jfb/nacl_sdk/pepper_42/toolchain/linux_x86_newlib/bin/../lib/gcc/x86_64-nacl/4.4.3/../../../../x86_64-nacl/lib/../lib32/libstdc++.a(functexcept.o)
 .group         0x0000000000000000        0x8 /home/jfb/nacl_sdk/pepper_42/toolchain/linux_x86_newlib/bin/../lib/gcc/x86_64-nacl/4.4.3/../../../../x86_64-nacl/lib/../lib32/libstdc++.a(functexcept.o)
 .group         0x0000000000000000        0x8 /home/jfb/nacl_sdk/pepper_42/toolchain/linux_x86_newlib/bin/../lib/gcc/x86_64-nacl/4.4.3/../../../../x86_64-nacl/lib/../lib32/libstdc++.a(functexcept.o)
 .group         0x0000000000000000        0x8 /home/jfb/nacl_sdk/pepper_42/toolchain/linux_x86_newlib/bin/../lib/gcc/x86_64-nacl/4.4.3/../../../../x86_64-nacl/lib/../lib32/libstdc++.a(functexcept.o)
 .group         0x0000000000000000        0x8 /home/jfb/nacl_sdk/pepper_42/toolchain/linux_x86_newlib/bin/../lib/gcc/x86_64-nacl/4.4.3/../../../../x86_64-nacl/lib/../lib32/libstdc++.a(functexcept.o)
 .group         0x0000000000000000        0x8 /home/jfb/nacl_sdk/pepper_42/toolchain/linux_x86_newlib/bin/../lib/gcc/x86_64-nacl/4.4.3/../../../../x86_64-nacl/lib/../lib32/libstdc++.a(functexcept.o)
 .group         0x0000000000000000        0x8 /home/jfb/nacl_sdk/pepper_42/toolchain/linux_x86_newlib/bin/../lib/gcc/x86_64-nacl/4.4.3/../../../../x86_64-nacl/lib/../lib32/libstdc++.a(functexcept.o)
 .group         0x0000000000000000        0x8 /home/jfb/nacl_sdk/pepper_42/toolchain/linux_x86_newlib/bin/../lib/gcc/x86_64-nacl/4.4.3/../../../../x86_64-nacl/lib/../lib32/libstdc++.a(functexcept.o)
 .group         0x0000000000000000        0x8 /home/jfb/nacl_sdk/pepper_42/toolchain/linux_x86_newlib/bin/../lib/gcc/x86_64-nacl/4.4.3/../../../../x86_64-nacl/lib/../lib32/libstdc++.a(functexcept.o)
 .group         0x0000000000000000        0x8 /home/jfb/nacl_sdk/pepper_42/toolchain/linux_x86_newlib/bin/../lib/gcc/x86_64-nacl/4.4.3/../../../../x86_64-nacl/lib/../lib32/libstdc++.a(functexcept.o)
 .group         0x0000000000000000        0x8 /home/jfb/nacl_sdk/pepper_42/toolchain/linux_x86_newlib/bin/../lib/gcc/x86_64-nacl/4.4.3/../../../../x86_64-nacl/lib/../lib32/libstdc++.a(functexcept.o)
 .group         0x0000000000000000        0x8 /home/jfb/nacl_sdk/pepper_42/toolchain/linux_x86_newlib/bin/../lib/gcc/x86_64-nacl/4.4.3/../../../../x86_64-nacl/lib/../lib32/libstdc++.a(functexcept.o)
 .group         0x0000000000000000        0x8 /home/jfb/nacl_sdk/pepper_42/toolchain/linux_x86_newlib/bin/../lib/gcc/x86_64-nacl/4.4.3/../../../../x86_64-nacl/lib/../lib32/libstdc++.a(functexcept.o)
 .group         0x0000000000000000        0x8 /home/jfb/nacl_sdk/pepper_42/toolchain/linux_x86_newlib/bin/../lib/gcc/x86_64-nacl/4.4.3/../../../../x86_64-nacl/lib/../lib32/libstdc++.a(functexcept.o)
 .group         0x0000000000000000        0x8 /home/jfb/nacl_sdk/pepper_42/toolchain/linux_x86_newlib/bin/../lib/gcc/x86_64-nacl/4.4.3/../../../../x86_64-nacl/lib/../lib32/libstdc++.a(functexcept.o)
 .group         0x0000000000000000        0x8 /home/jfb/nacl_sdk/pepper_42/toolchain/linux_x86_newlib/bin/../lib/gcc/x86_64-nacl/4.4.3/../../../../x86_64-nacl/lib/../lib32/libstdc++.a(functexcept.o)
 .group         0x0000000000000000        0x8 /home/jfb/nacl_sdk/pepper_42/toolchain/linux_x86_newlib/bin/../lib/gcc/x86_64-nacl/4.4.3/../../../../x86_64-nacl/lib/../lib32/libstdc++.a(functexcept.o)
 .group         0x0000000000000000        0x8 /home/jfb/nacl_sdk/pepper_42/toolchain/linux_x86_newlib/bin/../lib/gcc/x86_64-nacl/4.4.3/../../../../x86_64-nacl/lib/../lib32/libstdc++.a(functexcept.o)
 .group         0x0000000000000000        0x8 /home/jfb/nacl_sdk/pepper_42/toolchain/linux_x86_newlib/bin/../lib/gcc/x86_64-nacl/4.4.3/../../../../x86_64-nacl/lib/../lib32/libstdc++.a(functexcept.o)
 .group         0x0000000000000000        0x8 /home/jfb/nacl_sdk/pepper_42/toolchain/linux_x86_newlib/bin/../lib/gcc/x86_64-nacl/4.4.3/../../../../x86_64-nacl/lib/../lib32/libstdc++.a(functexcept.o)
 .note.GNU-stack
                0x0000000000000000        0x0 /home/jfb/nacl_sdk/pepper_42/toolchain/linux_x86_newlib/bin/../lib/gcc/x86_64-nacl/4.4.3/../../../../x86_64-nacl/lib/../lib32/libstdc++.a(functexcept.o)
 .group         0x0000000000000000        0x8 /home/jfb/nacl_sdk/pepper_42/toolchain/linux_x86_newlib/bin/../lib/gcc/x86_64-nacl/4.4.3/../../../../x86_64-nacl/lib/../lib32/libstdc++.a(ios_failure.o)
 .group         0x0000000000000000        0x8 /home/jfb/nacl_sdk/pepper_42/toolchain/linux_x86_newlib/bin/../lib/gcc/x86_64-nacl/4.4.3/../../../../x86_64-nacl/lib/../lib32/libstdc++.a(ios_failure.o)
 .group         0x0000000000000000        0x8 /home/jfb/nacl_sdk/pepper_42/toolchain/linux_x86_newlib/bin/../lib/gcc/x86_64-nacl/4.4.3/../../../../x86_64-nacl/lib/../lib32/libstdc++.a(ios_failure.o)
 .note.GNU-stack
                0x0000000000000000        0x0 /home/jfb/nacl_sdk/pepper_42/toolchain/linux_x86_newlib/bin/../lib/gcc/x86_64-nacl/4.4.3/../../../../x86_64-nacl/lib/../lib32/libstdc++.a(ios_failure.o)
 .group         0x0000000000000000        0x8 /home/jfb/nacl_sdk/pepper_42/toolchain/linux_x86_newlib/bin/../lib/gcc/x86_64-nacl/4.4.3/../../../../x86_64-nacl/lib/../lib32/libstdc++.a(stdexcept.o)
 .group         0x0000000000000000        0x8 /home/jfb/nacl_sdk/pepper_42/toolchain/linux_x86_newlib/bin/../lib/gcc/x86_64-nacl/4.4.3/../../../../x86_64-nacl/lib/../lib32/libstdc++.a(stdexcept.o)
 .group         0x0000000000000000        0x8 /home/jfb/nacl_sdk/pepper_42/toolchain/linux_x86_newlib/bin/../lib/gcc/x86_64-nacl/4.4.3/../../../../x86_64-nacl/lib/../lib32/libstdc++.a(stdexcept.o)
 .group         0x0000000000000000        0x8 /home/jfb/nacl_sdk/pepper_42/toolchain/linux_x86_newlib/bin/../lib/gcc/x86_64-nacl/4.4.3/../../../../x86_64-nacl/lib/../lib32/libstdc++.a(stdexcept.o)
 .group         0x0000000000000000        0x8 /home/jfb/nacl_sdk/pepper_42/toolchain/linux_x86_newlib/bin/../lib/gcc/x86_64-nacl/4.4.3/../../../../x86_64-nacl/lib/../lib32/libstdc++.a(stdexcept.o)
 .group         0x0000000000000000        0x8 /home/jfb/nacl_sdk/pepper_42/toolchain/linux_x86_newlib/bin/../lib/gcc/x86_64-nacl/4.4.3/../../../../x86_64-nacl/lib/../lib32/libstdc++.a(stdexcept.o)
 .group         0x0000000000000000        0x8 /home/jfb/nacl_sdk/pepper_42/toolchain/linux_x86_newlib/bin/../lib/gcc/x86_64-nacl/4.4.3/../../../../x86_64-nacl/lib/../lib32/libstdc++.a(stdexcept.o)
 .group         0x0000000000000000        0x8 /home/jfb/nacl_sdk/pepper_42/toolchain/linux_x86_newlib/bin/../lib/gcc/x86_64-nacl/4.4.3/../../../../x86_64-nacl/lib/../lib32/libstdc++.a(stdexcept.o)
 .group         0x0000000000000000        0x8 /home/jfb/nacl_sdk/pepper_42/toolchain/linux_x86_newlib/bin/../lib/gcc/x86_64-nacl/4.4.3/../../../../x86_64-nacl/lib/../lib32/libstdc++.a(stdexcept.o)
 .group         0x0000000000000000        0x8 /home/jfb/nacl_sdk/pepper_42/toolchain/linux_x86_newlib/bin/../lib/gcc/x86_64-nacl/4.4.3/../../../../x86_64-nacl/lib/../lib32/libstdc++.a(stdexcept.o)
 .group         0x0000000000000000        0x8 /home/jfb/nacl_sdk/pepper_42/toolchain/linux_x86_newlib/bin/../lib/gcc/x86_64-nacl/4.4.3/../../../../x86_64-nacl/lib/../lib32/libstdc++.a(stdexcept.o)
 .group         0x0000000000000000        0x8 /home/jfb/nacl_sdk/pepper_42/toolchain/linux_x86_newlib/bin/../lib/gcc/x86_64-nacl/4.4.3/../../../../x86_64-nacl/lib/../lib32/libstdc++.a(stdexcept.o)
 .group         0x0000000000000000        0x8 /home/jfb/nacl_sdk/pepper_42/toolchain/linux_x86_newlib/bin/../lib/gcc/x86_64-nacl/4.4.3/../../../../x86_64-nacl/lib/../lib32/libstdc++.a(stdexcept.o)
 .group         0x0000000000000000        0x8 /home/jfb/nacl_sdk/pepper_42/toolchain/linux_x86_newlib/bin/../lib/gcc/x86_64-nacl/4.4.3/../../../../x86_64-nacl/lib/../lib32/libstdc++.a(stdexcept.o)
 .group         0x0000000000000000        0x8 /home/jfb/nacl_sdk/pepper_42/toolchain/linux_x86_newlib/bin/../lib/gcc/x86_64-nacl/4.4.3/../../../../x86_64-nacl/lib/../lib32/libstdc++.a(stdexcept.o)
 .group         0x0000000000000000        0x8 /home/jfb/nacl_sdk/pepper_42/toolchain/linux_x86_newlib/bin/../lib/gcc/x86_64-nacl/4.4.3/../../../../x86_64-nacl/lib/../lib32/libstdc++.a(stdexcept.o)
 .group         0x0000000000000000        0x8 /home/jfb/nacl_sdk/pepper_42/toolchain/linux_x86_newlib/bin/../lib/gcc/x86_64-nacl/4.4.3/../../../../x86_64-nacl/lib/../lib32/libstdc++.a(stdexcept.o)
 .group         0x0000000000000000        0x8 /home/jfb/nacl_sdk/pepper_42/toolchain/linux_x86_newlib/bin/../lib/gcc/x86_64-nacl/4.4.3/../../../../x86_64-nacl/lib/../lib32/libstdc++.a(stdexcept.o)
 .group         0x0000000000000000        0x8 /home/jfb/nacl_sdk/pepper_42/toolchain/linux_x86_newlib/bin/../lib/gcc/x86_64-nacl/4.4.3/../../../../x86_64-nacl/lib/../lib32/libstdc++.a(stdexcept.o)
 .group         0x0000000000000000        0x8 /home/jfb/nacl_sdk/pepper_42/toolchain/linux_x86_newlib/bin/../lib/gcc/x86_64-nacl/4.4.3/../../../../x86_64-nacl/lib/../lib32/libstdc++.a(stdexcept.o)
 .group         0x0000000000000000        0x8 /home/jfb/nacl_sdk/pepper_42/toolchain/linux_x86_newlib/bin/../lib/gcc/x86_64-nacl/4.4.3/../../../../x86_64-nacl/lib/../lib32/libstdc++.a(stdexcept.o)
 .group         0x0000000000000000        0x8 /home/jfb/nacl_sdk/pepper_42/toolchain/linux_x86_newlib/bin/../lib/gcc/x86_64-nacl/4.4.3/../../../../x86_64-nacl/lib/../lib32/libstdc++.a(stdexcept.o)
 .group         0x0000000000000000        0x8 /home/jfb/nacl_sdk/pepper_42/toolchain/linux_x86_newlib/bin/../lib/gcc/x86_64-nacl/4.4.3/../../../../x86_64-nacl/lib/../lib32/libstdc++.a(stdexcept.o)
 .group         0x0000000000000000        0x8 /home/jfb/nacl_sdk/pepper_42/toolchain/linux_x86_newlib/bin/../lib/gcc/x86_64-nacl/4.4.3/../../../../x86_64-nacl/lib/../lib32/libstdc++.a(stdexcept.o)
 .group         0x0000000000000000        0x8 /home/jfb/nacl_sdk/pepper_42/toolchain/linux_x86_newlib/bin/../lib/gcc/x86_64-nacl/4.4.3/../../../../x86_64-nacl/lib/../lib32/libstdc++.a(stdexcept.o)
 .group         0x0000000000000000        0x8 /home/jfb/nacl_sdk/pepper_42/toolchain/linux_x86_newlib/bin/../lib/gcc/x86_64-nacl/4.4.3/../../../../x86_64-nacl/lib/../lib32/libstdc++.a(stdexcept.o)
 .group         0x0000000000000000        0x8 /home/jfb/nacl_sdk/pepper_42/toolchain/linux_x86_newlib/bin/../lib/gcc/x86_64-nacl/4.4.3/../../../../x86_64-nacl/lib/../lib32/libstdc++.a(stdexcept.o)
 .group         0x0000000000000000        0x8 /home/jfb/nacl_sdk/pepper_42/toolchain/linux_x86_newlib/bin/../lib/gcc/x86_64-nacl/4.4.3/../../../../x86_64-nacl/lib/../lib32/libstdc++.a(stdexcept.o)
 .group         0x0000000000000000        0x8 /home/jfb/nacl_sdk/pepper_42/toolchain/linux_x86_newlib/bin/../lib/gcc/x86_64-nacl/4.4.3/../../../../x86_64-nacl/lib/../lib32/libstdc++.a(stdexcept.o)
 .group         0x0000000000000000        0x8 /home/jfb/nacl_sdk/pepper_42/toolchain/linux_x86_newlib/bin/../lib/gcc/x86_64-nacl/4.4.3/../../../../x86_64-nacl/lib/../lib32/libstdc++.a(stdexcept.o)
 .group         0x0000000000000000        0x8 /home/jfb/nacl_sdk/pepper_42/toolchain/linux_x86_newlib/bin/../lib/gcc/x86_64-nacl/4.4.3/../../../../x86_64-nacl/lib/../lib32/libstdc++.a(stdexcept.o)
 .group         0x0000000000000000        0x8 /home/jfb/nacl_sdk/pepper_42/toolchain/linux_x86_newlib/bin/../lib/gcc/x86_64-nacl/4.4.3/../../../../x86_64-nacl/lib/../lib32/libstdc++.a(stdexcept.o)
 .group         0x0000000000000000        0x8 /home/jfb/nacl_sdk/pepper_42/toolchain/linux_x86_newlib/bin/../lib/gcc/x86_64-nacl/4.4.3/../../../../x86_64-nacl/lib/../lib32/libstdc++.a(stdexcept.o)
 .group         0x0000000000000000        0x8 /home/jfb/nacl_sdk/pepper_42/toolchain/linux_x86_newlib/bin/../lib/gcc/x86_64-nacl/4.4.3/../../../../x86_64-nacl/lib/../lib32/libstdc++.a(stdexcept.o)
 .group         0x0000000000000000        0x8 /home/jfb/nacl_sdk/pepper_42/toolchain/linux_x86_newlib/bin/../lib/gcc/x86_64-nacl/4.4.3/../../../../x86_64-nacl/lib/../lib32/libstdc++.a(stdexcept.o)
 .group         0x0000000000000000        0x8 /home/jfb/nacl_sdk/pepper_42/toolchain/linux_x86_newlib/bin/../lib/gcc/x86_64-nacl/4.4.3/../../../../x86_64-nacl/lib/../lib32/libstdc++.a(stdexcept.o)
 .group         0x0000000000000000        0x8 /home/jfb/nacl_sdk/pepper_42/toolchain/linux_x86_newlib/bin/../lib/gcc/x86_64-nacl/4.4.3/../../../../x86_64-nacl/lib/../lib32/libstdc++.a(stdexcept.o)
 .group         0x0000000000000000        0x8 /home/jfb/nacl_sdk/pepper_42/toolchain/linux_x86_newlib/bin/../lib/gcc/x86_64-nacl/4.4.3/../../../../x86_64-nacl/lib/../lib32/libstdc++.a(stdexcept.o)
 .group         0x0000000000000000        0x8 /home/jfb/nacl_sdk/pepper_42/toolchain/linux_x86_newlib/bin/../lib/gcc/x86_64-nacl/4.4.3/../../../../x86_64-nacl/lib/../lib32/libstdc++.a(stdexcept.o)
 .group         0x0000000000000000        0x8 /home/jfb/nacl_sdk/pepper_42/toolchain/linux_x86_newlib/bin/../lib/gcc/x86_64-nacl/4.4.3/../../../../x86_64-nacl/lib/../lib32/libstdc++.a(stdexcept.o)
 .group         0x0000000000000000        0x8 /home/jfb/nacl_sdk/pepper_42/toolchain/linux_x86_newlib/bin/../lib/gcc/x86_64-nacl/4.4.3/../../../../x86_64-nacl/lib/../lib32/libstdc++.a(stdexcept.o)
 .text._ZNSt15underflow_errorD0Ev
                0x0000000000000000       0x40 /home/jfb/nacl_sdk/pepper_42/toolchain/linux_x86_newlib/bin/../lib/gcc/x86_64-nacl/4.4.3/../../../../x86_64-nacl/lib/../lib32/libstdc++.a(stdexcept.o)
 .text._ZNSt15underflow_errorD1Ev
                0x0000000000000000       0x20 /home/jfb/nacl_sdk/pepper_42/toolchain/linux_x86_newlib/bin/../lib/gcc/x86_64-nacl/4.4.3/../../../../x86_64-nacl/lib/../lib32/libstdc++.a(stdexcept.o)
 .text._ZNSt14overflow_errorD0Ev
                0x0000000000000000       0x40 /home/jfb/nacl_sdk/pepper_42/toolchain/linux_x86_newlib/bin/../lib/gcc/x86_64-nacl/4.4.3/../../../../x86_64-nacl/lib/../lib32/libstdc++.a(stdexcept.o)
 .text._ZNSt14overflow_errorD1Ev
                0x0000000000000000       0x20 /home/jfb/nacl_sdk/pepper_42/toolchain/linux_x86_newlib/bin/../lib/gcc/x86_64-nacl/4.4.3/../../../../x86_64-nacl/lib/../lib32/libstdc++.a(stdexcept.o)
 .text._ZNSt11range_errorD0Ev
                0x0000000000000000       0x40 /home/jfb/nacl_sdk/pepper_42/toolchain/linux_x86_newlib/bin/../lib/gcc/x86_64-nacl/4.4.3/../../../../x86_64-nacl/lib/../lib32/libstdc++.a(stdexcept.o)
 .text._ZNSt11range_errorD1Ev
                0x0000000000000000       0x20 /home/jfb/nacl_sdk/pepper_42/toolchain/linux_x86_newlib/bin/../lib/gcc/x86_64-nacl/4.4.3/../../../../x86_64-nacl/lib/../lib32/libstdc++.a(stdexcept.o)
 .text._ZNSt12out_of_rangeD0Ev
                0x0000000000000000       0x40 /home/jfb/nacl_sdk/pepper_42/toolchain/linux_x86_newlib/bin/../lib/gcc/x86_64-nacl/4.4.3/../../../../x86_64-nacl/lib/../lib32/libstdc++.a(stdexcept.o)
 .text._ZNSt12out_of_rangeD1Ev
                0x0000000000000000       0x20 /home/jfb/nacl_sdk/pepper_42/toolchain/linux_x86_newlib/bin/../lib/gcc/x86_64-nacl/4.4.3/../../../../x86_64-nacl/lib/../lib32/libstdc++.a(stdexcept.o)
 .text._ZNSt12length_errorD0Ev
                0x0000000000000000       0x40 /home/jfb/nacl_sdk/pepper_42/toolchain/linux_x86_newlib/bin/../lib/gcc/x86_64-nacl/4.4.3/../../../../x86_64-nacl/lib/../lib32/libstdc++.a(stdexcept.o)
 .text._ZNSt12length_errorD1Ev
                0x0000000000000000       0x20 /home/jfb/nacl_sdk/pepper_42/toolchain/linux_x86_newlib/bin/../lib/gcc/x86_64-nacl/4.4.3/../../../../x86_64-nacl/lib/../lib32/libstdc++.a(stdexcept.o)
 .text._ZNSt16invalid_argumentD0Ev
                0x0000000000000000       0x40 /home/jfb/nacl_sdk/pepper_42/toolchain/linux_x86_newlib/bin/../lib/gcc/x86_64-nacl/4.4.3/../../../../x86_64-nacl/lib/../lib32/libstdc++.a(stdexcept.o)
 .text._ZNSt16invalid_argumentD1Ev
                0x0000000000000000       0x20 /home/jfb/nacl_sdk/pepper_42/toolchain/linux_x86_newlib/bin/../lib/gcc/x86_64-nacl/4.4.3/../../../../x86_64-nacl/lib/../lib32/libstdc++.a(stdexcept.o)
 .text._ZNSt12domain_errorD0Ev
                0x0000000000000000       0x40 /home/jfb/nacl_sdk/pepper_42/toolchain/linux_x86_newlib/bin/../lib/gcc/x86_64-nacl/4.4.3/../../../../x86_64-nacl/lib/../lib32/libstdc++.a(stdexcept.o)
 .text._ZNSt12domain_errorD1Ev
                0x0000000000000000       0x20 /home/jfb/nacl_sdk/pepper_42/toolchain/linux_x86_newlib/bin/../lib/gcc/x86_64-nacl/4.4.3/../../../../x86_64-nacl/lib/../lib32/libstdc++.a(stdexcept.o)
 .rodata._ZTVSt15underflow_error
                0x0000000000000000       0x14 /home/jfb/nacl_sdk/pepper_42/toolchain/linux_x86_newlib/bin/../lib/gcc/x86_64-nacl/4.4.3/../../../../x86_64-nacl/lib/../lib32/libstdc++.a(stdexcept.o)
 .rodata._ZTISt15underflow_error
                0x0000000000000000        0xc /home/jfb/nacl_sdk/pepper_42/toolchain/linux_x86_newlib/bin/../lib/gcc/x86_64-nacl/4.4.3/../../../../x86_64-nacl/lib/../lib32/libstdc++.a(stdexcept.o)
 .rodata._ZTSSt15underflow_error
                0x0000000000000000       0x14 /home/jfb/nacl_sdk/pepper_42/toolchain/linux_x86_newlib/bin/../lib/gcc/x86_64-nacl/4.4.3/../../../../x86_64-nacl/lib/../lib32/libstdc++.a(stdexcept.o)
 .rodata._ZTVSt14overflow_error
                0x0000000000000000       0x14 /home/jfb/nacl_sdk/pepper_42/toolchain/linux_x86_newlib/bin/../lib/gcc/x86_64-nacl/4.4.3/../../../../x86_64-nacl/lib/../lib32/libstdc++.a(stdexcept.o)
 .rodata._ZTISt14overflow_error
                0x0000000000000000        0xc /home/jfb/nacl_sdk/pepper_42/toolchain/linux_x86_newlib/bin/../lib/gcc/x86_64-nacl/4.4.3/../../../../x86_64-nacl/lib/../lib32/libstdc++.a(stdexcept.o)
 .rodata._ZTSSt14overflow_error
                0x0000000000000000       0x13 /home/jfb/nacl_sdk/pepper_42/toolchain/linux_x86_newlib/bin/../lib/gcc/x86_64-nacl/4.4.3/../../../../x86_64-nacl/lib/../lib32/libstdc++.a(stdexcept.o)
 .rodata._ZTVSt11range_error
                0x0000000000000000       0x14 /home/jfb/nacl_sdk/pepper_42/toolchain/linux_x86_newlib/bin/../lib/gcc/x86_64-nacl/4.4.3/../../../../x86_64-nacl/lib/../lib32/libstdc++.a(stdexcept.o)
 .rodata._ZTISt11range_error
                0x0000000000000000        0xc /home/jfb/nacl_sdk/pepper_42/toolchain/linux_x86_newlib/bin/../lib/gcc/x86_64-nacl/4.4.3/../../../../x86_64-nacl/lib/../lib32/libstdc++.a(stdexcept.o)
 .rodata._ZTSSt11range_error
                0x0000000000000000       0x10 /home/jfb/nacl_sdk/pepper_42/toolchain/linux_x86_newlib/bin/../lib/gcc/x86_64-nacl/4.4.3/../../../../x86_64-nacl/lib/../lib32/libstdc++.a(stdexcept.o)
 .rodata._ZTVSt12out_of_range
                0x0000000000000000       0x14 /home/jfb/nacl_sdk/pepper_42/toolchain/linux_x86_newlib/bin/../lib/gcc/x86_64-nacl/4.4.3/../../../../x86_64-nacl/lib/../lib32/libstdc++.a(stdexcept.o)
 .rodata._ZTISt12out_of_range
                0x0000000000000000        0xc /home/jfb/nacl_sdk/pepper_42/toolchain/linux_x86_newlib/bin/../lib/gcc/x86_64-nacl/4.4.3/../../../../x86_64-nacl/lib/../lib32/libstdc++.a(stdexcept.o)
 .rodata._ZTSSt12out_of_range
                0x0000000000000000       0x11 /home/jfb/nacl_sdk/pepper_42/toolchain/linux_x86_newlib/bin/../lib/gcc/x86_64-nacl/4.4.3/../../../../x86_64-nacl/lib/../lib32/libstdc++.a(stdexcept.o)
 .rodata._ZTVSt12length_error
                0x0000000000000000       0x14 /home/jfb/nacl_sdk/pepper_42/toolchain/linux_x86_newlib/bin/../lib/gcc/x86_64-nacl/4.4.3/../../../../x86_64-nacl/lib/../lib32/libstdc++.a(stdexcept.o)
 .rodata._ZTISt12length_error
                0x0000000000000000        0xc /home/jfb/nacl_sdk/pepper_42/toolchain/linux_x86_newlib/bin/../lib/gcc/x86_64-nacl/4.4.3/../../../../x86_64-nacl/lib/../lib32/libstdc++.a(stdexcept.o)
 .rodata._ZTSSt12length_error
                0x0000000000000000       0x11 /home/jfb/nacl_sdk/pepper_42/toolchain/linux_x86_newlib/bin/../lib/gcc/x86_64-nacl/4.4.3/../../../../x86_64-nacl/lib/../lib32/libstdc++.a(stdexcept.o)
 .rodata._ZTVSt16invalid_argument
                0x0000000000000000       0x14 /home/jfb/nacl_sdk/pepper_42/toolchain/linux_x86_newlib/bin/../lib/gcc/x86_64-nacl/4.4.3/../../../../x86_64-nacl/lib/../lib32/libstdc++.a(stdexcept.o)
 .rodata._ZTISt16invalid_argument
                0x0000000000000000        0xc /home/jfb/nacl_sdk/pepper_42/toolchain/linux_x86_newlib/bin/../lib/gcc/x86_64-nacl/4.4.3/../../../../x86_64-nacl/lib/../lib32/libstdc++.a(stdexcept.o)
 .rodata._ZTSSt16invalid_argument
                0x0000000000000000       0x15 /home/jfb/nacl_sdk/pepper_42/toolchain/linux_x86_newlib/bin/../lib/gcc/x86_64-nacl/4.4.3/../../../../x86_64-nacl/lib/../lib32/libstdc++.a(stdexcept.o)
 .rodata._ZTVSt12domain_error
                0x0000000000000000       0x14 /home/jfb/nacl_sdk/pepper_42/toolchain/linux_x86_newlib/bin/../lib/gcc/x86_64-nacl/4.4.3/../../../../x86_64-nacl/lib/../lib32/libstdc++.a(stdexcept.o)
 .rodata._ZTISt12domain_error
                0x0000000000000000        0xc /home/jfb/nacl_sdk/pepper_42/toolchain/linux_x86_newlib/bin/../lib/gcc/x86_64-nacl/4.4.3/../../../../x86_64-nacl/lib/../lib32/libstdc++.a(stdexcept.o)
 .rodata._ZTSSt12domain_error
                0x0000000000000000       0x11 /home/jfb/nacl_sdk/pepper_42/toolchain/linux_x86_newlib/bin/../lib/gcc/x86_64-nacl/4.4.3/../../../../x86_64-nacl/lib/../lib32/libstdc++.a(stdexcept.o)
 .note.GNU-stack
                0x0000000000000000        0x0 /home/jfb/nacl_sdk/pepper_42/toolchain/linux_x86_newlib/bin/../lib/gcc/x86_64-nacl/4.4.3/../../../../x86_64-nacl/lib/../lib32/libstdc++.a(stdexcept.o)
 .group         0x0000000000000000        0x8 /home/jfb/nacl_sdk/pepper_42/toolchain/linux_x86_newlib/bin/../lib/gcc/x86_64-nacl/4.4.3/../../../../x86_64-nacl/lib/../lib32/libstdc++.a(system_error.o)
 .group         0x0000000000000000        0x8 /home/jfb/nacl_sdk/pepper_42/toolchain/linux_x86_newlib/bin/../lib/gcc/x86_64-nacl/4.4.3/../../../../x86_64-nacl/lib/../lib32/libstdc++.a(system_error.o)
 .group         0x0000000000000000        0x8 /home/jfb/nacl_sdk/pepper_42/toolchain/linux_x86_newlib/bin/../lib/gcc/x86_64-nacl/4.4.3/../../../../x86_64-nacl/lib/../lib32/libstdc++.a(system_error.o)
 .group         0x0000000000000000        0x8 /home/jfb/nacl_sdk/pepper_42/toolchain/linux_x86_newlib/bin/../lib/gcc/x86_64-nacl/4.4.3/../../../../x86_64-nacl/lib/../lib32/libstdc++.a(system_error.o)
 .group         0x0000000000000000        0x8 /home/jfb/nacl_sdk/pepper_42/toolchain/linux_x86_newlib/bin/../lib/gcc/x86_64-nacl/4.4.3/../../../../x86_64-nacl/lib/../lib32/libstdc++.a(system_error.o)
 .group         0x0000000000000000        0x8 /home/jfb/nacl_sdk/pepper_42/toolchain/linux_x86_newlib/bin/../lib/gcc/x86_64-nacl/4.4.3/../../../../x86_64-nacl/lib/../lib32/libstdc++.a(system_error.o)
 .group         0x0000000000000000        0x8 /home/jfb/nacl_sdk/pepper_42/toolchain/linux_x86_newlib/bin/../lib/gcc/x86_64-nacl/4.4.3/../../../../x86_64-nacl/lib/../lib32/libstdc++.a(system_error.o)
 .group         0x0000000000000000        0x8 /home/jfb/nacl_sdk/pepper_42/toolchain/linux_x86_newlib/bin/../lib/gcc/x86_64-nacl/4.4.3/../../../../x86_64-nacl/lib/../lib32/libstdc++.a(system_error.o)
 .note.GNU-stack
                0x0000000000000000        0x0 /home/jfb/nacl_sdk/pepper_42/toolchain/linux_x86_newlib/bin/../lib/gcc/x86_64-nacl/4.4.3/../../../../x86_64-nacl/lib/../lib32/libstdc++.a(system_error.o)
 .note.GNU-stack
                0x0000000000000000        0x0 /home/jfb/nacl_sdk/pepper_42/toolchain/linux_x86_newlib/bin/../lib/gcc/x86_64-nacl/4.4.3/../../../../x86_64-nacl/lib/../lib32/libstdc++.a(eh_unex_handler.o)
 .note.GNU-stack
                0x0000000000000000        0x0 /home/jfb/nacl_sdk/pepper_42/toolchain/linux_x86_newlib/bin/../lib/gcc/x86_64-nacl/4.4.3/../../../../x86_64-nacl/lib/../lib32/libstdc++.a(eh_term_handler.o)
 .group         0x0000000000000000        0x8 /home/jfb/nacl_sdk/pepper_42/toolchain/linux_x86_newlib/bin/../lib/gcc/x86_64-nacl/4.4.3/../../../../x86_64-nacl/lib/../lib32/libstdc++.a(bad_typeid.o)
 .group         0x0000000000000000        0x8 /home/jfb/nacl_sdk/pepper_42/toolchain/linux_x86_newlib/bin/../lib/gcc/x86_64-nacl/4.4.3/../../../../x86_64-nacl/lib/../lib32/libstdc++.a(bad_typeid.o)
 .group         0x0000000000000000        0x8 /home/jfb/nacl_sdk/pepper_42/toolchain/linux_x86_newlib/bin/../lib/gcc/x86_64-nacl/4.4.3/../../../../x86_64-nacl/lib/../lib32/libstdc++.a(bad_typeid.o)
 .note.GNU-stack
                0x0000000000000000        0x0 /home/jfb/nacl_sdk/pepper_42/toolchain/linux_x86_newlib/bin/../lib/gcc/x86_64-nacl/4.4.3/../../../../x86_64-nacl/lib/../lib32/libstdc++.a(bad_typeid.o)
 .group         0x0000000000000000        0x8 /home/jfb/nacl_sdk/pepper_42/toolchain/linux_x86_newlib/bin/../lib/gcc/x86_64-nacl/4.4.3/../../../../x86_64-nacl/lib/../lib32/libstdc++.a(new_handler.o)
 .group         0x0000000000000000        0x8 /home/jfb/nacl_sdk/pepper_42/toolchain/linux_x86_newlib/bin/../lib/gcc/x86_64-nacl/4.4.3/../../../../x86_64-nacl/lib/../lib32/libstdc++.a(new_handler.o)
 .group         0x0000000000000000        0x8 /home/jfb/nacl_sdk/pepper_42/toolchain/linux_x86_newlib/bin/../lib/gcc/x86_64-nacl/4.4.3/../../../../x86_64-nacl/lib/../lib32/libstdc++.a(new_handler.o)
 .note.GNU-stack
                0x0000000000000000        0x0 /home/jfb/nacl_sdk/pepper_42/toolchain/linux_x86_newlib/bin/../lib/gcc/x86_64-nacl/4.4.3/../../../../x86_64-nacl/lib/../lib32/libstdc++.a(new_handler.o)
 .group         0x0000000000000000        0x8 /home/jfb/nacl_sdk/pepper_42/toolchain/linux_x86_newlib/bin/../lib/gcc/x86_64-nacl/4.4.3/../../../../x86_64-nacl/lib/../lib32/libstdc++.a(bad_cast.o)
 .group         0x0000000000000000        0x8 /home/jfb/nacl_sdk/pepper_42/toolchain/linux_x86_newlib/bin/../lib/gcc/x86_64-nacl/4.4.3/../../../../x86_64-nacl/lib/../lib32/libstdc++.a(bad_cast.o)
 .group         0x0000000000000000        0x8 /home/jfb/nacl_sdk/pepper_42/toolchain/linux_x86_newlib/bin/../lib/gcc/x86_64-nacl/4.4.3/../../../../x86_64-nacl/lib/../lib32/libstdc++.a(bad_cast.o)
 .note.GNU-stack
                0x0000000000000000        0x0 /home/jfb/nacl_sdk/pepper_42/toolchain/linux_x86_newlib/bin/../lib/gcc/x86_64-nacl/4.4.3/../../../../x86_64-nacl/lib/../lib32/libstdc++.a(bad_cast.o)
 .note.GNU-stack
                0x0000000000000000        0x0 /home/jfb/nacl_sdk/pepper_42/toolchain/linux_x86_newlib/bin/../lib/gcc/x86_64-nacl/4.4.3/../../../../x86_64-nacl/lib/../lib32/libstdc++.a(vterminate.o)
 .note.GNU-stack
                0x0000000000000000        0x0 /home/jfb/nacl_sdk/pepper_42/toolchain/linux_x86_newlib/bin/../lib/gcc/x86_64-nacl/4.4.3/../../../../x86_64-nacl/lib/../lib32/libstdc++.a(cp-demangle.o)
 .note.GNU-stack
                0x0000000000000000        0x0 /home/jfb/nacl_sdk/pepper_42/toolchain/linux_x86_newlib/bin/../lib/gcc/x86_64-nacl/4.4.3/../../../../x86_64-nacl/lib/../lib32/libstdc++.a(eh_type.o)
 .group         0x0000000000000000        0x8 /home/jfb/nacl_sdk/pepper_42/toolchain/linux_x86_newlib/bin/../lib/gcc/x86_64-nacl/4.4.3/32/libgcc.a(unwind-dw2.o)
 .group         0x0000000000000000        0x8 /home/jfb/nacl_sdk/pepper_42/toolchain/linux_x86_newlib/bin/../lib/gcc/x86_64-nacl/4.4.3/32/libgcc.a(unwind-dw2.o)
 .note.GNU-stack
                0x0000000000000000        0x0 /home/jfb/nacl_sdk/pepper_42/toolchain/linux_x86_newlib/bin/../lib/gcc/x86_64-nacl/4.4.3/32/libgcc.a(unwind-dw2.o)
 .group         0x0000000000000000        0x8 /home/jfb/nacl_sdk/pepper_42/toolchain/linux_x86_newlib/bin/../lib/gcc/x86_64-nacl/4.4.3/32/libgcc.a(unwind-dw2-fde-glibc.o)
 .text.__i686.get_pc_thunk.bx
                0x0000000000000000       0x20 /home/jfb/nacl_sdk/pepper_42/toolchain/linux_x86_newlib/bin/../lib/gcc/x86_64-nacl/4.4.3/32/libgcc.a(unwind-dw2-fde-glibc.o)
 .note.GNU-stack
                0x0000000000000000        0x0 /home/jfb/nacl_sdk/pepper_42/toolchain/linux_x86_newlib/bin/../lib/gcc/x86_64-nacl/4.4.3/32/libgcc.a(unwind-dw2-fde-glibc.o)
 .note.GNU-stack
                0x0000000000000000        0x0 /home/jfb/nacl_sdk/pepper_42/toolchain/linux_x86_newlib/bin/../lib/gcc/x86_64-nacl/4.4.3/../../../../x86_64-nacl/lib/../lib32/libnacl.a(_exit_710c7d0d.o)
 .note.GNU-stack
                0x0000000000000000        0x0 /home/jfb/nacl_sdk/pepper_42/toolchain/linux_x86_newlib/bin/../lib/gcc/x86_64-nacl/4.4.3/../../../../x86_64-nacl/lib/../lib32/libnacl.a(abort_9f6b5845.o)
 .note.GNU-stack
                0x0000000000000000        0x0 /home/jfb/nacl_sdk/pepper_42/toolchain/linux_x86_newlib/bin/../lib/gcc/x86_64-nacl/4.4.3/../../../../x86_64-nacl/lib/../lib32/libnacl.a(environ_25cd24d8.o)
 .note.GNU-stack
                0x0000000000000000        0x0 /home/jfb/nacl_sdk/pepper_42/toolchain/linux_x86_newlib/bin/../lib/gcc/x86_64-nacl/4.4.3/../../../../x86_64-nacl/lib/../lib32/libnacl.a(start_fa9ef7de.o)
 .note.GNU-stack
                0x0000000000000000        0x0 /home/jfb/nacl_sdk/pepper_42/toolchain/linux_x86_newlib/bin/../lib/gcc/x86_64-nacl/4.4.3/../../../../x86_64-nacl/lib/../lib32/libnacl.a(malloc_222c4a1e.o)
 .note.GNU-stack
                0x0000000000000000        0x0 /home/jfb/nacl_sdk/pepper_42/toolchain/linux_x86_newlib/bin/../lib/gcc/x86_64-nacl/4.4.3/../../../../x86_64-nacl/lib/../lib32/libnacl.a(nacl_irt_6de1d53f.o)
 .note.GNU-stack
                0x0000000000000000        0x0 /home/jfb/nacl_sdk/pepper_42/toolchain/linux_x86_newlib/bin/../lib/gcc/x86_64-nacl/4.4.3/../../../../x86_64-nacl/lib/../lib32/libnacl.a(pthread_initialize_minimal_4b6e776b.o)
 .note.GNU-stack
                0x0000000000000000        0x0 /home/jfb/nacl_sdk/pepper_42/toolchain/linux_x86_newlib/bin/../lib/gcc/x86_64-nacl/4.4.3/../../../../x86_64-nacl/lib/../lib32/libnacl.a(nacl_read_tp_5748ac47.o)
 .note.GNU-stack
                0x0000000000000000        0x0 /home/jfb/nacl_sdk/pepper_42/toolchain/linux_x86_newlib/bin/../lib/gcc/x86_64-nacl/4.4.3/../../../../x86_64-nacl/lib/../lib32/libnacl.a(mmap_767fb080.o)
 .note.GNU-stack
                0x0000000000000000        0x0 /home/jfb/nacl_sdk/pepper_42/toolchain/linux_x86_newlib/bin/../lib/gcc/x86_64-nacl/4.4.3/../../../../x86_64-nacl/lib/../lib32/libnacl.a(sched_yield_56c375be.o)
 .note.GNU-stack
                0x0000000000000000        0x0 /home/jfb/nacl_sdk/pepper_42/toolchain/linux_x86_newlib/bin/../lib/gcc/x86_64-nacl/4.4.3/../../../../x86_64-nacl/lib/../lib32/libnacl.a(munmap_d4f09867.o)
 .note.GNU-stack
                0x0000000000000000        0x0 /home/jfb/nacl_sdk/pepper_42/toolchain/linux_x86_newlib/bin/../lib/gcc/x86_64-nacl/4.4.3/../../../../x86_64-nacl/lib/../lib32/libnacl.a(tls_bba1975b.o)
 .note.GNU-stack
                0x0000000000000000        0x0 /home/jfb/nacl_sdk/pepper_42/toolchain/linux_x86_newlib/bin/../lib/gcc/x86_64-nacl/4.4.3/../../../../x86_64-nacl/lib/../lib32/libnacl.a(write_fb49787f.o)
 .note.GNU-stack
                0x0000000000000000        0x0 /home/jfb/nacl_sdk/pepper_42/toolchain/linux_x86_newlib/bin/../lib/gcc/x86_64-nacl/4.4.3/../../../../x86_64-nacl/lib/../lib32/libnacl.a(nacl_tls_get_d2f842b5.o)
 .note.GNU-stack
                0x0000000000000000        0x0 /home/jfb/nacl_sdk/pepper_42/toolchain/linux_x86_newlib/bin/../lib/gcc/x86_64-nacl/4.4.3/../../../../x86_64-nacl/lib/../lib32/libnacl.a(nacl_irt_init_7b4f826e.o)
 .note.GNU-stack
                0x0000000000000000        0x0 /home/jfb/nacl_sdk/pepper_42/toolchain/linux_x86_newlib/bin/../lib/gcc/x86_64-nacl/4.4.3/../../../../x86_64-nacl/lib/../lib32/libnacl.a(sysconf_ad295ea2.o)
 .note.GNU-stack
                0x0000000000000000        0x0 /home/jfb/nacl_sdk/pepper_42/toolchain/linux_x86_newlib/bin/../lib/gcc/x86_64-nacl/4.4.3/../../../../x86_64-nacl/lib/../lib32/libnacl.a(nacl_tls_init_eb0cd232.o)
 .note.GNU-stack
                0x0000000000000000        0x0 /home/jfb/nacl_sdk/pepper_42/toolchain/linux_x86_newlib/bin/../lib/gcc/x86_64-nacl/4.4.3/../../../../x86_64-nacl/lib/../lib32/libcrt_common.a(lib_a-atexit.o)
 .note.GNU-stack
                0x0000000000000000        0x0 /home/jfb/nacl_sdk/pepper_42/toolchain/linux_x86_newlib/bin/../lib/gcc/x86_64-nacl/4.4.3/../../../../x86_64-nacl/lib/../lib32/libcrt_common.a(lib_a-cxa_atexit.o)
 .note.GNU-stack
                0x0000000000000000        0x0 /home/jfb/nacl_sdk/pepper_42/toolchain/linux_x86_newlib/bin/../lib/gcc/x86_64-nacl/4.4.3/../../../../x86_64-nacl/lib/../lib32/libcrt_common.a(lib_a-errno.o)
 .note.GNU-stack
                0x0000000000000000        0x0 /home/jfb/nacl_sdk/pepper_42/toolchain/linux_x86_newlib/bin/../lib/gcc/x86_64-nacl/4.4.3/../../../../x86_64-nacl/lib/../lib32/libcrt_common.a(lib_a-exit.o)
 .note.GNU-stack
                0x0000000000000000        0x0 /home/jfb/nacl_sdk/pepper_42/toolchain/linux_x86_newlib/bin/../lib/gcc/x86_64-nacl/4.4.3/../../../../x86_64-nacl/lib/../lib32/libcrt_common.a(lib_a-fini.o)
 .note.GNU-stack
                0x0000000000000000        0x0 /home/jfb/nacl_sdk/pepper_42/toolchain/linux_x86_newlib/bin/../lib/gcc/x86_64-nacl/4.4.3/../../../../x86_64-nacl/lib/../lib32/libcrt_common.a(lib_a-fprintf.o)
 .note.GNU-stack
                0x0000000000000000        0x0 /home/jfb/nacl_sdk/pepper_42/toolchain/linux_x86_newlib/bin/../lib/gcc/x86_64-nacl/4.4.3/../../../../x86_64-nacl/lib/../lib32/libcrt_common.a(lib_a-fputc.o)
 .note.GNU-stack
                0x0000000000000000        0x0 /home/jfb/nacl_sdk/pepper_42/toolchain/linux_x86_newlib/bin/../lib/gcc/x86_64-nacl/4.4.3/../../../../x86_64-nacl/lib/../lib32/libcrt_common.a(lib_a-fputs.o)
 .note.GNU-stack
                0x0000000000000000        0x0 /home/jfb/nacl_sdk/pepper_42/toolchain/linux_x86_newlib/bin/../lib/gcc/x86_64-nacl/4.4.3/../../../../x86_64-nacl/lib/../lib32/libcrt_common.a(lib_a-fvwrite.o)
 .note.GNU-stack
                0x0000000000000000        0x0 /home/jfb/nacl_sdk/pepper_42/toolchain/linux_x86_newlib/bin/../lib/gcc/x86_64-nacl/4.4.3/../../../../x86_64-nacl/lib/../lib32/libcrt_common.a(lib_a-fwrite.o)
 .note.GNU-stack
                0x0000000000000000        0x0 /home/jfb/nacl_sdk/pepper_42/toolchain/linux_x86_newlib/bin/../lib/gcc/x86_64-nacl/4.4.3/../../../../x86_64-nacl/lib/../lib32/libcrt_common.a(lib_a-getenv.o)
 .note.GNU-stack
                0x0000000000000000        0x0 /home/jfb/nacl_sdk/pepper_42/toolchain/linux_x86_newlib/bin/../lib/gcc/x86_64-nacl/4.4.3/../../../../x86_64-nacl/lib/../lib32/libcrt_common.a(lib_a-getenv_r.o)
 .note.GNU-stack
                0x0000000000000000        0x0 /home/jfb/nacl_sdk/pepper_42/toolchain/linux_x86_newlib/bin/../lib/gcc/x86_64-nacl/4.4.3/../../../../x86_64-nacl/lib/../lib32/libcrt_common.a(lib_a-impure.o)
 .note.GNU-stack
                0x0000000000000000        0x0 /home/jfb/nacl_sdk/pepper_42/toolchain/linux_x86_newlib/bin/../lib/gcc/x86_64-nacl/4.4.3/../../../../x86_64-nacl/lib/../lib32/libcrt_common.a(lib_a-init.o)
 .note.GNU-stack
                0x0000000000000000        0x0 /home/jfb/nacl_sdk/pepper_42/toolchain/linux_x86_newlib/bin/../lib/gcc/x86_64-nacl/4.4.3/../../../../x86_64-nacl/lib/../lib32/libcrt_common.a(lib_a-putc.o)
 .note.GNU-stack
                0x0000000000000000        0x0 /home/jfb/nacl_sdk/pepper_42/toolchain/linux_x86_newlib/bin/../lib/gcc/x86_64-nacl/4.4.3/../../../../x86_64-nacl/lib/../lib32/libcrt_common.a(lib_a-snprintf.o)
 .note.GNU-stack
                0x0000000000000000        0x0 /home/jfb/nacl_sdk/pepper_42/toolchain/linux_x86_newlib/bin/../lib/gcc/x86_64-nacl/4.4.3/../../../../x86_64-nacl/lib/../lib32/libcrt_common.a(lib_a-sprintf.o)
 .note.GNU-stack
                0x0000000000000000        0x0 /home/jfb/nacl_sdk/pepper_42/toolchain/linux_x86_newlib/bin/../lib/gcc/x86_64-nacl/4.4.3/../../../../x86_64-nacl/lib/../lib32/libcrt_common.a(lib_a-strcpy.o)
 .note.GNU-stack
                0x0000000000000000        0x0 /home/jfb/nacl_sdk/pepper_42/toolchain/linux_x86_newlib/bin/../lib/gcc/x86_64-nacl/4.4.3/../../../../x86_64-nacl/lib/../lib32/libcrt_common.a(lib_a-strerror.o)
 .note.GNU-stack
                0x0000000000000000        0x0 /home/jfb/nacl_sdk/pepper_42/toolchain/linux_x86_newlib/bin/../lib/gcc/x86_64-nacl/4.4.3/../../../../x86_64-nacl/lib/../lib32/libcrt_common.a(lib_a-strncmp.o)
 .note.GNU-stack
                0x0000000000000000        0x0 /home/jfb/nacl_sdk/pepper_42/toolchain/linux_x86_newlib/bin/../lib/gcc/x86_64-nacl/4.4.3/../../../../x86_64-nacl/lib/../lib32/libcrt_common.a(lib_a-svfprintf.o)
 .note.GNU-stack
                0x0000000000000000        0x0 /home/jfb/nacl_sdk/pepper_42/toolchain/linux_x86_newlib/bin/../lib/gcc/x86_64-nacl/4.4.3/../../../../x86_64-nacl/lib/../lib32/libcrt_common.a(lib_a-u_strerr.o)
 .note.GNU-stack
                0x0000000000000000        0x0 /home/jfb/nacl_sdk/pepper_42/toolchain/linux_x86_newlib/bin/../lib/gcc/x86_64-nacl/4.4.3/../../../../x86_64-nacl/lib/../lib32/libcrt_common.a(lib_a-vfprintf.o)
 .note.GNU-stack
                0x0000000000000000        0x0 /home/jfb/nacl_sdk/pepper_42/toolchain/linux_x86_newlib/bin/../lib/gcc/x86_64-nacl/4.4.3/../../../../x86_64-nacl/lib/../lib32/libcrt_common.a(lib_a-wbuf.o)
 .note.GNU-stack
                0x0000000000000000        0x0 /home/jfb/nacl_sdk/pepper_42/toolchain/linux_x86_newlib/bin/../lib/gcc/x86_64-nacl/4.4.3/../../../../x86_64-nacl/lib/../lib32/libcrt_common.a(lib_a-wcrtomb.o)
 .note.GNU-stack
                0x0000000000000000        0x0 /home/jfb/nacl_sdk/pepper_42/toolchain/linux_x86_newlib/bin/../lib/gcc/x86_64-nacl/4.4.3/../../../../x86_64-nacl/lib/../lib32/libcrt_common.a(lib_a-wcsrtombs.o)
 .note.GNU-stack
                0x0000000000000000        0x0 /home/jfb/nacl_sdk/pepper_42/toolchain/linux_x86_newlib/bin/../lib/gcc/x86_64-nacl/4.4.3/../../../../x86_64-nacl/lib/../lib32/libcrt_common.a(lib_a-wctomb_r.o)
 .note.GNU-stack
                0x0000000000000000        0x0 /home/jfb/nacl_sdk/pepper_42/toolchain/linux_x86_newlib/bin/../lib/gcc/x86_64-nacl/4.4.3/../../../../x86_64-nacl/lib/../lib32/libcrt_common.a(lib_a-wsetup.o)
 .note.GNU-stack
                0x0000000000000000        0x0 /home/jfb/nacl_sdk/pepper_42/toolchain/linux_x86_newlib/bin/../lib/gcc/x86_64-nacl/4.4.3/../../../../x86_64-nacl/lib/../lib32/libcrt_common.a(lib_a-__atexit.o)
 .note.GNU-stack
                0x0000000000000000        0x0 /home/jfb/nacl_sdk/pepper_42/toolchain/linux_x86_newlib/bin/../lib/gcc/x86_64-nacl/4.4.3/../../../../x86_64-nacl/lib/../lib32/libcrt_common.a(lib_a-__call_atexit.o)
 .note.GNU-stack
                0x0000000000000000        0x0 /home/jfb/nacl_sdk/pepper_42/toolchain/linux_x86_newlib/bin/../lib/gcc/x86_64-nacl/4.4.3/../../../../x86_64-nacl/lib/../lib32/libcrt_common.a(lib_a-dtoa.o)
 .note.GNU-stack
                0x0000000000000000        0x0 /home/jfb/nacl_sdk/pepper_42/toolchain/linux_x86_newlib/bin/../lib/gcc/x86_64-nacl/4.4.3/../../../../x86_64-nacl/lib/../lib32/libcrt_common.a(lib_a-envlock.o)
 .note.GNU-stack
                0x0000000000000000        0x0 /home/jfb/nacl_sdk/pepper_42/toolchain/linux_x86_newlib/bin/../lib/gcc/x86_64-nacl/4.4.3/../../../../x86_64-nacl/lib/../lib32/libcrt_common.a(lib_a-fflush.o)
 .note.GNU-stack
                0x0000000000000000        0x0 /home/jfb/nacl_sdk/pepper_42/toolchain/linux_x86_newlib/bin/../lib/gcc/x86_64-nacl/4.4.3/../../../../x86_64-nacl/lib/../lib32/libcrt_common.a(lib_a-findfp.o)
 .note.GNU-stack
                0x0000000000000000        0x0 /home/jfb/nacl_sdk/pepper_42/toolchain/linux_x86_newlib/bin/../lib/gcc/x86_64-nacl/4.4.3/../../../../x86_64-nacl/lib/../lib32/libcrt_common.a(lib_a-fwalk.o)
 .note.GNU-stack
                0x0000000000000000        0x0 /home/jfb/nacl_sdk/pepper_42/toolchain/linux_x86_newlib/bin/../lib/gcc/x86_64-nacl/4.4.3/../../../../x86_64-nacl/lib/../lib32/libcrt_common.a(lib_a-locale.o)
 .note.GNU-stack
                0x0000000000000000        0x0 /home/jfb/nacl_sdk/pepper_42/toolchain/linux_x86_newlib/bin/../lib/gcc/x86_64-nacl/4.4.3/../../../../x86_64-nacl/lib/../lib32/libcrt_common.a(lib_a-makebuf.o)
 .note.GNU-stack
                0x0000000000000000        0x0 /home/jfb/nacl_sdk/pepper_42/toolchain/linux_x86_newlib/bin/../lib/gcc/x86_64-nacl/4.4.3/../../../../x86_64-nacl/lib/../lib32/libcrt_common.a(lib_a-mbtowc_r.o)
 .note.GNU-stack
                0x0000000000000000        0x0 /home/jfb/nacl_sdk/pepper_42/toolchain/linux_x86_newlib/bin/../lib/gcc/x86_64-nacl/4.4.3/../../../../x86_64-nacl/lib/../lib32/libcrt_common.a(lib_a-mprec.o)
 .note.GNU-stack
                0x0000000000000000        0x0 /home/jfb/nacl_sdk/pepper_42/toolchain/linux_x86_newlib/bin/../lib/gcc/x86_64-nacl/4.4.3/../../../../x86_64-nacl/lib/../lib32/libcrt_common.a(lib_a-s_fpclassify.o)
 .note.GNU-stack
                0x0000000000000000        0x0 /home/jfb/nacl_sdk/pepper_42/toolchain/linux_x86_newlib/bin/../lib/gcc/x86_64-nacl/4.4.3/../../../../x86_64-nacl/lib/../lib32/libcrt_common.a(lib_a-s_frexp.o)
 .note.GNU-stack
                0x0000000000000000        0x0 /home/jfb/nacl_sdk/pepper_42/toolchain/linux_x86_newlib/bin/../lib/gcc/x86_64-nacl/4.4.3/../../../../x86_64-nacl/lib/../lib32/libcrt_common.a(lib_a-stdio.o)
 .note.GNU-stack
                0x0000000000000000        0x0 /home/jfb/nacl_sdk/pepper_42/toolchain/linux_x86_newlib/bin/../lib/gcc/x86_64-nacl/4.4.3/../../../../x86_64-nacl/lib/../lib32/libcrt_common.a(lib_a-strcasecmp.o)
 .note.GNU-stack
                0x0000000000000000        0x0 /home/jfb/nacl_sdk/pepper_42/toolchain/linux_x86_newlib/bin/../lib/gcc/x86_64-nacl/4.4.3/../../../../x86_64-nacl/lib/../lib32/libcrt_common.a(lib_a-strcat.o)
 .note.GNU-stack
                0x0000000000000000        0x0 /home/jfb/nacl_sdk/pepper_42/toolchain/linux_x86_newlib/bin/../lib/gcc/x86_64-nacl/4.4.3/../../../../x86_64-nacl/lib/../lib32/libcrt_common.a(lib_a-strcmp.o)
 .note.GNU-stack
                0x0000000000000000        0x0 /home/jfb/nacl_sdk/pepper_42/toolchain/linux_x86_newlib/bin/../lib/gcc/x86_64-nacl/4.4.3/../../../../x86_64-nacl/lib/../lib32/libcrt_common.a(lib_a-strlcpy.o)
 .note.GNU-stack
                0x0000000000000000        0x0 /home/jfb/nacl_sdk/pepper_42/toolchain/linux_x86_newlib/bin/../lib/gcc/x86_64-nacl/4.4.3/../../../../x86_64-nacl/lib/../lib32/libcrt_common.a(lib_a-strncasecmp.o)
 .note.GNU-stack
                0x0000000000000000        0x0 /home/jfb/nacl_sdk/pepper_42/toolchain/linux_x86_newlib/bin/../lib/gcc/x86_64-nacl/4.4.3/../../../../x86_64-nacl/lib/../lib32/libcrt_common.a(lib_a-strncpy.o)
 .note.GNU-stack
                0x0000000000000000        0x0 /home/jfb/nacl_sdk/pepper_42/toolchain/linux_x86_newlib/bin/../lib/gcc/x86_64-nacl/4.4.3/../../../../x86_64-nacl/lib/../lib32/libcrt_common.a(lib_a-strtol.o)
 .note.GNU-stack
                0x0000000000000000        0x0 /home/jfb/nacl_sdk/pepper_42/toolchain/linux_x86_newlib/bin/../lib/gcc/x86_64-nacl/4.4.3/../../../../x86_64-nacl/lib/../lib32/libcrt_common.a(lib_a-svfiprintf.o)
 .note.GNU-stack
                0x0000000000000000        0x0 /home/jfb/nacl_sdk/pepper_42/toolchain/linux_x86_newlib/bin/../lib/gcc/x86_64-nacl/4.4.3/../../../../x86_64-nacl/lib/../lib32/libcrt_common.a(lib_a-vfiprintf.o)
 .note.GNU-stack
                0x0000000000000000        0x0 /home/jfb/nacl_sdk/pepper_42/toolchain/linux_x86_newlib/bin/../lib/gcc/x86_64-nacl/4.4.3/../../../../x86_64-nacl/lib/../lib32/libcrt_common.a(lib_a-wcsnrtombs.o)
 .note.GNU-stack
                0x0000000000000000        0x0 /home/jfb/nacl_sdk/pepper_42/toolchain/linux_x86_newlib/bin/../lib/gcc/x86_64-nacl/4.4.3/../../../../x86_64-nacl/lib/../lib32/libcrt_common.a(lib_a-ctype_.o)
 .note.GNU-stack
                0x0000000000000000        0x0 /home/jfb/nacl_sdk/pepper_42/toolchain/linux_x86_newlib/bin/../lib/gcc/x86_64-nacl/4.4.3/../../../../x86_64-nacl/lib/../lib32/libcrt_common.a(lib_a-fclose.o)
 .note.GNU-stack
                0x0000000000000000        0x0 /home/jfb/nacl_sdk/pepper_42/toolchain/linux_x86_newlib/bin/../lib/gcc/x86_64-nacl/4.4.3/../../../../x86_64-nacl/lib/../lib32/libcrt_common.a(lib_a-fputwc.o)
 .note.GNU-stack
                0x0000000000000000        0x0 /home/jfb/nacl_sdk/pepper_42/toolchain/linux_x86_newlib/bin/../lib/gcc/x86_64-nacl/4.4.3/../../../../x86_64-nacl/lib/../lib32/libnacl.a(close_e9b92fbd.o)
 .note.GNU-stack
                0x0000000000000000        0x0 /home/jfb/nacl_sdk/pepper_42/toolchain/linux_x86_newlib/bin/../lib/gcc/x86_64-nacl/4.4.3/../../../../x86_64-nacl/lib/../lib32/libnacl.a(isatty_02f56e94.o)
 .note.GNU-stack
                0x0000000000000000        0x0 /home/jfb/nacl_sdk/pepper_42/toolchain/linux_x86_newlib/bin/../lib/gcc/x86_64-nacl/4.4.3/../../../../x86_64-nacl/lib/../lib32/libnacl.a(nacl_irt_fdio_b571b5e7.o)
 .note.GNU-stack
                0x0000000000000000        0x0 /home/jfb/nacl_sdk/pepper_42/toolchain/linux_x86_newlib/bin/../lib/gcc/x86_64-nacl/4.4.3/../../../../x86_64-nacl/lib/../lib32/libnacl.a(fstat_0540ff63.o)
 .note.GNU-stack
                0x0000000000000000        0x0 /home/jfb/nacl_sdk/pepper_42/toolchain/linux_x86_newlib/bin/../lib/gcc/x86_64-nacl/4.4.3/../../../../x86_64-nacl/lib/../lib32/libnacl.a(lseek_64d2d05c.o)
 .note.GNU-stack
                0x0000000000000000        0x0 /home/jfb/nacl_sdk/pepper_42/toolchain/linux_x86_newlib/bin/../lib/gcc/x86_64-nacl/4.4.3/../../../../x86_64-nacl/lib/../lib32/libnacl.a(read_df872e10.o)
 .note.GNU-stack
                0x0000000000000000        0x0 /home/jfb/nacl_sdk/pepper_42/toolchain/linux_x86_newlib/bin/../lib/gcc/x86_64-nacl/4.4.3/32/libgcc.a(_udivdi3.o)
 .note.GNU-stack
                0x0000000000000000        0x0 /home/jfb/nacl_sdk/pepper_42/toolchain/linux_x86_newlib/bin/../lib/gcc/x86_64-nacl/4.4.3/32/libgcc.a(_umoddi3.o)
 .note.GNU-stack
                0x0000000000000000        0x0 /home/jfb/nacl_sdk/pepper_42/toolchain/linux_x86_newlib/bin/../lib/gcc/x86_64-nacl/4.4.3/32/crtend.o

Memory Configuration

Name             Origin             Length             Attributes
*default*        0x0000000000000000 0xffffffffffffffff

Linker script and memory map

LOAD /home/jfb/nacl_sdk/pepper_42/toolchain/linux_x86_newlib/bin/../lib/gcc/x86_64-nacl/4.4.3/../../../../x86_64-nacl/lib/../lib32/crt1.o
LOAD /home/jfb/nacl_sdk/pepper_42/toolchain/linux_x86_newlib/bin/../lib/gcc/x86_64-nacl/4.4.3/../../../../x86_64-nacl/lib/../lib32/crti.o
LOAD /home/jfb/nacl_sdk/pepper_42/toolchain/linux_x86_newlib/bin/../lib/gcc/x86_64-nacl/4.4.3/32/crtbegin.o
LOAD newlib/Release/multi_platform_x86_32.o
LOAD /home/jfb/nacl_sdk/pepper_42//lib/newlib_x86_32/Release/libppapi_cpp.a
LOAD /home/jfb/nacl_sdk/pepper_42/toolchain/linux_x86_newlib/bin/../lib/gcc/x86_64-nacl/4.4.3/../../../../x86_64-nacl/lib/../lib32/libppapi.a
LOAD /home/jfb/nacl_sdk/pepper_42/toolchain/linux_x86_newlib/bin/../lib/gcc/x86_64-nacl/4.4.3/../../../../x86_64-nacl/lib/../lib32/libppapi_stub.a
LOAD /home/jfb/nacl_sdk/pepper_42/toolchain/linux_x86_newlib/bin/../lib/gcc/x86_64-nacl/4.4.3/../../../../x86_64-nacl/lib/../lib32/libpthread.a
LOAD /home/jfb/nacl_sdk/pepper_42/toolchain/linux_x86_newlib/bin/../lib/gcc/x86_64-nacl/4.4.3/../../../../x86_64-nacl/lib/../lib32/libstdc++.a
LOAD /home/jfb/nacl_sdk/pepper_42/toolchain/linux_x86_newlib/bin/../lib/gcc/x86_64-nacl/4.4.3/../../../../x86_64-nacl/lib/../lib32/libm.a
LOAD /home/jfb/nacl_sdk/pepper_42/toolchain/linux_x86_newlib/bin/../lib/gcc/x86_64-nacl/4.4.3/32/libgcc.a
LOAD /home/jfb/nacl_sdk/pepper_42/toolchain/linux_x86_newlib/bin/../lib/gcc/x86_64-nacl/4.4.3/../../../../x86_64-nacl/lib/../lib32/libpthread.a
LOAD /home/jfb/nacl_sdk/pepper_42/toolchain/linux_x86_newlib/bin/../lib/gcc/x86_64-nacl/4.4.3/../../../../x86_64-nacl/lib/../lib32/libc.a
START GROUP
LOAD /home/jfb/nacl_sdk/pepper_42/toolchain/linux_x86_newlib/bin/../lib/gcc/x86_64-nacl/4.4.3/../../../../x86_64-nacl/lib/../lib32/libnacl.a
LOAD /home/jfb/nacl_sdk/pepper_42/toolchain/linux_x86_newlib/bin/../lib/gcc/x86_64-nacl/4.4.3/../../../../x86_64-nacl/lib/../lib32/libcrt_common.a
END GROUP
LOAD /home/jfb/nacl_sdk/pepper_42/toolchain/linux_x86_newlib/bin/../lib/gcc/x86_64-nacl/4.4.3/32/libgcc.a
LOAD /home/jfb/nacl_sdk/pepper_42/toolchain/linux_x86_newlib/bin/../lib/gcc/x86_64-nacl/4.4.3/32/crtend.o
LOAD /home/jfb/nacl_sdk/pepper_42/toolchain/linux_x86_newlib/bin/../lib/gcc/x86_64-nacl/4.4.3/../../../../x86_64-nacl/lib/../lib32/crtn.o
                0x0000000000020000                PROVIDE (__executable_start, 0x20000)
                0x0000000000020000                . = 0x20000

.init           0x0000000000020000       0x80
 *(SORT(.init))
 .init          0x0000000000020000       0x20 /home/jfb/nacl_sdk/pepper_42/toolchain/linux_x86_newlib/bin/../lib/gcc/x86_64-nacl/4.4.3/../../../../x86_64-nacl/lib/../lib32/crti.o
                0x0000000000020000                _init
 .init          0x0000000000020020       0x20 /home/jfb/nacl_sdk/pepper_42/toolchain/linux_x86_newlib/bin/../lib/gcc/x86_64-nacl/4.4.3/32/crtbegin.o
 .init          0x0000000000020040       0x20 /home/jfb/nacl_sdk/pepper_42/toolchain/linux_x86_newlib/bin/../lib/gcc/x86_64-nacl/4.4.3/32/crtend.o
 .init          0x0000000000020060       0x20 /home/jfb/nacl_sdk/pepper_42/toolchain/linux_x86_newlib/bin/../lib/gcc/x86_64-nacl/4.4.3/../../../../x86_64-nacl/lib/../lib32/crtn.o

.plt            0x0000000000020080        0x0
 *(.plt)
 *(.iplt)
 .iplt          0x0000000000000000        0x0 /home/jfb/nacl_sdk/pepper_42/toolchain/linux_x86_newlib/bin/../lib/gcc/x86_64-nacl/4.4.3/32/crtbegin.o

.text           0x0000000000020080    0x60b80
 *(.text.unlikely .text.*_unlikely .text.unlikely.*)
 *(.text.exit .text.exit.*)
 *(.text.startup .text.startup.*)
 *(.text.hot .text.hot.*)
 *(.text .stub .text.* .gnu.linkonce.t.*)
 .text          0x0000000000020080        0x0 /home/jfb/nacl_sdk/pepper_42/toolchain/linux_x86_newlib/bin/../lib/gcc/x86_64-nacl/4.4.3/../../../../x86_64-nacl/lib/../lib32/crti.o
 .text          0x0000000000020080      0x160 /home/jfb/nacl_sdk/pepper_42/toolchain/linux_x86_newlib/bin/../lib/gcc/x86_64-nacl/4.4.3/32/crtbegin.o
 .text          0x00000000000201e0       0xa0 newlib/Release/multi_platform_x86_32.o
                0x00000000000201e0                _ZN2pp12CreateModuleEv
 .text._ZN6Module14CreateInstanceEi
                0x0000000000020280       0xa0 newlib/Release/multi_platform_x86_32.o
                0x0000000000020280                _ZN6Module14CreateInstanceEi
 .text._ZN8Instance4InitEjPPKcS2_
                0x0000000000020320       0xc0 newlib/Release/multi_platform_x86_32.o
                0x0000000000020320                _ZN8Instance4InitEjPPKcS2_
 .text._ZN8InstanceD0Ev
                0x00000000000203e0       0x40 newlib/Release/multi_platform_x86_32.o
                0x00000000000203e0                _ZN8InstanceD0Ev
 .text._ZN8InstanceD1Ev
                0x0000000000020420       0x20 newlib/Release/multi_platform_x86_32.o
                0x0000000000020420                _ZN8InstanceD1Ev
 .text._ZN6ModuleD0Ev
                0x0000000000020440       0x40 newlib/Release/multi_platform_x86_32.o
                0x0000000000020440                _ZN6ModuleD0Ev
 .text._ZN6ModuleD1Ev
                0x0000000000020480       0x20 newlib/Release/multi_platform_x86_32.o
                0x0000000000020480                _ZN6ModuleD1Ev
 .text          0x00000000000204a0     0x2d60 /home/jfb/nacl_sdk/pepper_42//lib/newlib_x86_32/Release/libppapi_cpp.a(instance_x86_32.o)
                0x00000000000204c0                _ZN2pp8InstanceC2Ei
                0x0000000000020500                _ZN2pp8InstanceC1Ei
                0x0000000000020540                _ZN2pp8Instance4InitEjPPKcS3_
                0x0000000000020560                _ZN2pp8Instance13DidChangeViewERKNS_4RectES3_
                0x0000000000020580                _ZN2pp8Instance14DidChangeFocusEb
                0x00000000000205a0                _ZN2pp8Instance18HandleDocumentLoadERKNS_9URLLoaderE
                0x00000000000205c0                _ZN2pp8Instance16HandleInputEventERKNS_10InputEventE
                0x00000000000205e0                _ZN2pp8Instance13HandleMessageERKNS_3VarE
                0x0000000000020880                _ZN2pp8Instance13DidChangeViewERKNS_4ViewE
                0x0000000000020960                _ZN2pp8InstanceD0Ev
                0x00000000000209e0                _ZN2pp8InstanceD1Ev
                0x0000000000020a60                _ZN2pp8InstanceD2Ev
                0x0000000000020ae0                _ZN2pp8Instance20GetPerInstanceObjectEiRKSs
                0x0000000000020c80                _ZN2pp8Instance23RemovePerInstanceObjectERKSsPv
                0x0000000000020ea0                _ZN2pp8Instance23RemovePerInstanceObjectERKNS_14InstanceHandleERKSsPv
                0x0000000000020f20                _ZN2pp8Instance22LogToConsoleWithSourceE11PP_LogLevelRKNS_3VarES4_
                0x00000000000211e0                _ZN2pp8Instance12LogToConsoleE11PP_LogLevelRKNS_3VarE
                0x0000000000021440                _ZN2pp8Instance20AddPerInstanceObjectERKSsPv
                0x00000000000216c0                _ZN2pp8Instance22ClearInputEventRequestEj
                0x0000000000021920                _ZN2pp8Instance22RegisterMessageHandlerEPNS_14MessageHandlerERKNS_11MessageLoopE
                0x0000000000021b80                _ZN2pp8Instance27RequestFilteringInputEventsEj
                0x0000000000021de0                _ZN2pp8Instance18RequestInputEventsEj
                0x0000000000022040                _ZN2pp8Instance24UnregisterMessageHandlerEv
                0x00000000000222a0                _ZN2pp8Instance12BindGraphicsERKNS_10Graphics2DE
                0x0000000000022540                _ZN2pp8Instance11IsFullFrameEv
                0x00000000000227e0                _ZN2pp8Instance12BindGraphicsERKNS_10CompositorE
                0x0000000000022a80                _ZN2pp8Instance12BindGraphicsERKNS_10Graphics3DE
                0x0000000000022d20                _ZN2pp8Instance11PostMessageERKNS_3VarE
 .text._ZNSt8_Rb_treeISsSt4pairIKSsPvESt10_Select1stIS3_ESt4lessISsESaIS3_EE8_M_eraseEPSt13_Rb_tree_nodeIS3_E
                0x0000000000023200      0x140 /home/jfb/nacl_sdk/pepper_42//lib/newlib_x86_32/Release/libppapi_cpp.a(instance_x86_32.o)
                0x0000000000023200                _ZNSt8_Rb_treeISsSt4pairIKSsPvESt10_Select1stIS3_ESt4lessISsESaIS3_EE8_M_eraseEPSt13_Rb_tree_nodeIS3_E
 .text._ZNSt8_Rb_treeISsSt4pairIKSsPvESt10_Select1stIS3_ESt4lessISsESaIS3_EE10_M_insert_EPKSt18_Rb_tree_node_baseSC_RKS3_
                0x0000000000023340      0x1e0 /home/jfb/nacl_sdk/pepper_42//lib/newlib_x86_32/Release/libppapi_cpp.a(instance_x86_32.o)
                0x0000000000023340                _ZNSt8_Rb_treeISsSt4pairIKSsPvESt10_Select1stIS3_ESt4lessISsESaIS3_EE10_M_insert_EPKSt18_Rb_tree_node_baseSC_RKS3_
 .text._ZNSt8_Rb_treeISsSt4pairIKSsPvESt10_Select1stIS3_ESt4lessISsESaIS3_EE16_M_insert_uniqueERKS3_
                0x0000000000023520      0x260 /home/jfb/nacl_sdk/pepper_42//lib/newlib_x86_32/Release/libppapi_cpp.a(instance_x86_32.o)
                0x0000000000023520                _ZNSt8_Rb_treeISsSt4pairIKSsPvESt10_Select1stIS3_ESt4lessISsESaIS3_EE16_M_insert_uniqueERKS3_
 .text._ZNSt8_Rb_treeISsSt4pairIKSsPvESt10_Select1stIS3_ESt4lessISsESaIS3_EE17_M_insert_unique_ESt23_Rb_tree_const_iteratorIS3_ERKS3_
                0x0000000000023780      0x400 /home/jfb/nacl_sdk/pepper_42//lib/newlib_x86_32/Release/libppapi_cpp.a(instance_x86_32.o)
                0x0000000000023780                _ZNSt8_Rb_treeISsSt4pairIKSsPvESt10_Select1stIS3_ESt4lessISsESaIS3_EE17_M_insert_unique_ESt23_Rb_tree_const_iteratorIS3_ERKS3_
 .text          0x0000000000023b80     0x1540 /home/jfb/nacl_sdk/pepper_42//lib/newlib_x86_32/Release/libppapi_cpp.a(module_x86_32.o)
                0x0000000000023b80                _ZN2pp6ModuleC2Ev
                0x0000000000023c00                _ZN2pp6ModuleC1Ev
                0x0000000000023c80                _ZN2pp6Module4InitEv
                0x0000000000023ca0                _ZN2pp6Module19GetBrowserInterfaceEPKc
                0x0000000000023cc0                _ZN2pp6Module21InstanceForPPInstanceEi
                0x0000000000023da0                _ZN2pp6Module12InternalInitEiPFPKvPKcE
                0x0000000000023e40                _ZN2pp23Instance_DidChangeFocusEi7PP_Bool
                0x0000000000023f40                _ZN2pp18Instance_DidCreateEijPPKcS2_
                0x0000000000024100                _ZN2pp23Messaging_HandleMessageEi6PP_Var
                0x00000000000242a0                _ZN2pp19Instance_DidDestroyEi
                0x00000000000243c0                _ZN2pp22InputEvent_HandleEventEii
                0x0000000000024560                _ZN2pp27Instance_HandleDocumentLoadEii
                0x0000000000024700                _ZN2pp22Instance_DidChangeViewEii
                0x0000000000024880                _ZN2pp6ModuleD1Ev
                0x0000000000024980                _ZN2pp6Module18GetPluginInterfaceEPKc
                0x0000000000024c80                _ZN2pp6Module18AddPluginInterfaceERKSsPKv
                0x0000000000024ec0                _ZN2pp6ModuleD0Ev
                0x0000000000024fc0                _ZN2pp6ModuleD2Ev
 .text._ZNSt8_Rb_treeIiSt4pairIKiPN2pp8InstanceEESt10_Select1stIS5_ESt4lessIiESaIS5_EE8_M_eraseEPSt13_Rb_tree_nodeIS5_E
                0x00000000000250c0       0xa0 /home/jfb/nacl_sdk/pepper_42//lib/newlib_x86_32/Release/libppapi_cpp.a(module_x86_32.o)
                0x00000000000250c0                _ZNSt8_Rb_treeIiSt4pairIKiPN2pp8InstanceEESt10_Select1stIS5_ESt4lessIiESaIS5_EE8_M_eraseEPSt13_Rb_tree_nodeIS5_E
 .text._ZNSt8_Rb_treeIiSt4pairIKiPN2pp8InstanceEESt10_Select1stIS5_ESt4lessIiESaIS5_EE10_M_insert_EPKSt18_Rb_tree_node_baseSE_RKS5_
                0x0000000000025160      0x120 /home/jfb/nacl_sdk/pepper_42//lib/newlib_x86_32/Release/libppapi_cpp.a(module_x86_32.o)
                0x0000000000025160                _ZNSt8_Rb_treeIiSt4pairIKiPN2pp8InstanceEESt10_Select1stIS5_ESt4lessIiESaIS5_EE10_M_insert_EPKSt18_Rb_tree_node_baseSE_RKS5_
 .text._ZNSt8_Rb_treeIiSt4pairIKiPN2pp8InstanceEESt10_Select1stIS5_ESt4lessIiESaIS5_EE16_M_insert_uniqueERKS5_
                0x0000000000025280      0x1a0 /home/jfb/nacl_sdk/pepper_42//lib/newlib_x86_32/Release/libppapi_cpp.a(module_x86_32.o)
                0x0000000000025280                _ZNSt8_Rb_treeIiSt4pairIKiPN2pp8InstanceEESt10_Select1stIS5_ESt4lessIiESaIS5_EE16_M_insert_uniqueERKS5_
 .text._ZNSt8_Rb_treeIiSt4pairIKiPN2pp8InstanceEESt10_Select1stIS5_ESt4lessIiESaIS5_EE17_M_insert_unique_ESt23_Rb_tree_const_iteratorIS5_ERKS5_
                0x0000000000025420      0x260 /home/jfb/nacl_sdk/pepper_42//lib/newlib_x86_32/Release/libppapi_cpp.a(module_x86_32.o)
                0x0000000000025420                _ZNSt8_Rb_treeIiSt4pairIKiPN2pp8InstanceEESt10_Select1stIS5_ESt4lessIiESaIS5_EE17_M_insert_unique_ESt23_Rb_tree_const_iteratorIS5_ERKS5_
 .text._ZN2pp9URLLoaderD1Ev
                0x0000000000025680       0x20 /home/jfb/nacl_sdk/pepper_42//lib/newlib_x86_32/Release/libppapi_cpp.a(module_x86_32.o)
                0x0000000000025680                _ZN2pp9URLLoaderD1Ev
 .text._ZN2pp9URLLoaderD0Ev
                0x00000000000256a0       0x40 /home/jfb/nacl_sdk/pepper_42//lib/newlib_x86_32/Release/libppapi_cpp.a(module_x86_32.o)
                0x00000000000256a0                _ZN2pp9URLLoaderD0Ev
 .text._ZN2pp4ViewD1Ev
                0x00000000000256e0       0x20 /home/jfb/nacl_sdk/pepper_42//lib/newlib_x86_32/Release/libppapi_cpp.a(module_x86_32.o)
                0x00000000000256e0                _ZN2pp4ViewD1Ev
 .text._ZN2pp4ViewD0Ev
                0x0000000000025700       0x40 /home/jfb/nacl_sdk/pepper_42//lib/newlib_x86_32/Release/libppapi_cpp.a(module_x86_32.o)
                0x0000000000025700                _ZN2pp4ViewD0Ev
 .text._ZNSt8_Rb_treeISsSt4pairIKSsPKvESt10_Select1stIS4_ESt4lessISsESaIS4_EE8_M_eraseEPSt13_Rb_tree_nodeIS4_E
                0x0000000000025740      0x140 /home/jfb/nacl_sdk/pepper_42//lib/newlib_x86_32/Release/libppapi_cpp.a(module_x86_32.o)
                0x0000000000025740                _ZNSt8_Rb_treeISsSt4pairIKSsPKvESt10_Select1stIS4_ESt4lessISsESaIS4_EE8_M_eraseEPSt13_Rb_tree_nodeIS4_E
 .text._ZNSt8_Rb_treeISsSt4pairIKSsPKvESt10_Select1stIS4_ESt4lessISsESaIS4_EE10_M_insert_EPKSt18_Rb_tree_node_baseSD_RKS4_
                0x0000000000025880      0x1e0 /home/jfb/nacl_sdk/pepper_42//lib/newlib_x86_32/Release/libppapi_cpp.a(module_x86_32.o)
                0x0000000000025880                _ZNSt8_Rb_treeISsSt4pairIKSsPKvESt10_Select1stIS4_ESt4lessISsESaIS4_EE10_M_insert_EPKSt18_Rb_tree_node_baseSD_RKS4_
 .text._ZNSt8_Rb_treeISsSt4pairIKSsPKvESt10_Select1stIS4_ESt4lessISsESaIS4_EE16_M_insert_uniqueERKS4_
                0x0000000000025a60      0x260 /home/jfb/nacl_sdk/pepper_42//lib/newlib_x86_32/Release/libppapi_cpp.a(module_x86_32.o)
                0x0000000000025a60                _ZNSt8_Rb_treeISsSt4pairIKSsPKvESt10_Select1stIS4_ESt4lessISsESaIS4_EE16_M_insert_uniqueERKS4_
 .text._ZNSt8_Rb_treeISsSt4pairIKSsPKvESt10_Select1stIS4_ESt4lessISsESaIS4_EE17_M_insert_unique_ESt23_Rb_tree_const_iteratorIS4_ERKS4_
                0x0000000000025cc0      0x400 /home/jfb/nacl_sdk/pepper_42//lib/newlib_x86_32/Release/libppapi_cpp.a(module_x86_32.o)
                0x0000000000025cc0                _ZNSt8_Rb_treeISsSt4pairIKSsPKvESt10_Select1stIS4_ESt4lessISsESaIS4_EE17_M_insert_unique_ESt23_Rb_tree_const_iteratorIS4_ERKS4_
 .text          0x00000000000260c0      0x1c0 /home/jfb/nacl_sdk/pepper_42//lib/newlib_x86_32/Release/libppapi_cpp.a(ppp_entrypoints_x86_32.o)
                0x00000000000260c0                _ZN2pp6Module3GetEv
                0x00000000000260e0                _ZN2pp25SetBrokerGetInterfaceFuncEPFPKvPKcE
                0x0000000000026100                PPP_ShutdownModule
                0x0000000000026140                PPP_GetInterface
                0x00000000000261a0                PPP_InitializeModule
 .text          0x0000000000026280      0x5a0 /home/jfb/nacl_sdk/pepper_42//lib/newlib_x86_32/Release/libppapi_cpp.a(resource_x86_32.o)
                0x0000000000026280                _ZN2pp8ResourceC2Ev
                0x00000000000262a0                _ZN2pp8ResourceC1Ev
                0x00000000000262c0                _ZN2pp8Resource6detachEv
                0x00000000000262e0                _ZN2pp8ResourceC2ENS_7PassRefEi
                0x0000000000026300                _ZN2pp8ResourceC1ENS_7PassRefEi
                0x0000000000026320                _ZN2pp8Resource22PassRefFromConstructorEi
                0x0000000000026340                _ZN2pp8Resource5ClearEv
                0x00000000000263c0                _ZN2pp8ResourceC1Ei
                0x0000000000026440                _ZN2pp8ResourceC2Ei
                0x00000000000264c0                _ZN2pp8ResourceaSERKS0_
                0x00000000000265a0                _ZN2pp8ResourceC1ERKS0_
                0x0000000000026620                _ZN2pp8ResourceC2ERKS0_
                0x00000000000266a0                _ZN2pp8ResourceD1Ev
                0x0000000000026720                _ZN2pp8ResourceD2Ev
                0x00000000000267a0                _ZN2pp8ResourceD0Ev
 .text          0x0000000000026820     0x1e20 /home/jfb/nacl_sdk/pepper_42//lib/newlib_x86_32/Release/libppapi_cpp.a(url_loader_x86_32.o)
                0x0000000000026820                _ZN2pp9URLLoaderC1ERKS0_
                0x0000000000026860                _ZN2pp9URLLoaderC2ERKS0_
                0x00000000000268a0                _ZN2pp9URLLoaderC1Ei
                0x00000000000268e0                _ZN2pp9URLLoaderC2Ei
                0x0000000000026920                _ZN2pp9URLLoader16ReadResponseBodyEPviRKNS_18CompletionCallbackE
                0x0000000000026c40                _ZN2pp9URLLoader14FollowRedirectERKNS_18CompletionCallbackE
                0x0000000000026f60                _ZN2pp9URLLoaderC1ERKNS_14InstanceHandleE
                0x0000000000027280                _ZNK2pp9URLLoader19GetDownloadProgressEPxS1_
                0x0000000000027520                _ZN2pp9URLLoader5CloseEv
                0x0000000000027780                _ZN2pp9URLLoaderC2ERKNS_14InstanceHandleE
                0x0000000000027aa0                _ZN2pp9URLLoader21FinishStreamingToFileERKNS_18CompletionCallbackE
                0x0000000000027dc0                _ZNK2pp9URLLoader15GetResponseInfoEv
                0x0000000000028080                _ZNK2pp9URLLoader17GetUploadProgressEPxS1_
                0x0000000000028320                _ZN2pp9URLLoader4OpenERKNS_14URLRequestInfoERKNS_18CompletionCallbackE
 .text._ZN2pp15URLResponseInfoD1Ev
                0x0000000000028640       0x20 /home/jfb/nacl_sdk/pepper_42//lib/newlib_x86_32/Release/libppapi_cpp.a(url_loader_x86_32.o)
                0x0000000000028640                _ZN2pp15URLResponseInfoD1Ev
 .text._ZN2pp15URLResponseInfoD0Ev
                0x0000000000028660       0x40 /home/jfb/nacl_sdk/pepper_42//lib/newlib_x86_32/Release/libppapi_cpp.a(url_loader_x86_32.o)
                0x0000000000028660                _ZN2pp15URLResponseInfoD0Ev
 .text          0x00000000000286a0      0x700 /home/jfb/nacl_sdk/pepper_42//lib/newlib_x86_32/Release/libppapi_cpp.a(url_response_info_x86_32.o)
                0x00000000000286a0                _ZN2pp15URLResponseInfoC1ENS_7PassRefEi
                0x0000000000028700                _ZN2pp15URLResponseInfoC2ENS_7PassRefEi
                0x0000000000028760                _ZN2pp15URLResponseInfoC1ERKS0_
                0x00000000000287a0                _ZN2pp15URLResponseInfoC2ERKS0_
                0x00000000000287e0                _ZNK2pp15URLResponseInfo16GetBodyAsFileRefEv
                0x0000000000028ac0                _ZNK2pp15URLResponseInfo11GetPropertyE22PP_URLResponseProperty
 .text._ZN2pp7FileRefD1Ev
                0x0000000000028da0       0x20 /home/jfb/nacl_sdk/pepper_42//lib/newlib_x86_32/Release/libppapi_cpp.a(url_response_info_x86_32.o)
                0x0000000000028da0                _ZN2pp7FileRefD1Ev
 .text._ZN2pp7FileRefD0Ev
                0x0000000000028dc0       0x40 /home/jfb/nacl_sdk/pepper_42//lib/newlib_x86_32/Release/libppapi_cpp.a(url_response_info_x86_32.o)
                0x0000000000028dc0                _ZN2pp7FileRefD0Ev
 .text          0x0000000000028e00     0x39a0 /home/jfb/nacl_sdk/pepper_42//lib/newlib_x86_32/Release/libppapi_cpp.a(var_x86_32.o)
                0x0000000000028e00                _ZN2pp3VarC2Eb
                0x0000000000028e40                _ZN2pp3VarC1Eb
                0x0000000000028e80                _ZN2pp3VarC2Ei
                0x0000000000028ec0                _ZN2pp3VarC1Ei
                0x0000000000028f00                _ZN2pp3VarC2Ed
                0x0000000000028f40                _ZN2pp3VarC1Ed
                0x0000000000028f80                _ZNK2pp3Var6AsBoolEv
                0x0000000000028fc0                _ZNK2pp3Var5AsIntEv
                0x0000000000029060                _ZNK2pp3Var8AsDoubleEv
                0x00000000000291e0                _ZN2pp3VarC1ENS0_4NullE
                0x0000000000029220                _ZN2pp3VarC2ENS0_4NullE
                0x0000000000029260                _ZN2pp3VarC1Ev
                0x00000000000292a0                _ZN2pp3VarC2Ev
                0x00000000000292e0                _ZNK2pp3Var8AsStringEv
                0x00000000000299e0                _ZNK2pp3Var11DebugStringEv
                0x0000000000029f20                _ZNK2pp3VareqERKS0_
                0x000000000002a380                _ZN2pp3VarC1ERKNS_8ResourceE
                0x000000000002a640                _ZN2pp3VarC2ERKNS_8ResourceE
                0x000000000002af60                _ZN2pp3VarC1ERKSs
                0x000000000002afc0                _ZN2pp3VarC2ERKSs
                0x000000000002b020                _ZN2pp3VarC1EPKc
                0x000000000002b0e0                _ZN2pp3VarC2EPKc
                0x000000000002b8e0                _ZN2pp3VarC1ERKS0_
                0x000000000002b980                _ZN2pp3VarC2ERKS0_
                0x000000000002ba20                _ZN2pp3VarC1ERK6PP_Var
                0x000000000002bac0                _ZN2pp3VarC2ERK6PP_Var
                0x000000000002c2a0                _ZN2pp3VaraSERKS0_
                0x000000000002c380                _ZN2pp3VarD0Ev
                0x000000000002c3e0                _ZN2pp3VarD1Ev
                0x000000000002c440                _ZN2pp3VarD2Ev
                0x000000000002c4a0                _ZNK2pp3Var10AsResourceEv
 .text          0x000000000002c7a0     0x2f80 /home/jfb/nacl_sdk/pepper_42//lib/newlib_x86_32/Release/libppapi_cpp.a(view_x86_32.o)
                0x000000000002c8c0                _ZN2pp4ViewC1Ei
                0x000000000002c900                _ZN2pp4ViewC2Ei
                0x000000000002c940                _ZN2pp4ViewC1Ev
                0x000000000002c980                _ZN2pp4ViewC2Ev
                0x000000000002c9c0                _ZNK2pp4View15GetScrollOffsetEv
                0x000000000002cc80                _ZNK2pp4View11GetClipRectEv
                0x000000000002d2c0                _ZNK2pp4View14GetDeviceScaleEv
                0x000000000002d720                _ZNK2pp4View11GetCSSScaleEv
                0x000000000002db80                _ZNK2pp4View7GetRectEv
                0x000000000002e1c0                _ZNK2pp4View13IsPageVisibleEv
                0x000000000002e8e0                _ZNK2pp4View9IsVisibleEv
                0x000000000002f000                _ZNK2pp4View12IsFullscreenEv
 .text          0x000000000002f720       0xc0 /home/jfb/nacl_sdk/pepper_42//lib/newlib_x86_32/Release/libppapi_cpp.a(core_x86_32.o)
                0x000000000002f720                _ZN2pp4Core16CallOnMainThreadEiRKNS_18CompletionCallbackEi
                0x000000000002f7a0                _ZN2pp4Core12IsMainThreadEv
 .text          0x000000000002f7e0     0x55a0 /home/jfb/nacl_sdk/pepper_42//lib/newlib_x86_32/Release/libppapi_cpp.a(file_ref_x86_32.o)
                0x000000000002f900                _ZN2pp7FileRefC1ERKS0_
                0x000000000002f940                _ZN2pp7FileRefC2ERKS0_
                0x000000000002f980                _ZN2pp7FileRefC1ENS_7PassRefEi
                0x000000000002f9e0                _ZN2pp7FileRefC2ENS_7PassRefEi
                0x000000000002fa40                _ZN2pp7FileRefC1Ei
                0x000000000002fa80                _ZN2pp7FileRefC2Ei
                0x000000000002fac0                _ZN2pp7FileRef13MakeDirectoryEiRKNS_18CompletionCallbackE
                0x0000000000030220                _ZN2pp7FileRef20ReadDirectoryEntriesERKNS_28CompletionCallbackWithOutputISt6vectorINS_14DirectoryEntryESaIS3_EEEE
                0x00000000000307a0                _ZN2pp7FileRef5QueryERKNS_28CompletionCallbackWithOutputI11PP_FileInfoEE
                0x0000000000030d20                _ZN2pp7FileRefC1ERKNS_10FileSystemEPKc
                0x0000000000031360                _ZNK2pp7FileRef17GetFileSystemTypeEv
                0x00000000000319c0                _ZN2pp7FileRef6RenameERKS0_RKNS_18CompletionCallbackE
                0x0000000000032160                _ZN2pp7FileRef6DeleteERKNS_18CompletionCallbackE
                0x0000000000032920                _ZN2pp7FileRef5TouchEddRKNS_18CompletionCallbackE
                0x0000000000033100                _ZNK2pp7FileRef7GetPathEv
                0x00000000000338c0                _ZNK2pp7FileRef7GetNameEv
                0x0000000000034080                _ZNK2pp7FileRef9GetParentEv
                0x0000000000034740                _ZN2pp7FileRefC2ERKNS_10FileSystemEPKc
 .text._ZNK2pp18CompletionCallback8MayForceEi
                0x0000000000034d80       0xc0 /home/jfb/nacl_sdk/pepper_42//lib/newlib_x86_32/Release/libppapi_cpp.a(file_ref_x86_32.o)
                0x0000000000034d80                _ZNK2pp18CompletionCallback8MayForceEi
 .text          0x0000000000034e40     0x93e0 /home/jfb/nacl_sdk/pepper_42//lib/newlib_x86_32/Release/libppapi_cpp.a(input_event_x86_32.o)
                0x00000000000351a0                _ZN2pp10InputEventD0Ev
                0x00000000000351e0                _ZN2pp10InputEventD1Ev
                0x0000000000035200                _ZN2pp10InputEventD2Ev
                0x0000000000035220                _ZN2pp10InputEventC1Ev
                0x0000000000035260                _ZN2pp10InputEventC2Ev
                0x00000000000352a0                _ZN2pp13IMEInputEventC1Ev
                0x00000000000352e0                _ZN2pp13IMEInputEventC2Ev
                0x0000000000035320                _ZN2pp15TouchInputEventC1Ev
                0x0000000000035360                _ZN2pp15TouchInputEventC2Ev
                0x00000000000353a0                _ZN2pp18KeyboardInputEventC1Ev
                0x00000000000353e0                _ZN2pp18KeyboardInputEventC2Ev
                0x0000000000035420                _ZN2pp15WheelInputEventC1Ev
                0x0000000000035460                _ZN2pp15WheelInputEventC2Ev
                0x00000000000354a0                _ZN2pp15MouseInputEventC1Ev
                0x00000000000354e0                _ZN2pp15MouseInputEventC2Ev
                0x0000000000035520                _ZN2pp10InputEventC2Ei
                0x0000000000035880                _ZNK2pp10InputEvent12GetModifiersEv
                0x0000000000035ae0                _ZNK2pp10InputEvent12GetTimeStampEv
                0x0000000000035d40                _ZNK2pp10InputEvent7GetTypeEv
                0x0000000000035fa0                _ZN2pp10InputEventC1Ei
                0x0000000000036300                _ZNK2pp15WheelInputEvent15GetScrollByPageEv
                0x00000000000365a0                _ZN2pp15WheelInputEventC1ERKNS_14InstanceHandleEdjRKNS_10FloatPointES6_b
                0x00000000000368e0                _ZN2pp15WheelInputEventC2ERKNS_14InstanceHandleEdjRKNS_10FloatPointES6_b
                0x0000000000036c20                _ZN2pp15WheelInputEventC2ERKNS_10InputEventE
                0x0000000000036f80                _ZNK2pp15WheelInputEvent8GetTicksEv
                0x0000000000037220                _ZNK2pp15WheelInputEvent8GetDeltaEv
                0x00000000000374c0                _ZN2pp18KeyboardInputEventC2ERKNS_10InputEventE
                0x0000000000037840                _ZN2pp18KeyboardInputEventC1ERKNS_10InputEventE
                0x0000000000037bc0                _ZN2pp18KeyboardInputEventC1ERKNS_14InstanceHandleE18PP_InputEvent_TypedjjRKNS_3VarES7_
                0x0000000000037f00                _ZN2pp18KeyboardInputEventC1ERKNS_14InstanceHandleE18PP_InputEvent_TypedjjRKNS_3VarE
                0x00000000000383a0                _ZN2pp18KeyboardInputEventC2ERKNS_14InstanceHandleE18PP_InputEvent_TypedjjRKNS_3VarES7_
                0x00000000000387e0                _ZN2pp15WheelInputEventC1ERKNS_10InputEventE
                0x0000000000038b40                _ZN2pp15TouchInputEventC2ERKNS_10InputEventE
                0x0000000000038ea0                _ZNK2pp15MouseInputEvent11GetMovementEv
                0x0000000000039140                _ZN2pp15TouchInputEvent13AddTouchPointE16PP_TouchListType13PP_TouchPoint
                0x00000000000393e0                _ZN2pp15TouchInputEventC1ERKNS_14InstanceHandleE18PP_InputEvent_Typedj
                0x0000000000039720                _ZN2pp15TouchInputEventC1ERKNS_10InputEventE
                0x0000000000039a80                _ZNK2pp15TouchInputEvent15GetTouchByIndexE16PP_TouchListTypej
                0x0000000000039d60                _ZN2pp15MouseInputEventC2ERKNS_10InputEventE
                0x000000000003a0c0                _ZNK2pp15TouchInputEvent13GetTouchCountE16PP_TouchListType
                0x000000000003a340                _ZNK2pp15MouseInputEvent13GetClickCountEv
                0x000000000003a5a0                _ZNK2pp15MouseInputEvent11GetPositionEv
                0x000000000003a840                _ZN2pp15MouseInputEventC1ERKNS_14InstanceHandleE18PP_InputEvent_Typedj25PP_InputEvent_MouseButtonRKNS_5PointEiS8_
                0x000000000003aba0                _ZN2pp15MouseInputEventC2ERKNS_14InstanceHandleE18PP_InputEvent_Typedj25PP_InputEvent_MouseButtonRKNS_5PointEiS8_
                0x000000000003af00                _ZN2pp15MouseInputEventC1ERKNS_10InputEventE
                0x000000000003b260                _ZNK2pp18KeyboardInputEvent10GetKeyCodeEv
                0x000000000003b5c0                _ZNK2pp18KeyboardInputEvent7GetCodeEv
                0x000000000003b780                _ZNK2pp18KeyboardInputEvent16GetCharacterTextEv
                0x000000000003bbc0                _ZNK2pp15TouchInputEvent12GetTouchByIdE16PP_TouchListTypej
                0x000000000003bea0                _ZNK2pp13IMEInputEvent7GetTextEv
                0x000000000003c160                _ZNK2pp13IMEInputEvent16GetSegmentNumberEv
                0x000000000003c3c0                _ZNK2pp13IMEInputEvent16GetSegmentOffsetEj
                0x000000000003c520                _ZN2pp13IMEInputEventC1ERKNS_14InstanceHandleE18PP_InputEvent_TypedRKNS_3VarERKSt6vectorIjSaIjEEiRKSt4pairIjjE
                0x000000000003c820                _ZN2pp13IMEInputEventC2ERKNS_14InstanceHandleE18PP_InputEvent_TypedRKNS_3VarERKSt6vectorIjSaIjEEiRKSt4pairIjjE
                0x000000000003cc20                _ZN2pp13IMEInputEventC1ERKNS_10InputEventE
                0x000000000003cf80                _ZN2pp13IMEInputEventC2ERKNS_10InputEventE
                0x000000000003d1e0                _ZNK2pp13IMEInputEvent12GetSelectionEPjS1_
                0x000000000003d480                _ZN2pp15TouchInputEventC2ERKNS_14InstanceHandleE18PP_InputEvent_Typedj
                0x000000000003d7c0                _ZNK2pp13IMEInputEvent16GetTargetSegmentEv
                0x000000000003da20                _ZNK2pp15MouseInputEvent9GetButtonEv
                0x000000000003dc80                _ZN2pp18KeyboardInputEventC2ERKNS_14InstanceHandleE18PP_InputEvent_TypedjjRKNS_3VarE
 .text._ZN2pp13IMEInputEventD0Ev
                0x000000000003e220       0x40 /home/jfb/nacl_sdk/pepper_42//lib/newlib_x86_32/Release/libppapi_cpp.a(input_event_x86_32.o)
                0x000000000003e220                _ZN2pp13IMEInputEventD0Ev
 .text._ZN2pp13IMEInputEventD1Ev
                0x000000000003e260       0x20 /home/jfb/nacl_sdk/pepper_42//lib/newlib_x86_32/Release/libppapi_cpp.a(input_event_x86_32.o)
                0x000000000003e260                _ZN2pp13IMEInputEventD1Ev
 .text._ZN2pp15TouchInputEventD0Ev
                0x000000000003e280       0x40 /home/jfb/nacl_sdk/pepper_42//lib/newlib_x86_32/Release/libppapi_cpp.a(input_event_x86_32.o)
                0x000000000003e280                _ZN2pp15TouchInputEventD0Ev
 .text._ZN2pp15TouchInputEventD1Ev
                0x000000000003e2c0       0x20 /home/jfb/nacl_sdk/pepper_42//lib/newlib_x86_32/Release/libppapi_cpp.a(input_event_x86_32.o)
                0x000000000003e2c0                _ZN2pp15TouchInputEventD1Ev
 .text._ZN2pp18KeyboardInputEventD0Ev
                0x000000000003e2e0       0x40 /home/jfb/nacl_sdk/pepper_42//lib/newlib_x86_32/Release/libppapi_cpp.a(input_event_x86_32.o)
                0x000000000003e2e0                _ZN2pp18KeyboardInputEventD0Ev
 .text._ZN2pp18KeyboardInputEventD1Ev
                0x000000000003e320       0x20 /home/jfb/nacl_sdk/pepper_42//lib/newlib_x86_32/Release/libppapi_cpp.a(input_event_x86_32.o)
                0x000000000003e320                _ZN2pp18KeyboardInputEventD1Ev
 .text._ZN2pp15WheelInputEventD0Ev
                0x000000000003e340       0x40 /home/jfb/nacl_sdk/pepper_42//lib/newlib_x86_32/Release/libppapi_cpp.a(input_event_x86_32.o)
                0x000000000003e340                _ZN2pp15WheelInputEventD0Ev
 .text._ZN2pp15WheelInputEventD1Ev
                0x000000000003e380       0x20 /home/jfb/nacl_sdk/pepper_42//lib/newlib_x86_32/Release/libppapi_cpp.a(input_event_x86_32.o)
                0x000000000003e380                _ZN2pp15WheelInputEventD1Ev
 .text._ZN2pp15MouseInputEventD0Ev
                0x000000000003e3a0       0x40 /home/jfb/nacl_sdk/pepper_42//lib/newlib_x86_32/Release/libppapi_cpp.a(input_event_x86_32.o)
                0x000000000003e3a0                _ZN2pp15MouseInputEventD0Ev
 .text._ZN2pp15MouseInputEventD1Ev
                0x000000000003e3e0       0x20 /home/jfb/nacl_sdk/pepper_42//lib/newlib_x86_32/Release/libppapi_cpp.a(input_event_x86_32.o)
                0x000000000003e3e0                _ZN2pp15MouseInputEventD1Ev
 .text          0x000000000003e400       0x40 /home/jfb/nacl_sdk/pepper_42/toolchain/linux_x86_newlib/bin/../lib/gcc/x86_64-nacl/4.4.3/../../../../x86_64-nacl/lib/../lib32/libppapi_stub.a(plugin_main_irt_21ce9d26.o)
                0x000000000003e400                main
 .text          0x000000000003e440       0x40 /home/jfb/nacl_sdk/pepper_42/toolchain/linux_x86_newlib/bin/../lib/gcc/x86_64-nacl/4.4.3/../../../../x86_64-nacl/lib/../lib32/libppapi_stub.a(ppapi_plugin_main_399d0cf7.o)
                0x000000000003e440                PpapiPluginMain
 .text          0x000000000003e480      0x1e0 /home/jfb/nacl_sdk/pepper_42/toolchain/linux_x86_newlib/bin/../lib/gcc/x86_64-nacl/4.4.3/../../../../x86_64-nacl/lib/../lib32/libppapi_stub.a(ppapi_plugin_start_8da67623.o)
                0x000000000003e4e0                PpapiPluginStart
 .text          0x000000000003e660       0xc0 /home/jfb/nacl_sdk/pepper_42/toolchain/linux_x86_newlib/bin/../lib/gcc/x86_64-nacl/4.4.3/../../../../x86_64-nacl/lib/../lib32/libppapi_stub.a(thread_creator_ccf263e1.o)
                0x000000000003e660                __nacl_register_thread_creator
 .text          0x000000000003e720     0x1bc0 /home/jfb/nacl_sdk/pepper_42/toolchain/linux_x86_newlib/bin/../lib/gcc/x86_64-nacl/4.4.3/../../../../x86_64-nacl/lib/../lib32/libpthread.a(nc_thread_7e478b15.o)
                0x000000000003e720                pthread_kill
                0x000000000003e740                pthread_equal
                0x000000000003e760                pthread_attr_init
                0x000000000003e7a0                pthread_attr_destroy
                0x000000000003e7c0                pthread_attr_setdetachstate
                0x000000000003e800                pthread_attr_getdetachstate
                0x000000000003e840                pthread_attr_setscope
                0x000000000003e880                pthread_attr_getscope
                0x000000000003e8a0                pthread_attr_setstacksize
                0x000000000003e920                pthread_attr_getstacksize
                0x000000000003e960                pthread_getspecific
                0x000000000003e9e0                __nc_tsd_exit
                0x000000000003eb80                pthread_cleanup_pop
                0x000000000003ec20                pthread_setspecific
                0x000000000003ed20                pthread_key_delete
                0x000000000003edc0                pthread_key_create
                0x000000000003ee60                __local_lock_release
                0x000000000003eea0                __local_lock_release_recursive
                0x000000000003eec0                __local_lock_try_acquire
                0x000000000003ef20                __local_lock_try_acquire_recursive
                0x000000000003ef40                __local_lock_acquire
                0x000000000003ef80                __local_lock_acquire_recursive
                0x000000000003efa0                __local_lock_close
                0x000000000003efe0                __local_lock_close_recursive
                0x000000000003f000                __local_lock_init_recursive
                0x000000000003f080                __local_lock_init
                0x000000000003f100                pthread_self
                0x000000000003f140                pthread_setschedprio
                0x000000000003f200                pthread_detach
                0x000000000003f2e0                pthread_join
                0x000000000003f4a0                pthread_exit
                0x000000000003f8e0                pthread_cleanup_push
                0x000000000003fc00                pthread_create
                0x0000000000040140                __nc_initialize_globals
                0x0000000000040260                __pthread_initialize
 .text          0x00000000000402e0      0x1e0 /home/jfb/nacl_sdk/pepper_42/toolchain/linux_x86_newlib/bin/../lib/gcc/x86_64-nacl/4.4.3/../../../../x86_64-nacl/lib/../lib32/libpthread.a(nc_condvar_305aa45a.o)
                0x00000000000402e0                pthread_cond_init
                0x0000000000040300                pthread_cond_destroy
                0x0000000000040320                pthread_cond_timedwait_abs
                0x0000000000040400                pthread_cond_wait
                0x0000000000040480                pthread_cond_broadcast
                0x00000000000404a0                pthread_cond_signal
 .text          0x00000000000404c0      0x540 /home/jfb/nacl_sdk/pepper_42/toolchain/linux_x86_newlib/bin/../lib/gcc/x86_64-nacl/4.4.3/../../../../x86_64-nacl/lib/../lib32/libpthread.a(dynamic_annotations_33ba59cc.o)
                0x00000000000404c0                NACL_AnnotateRWLockCreate
                0x00000000000404e0                NACL_AnnotateRWLockDestroy
                0x0000000000040500                NACL_AnnotateRWLockAcquired
                0x0000000000040520                NACL_AnnotateRWLockReleased
                0x0000000000040540                NACL_AnnotateBarrierInit
                0x0000000000040560                NACL_AnnotateBarrierWaitBefore
                0x0000000000040580                NACL_AnnotateBarrierWaitAfter
                0x00000000000405a0                NACL_AnnotateBarrierDestroy
                0x00000000000405c0                NACL_AnnotateCondVarWait
                0x00000000000405e0                NACL_AnnotateCondVarSignal
                0x0000000000040600                NACL_AnnotateCondVarSignalAll
                0x0000000000040620                NACL_AnnotateHappensBefore
                0x0000000000040640                NACL_AnnotateHappensAfter
                0x0000000000040660                NACL_AnnotatePublishMemoryRange
                0x0000000000040680                NACL_AnnotateUnpublishMemoryRange
                0x00000000000406a0                NACL_AnnotatePCQCreate
                0x00000000000406c0                NACL_AnnotatePCQDestroy
                0x00000000000406e0                NACL_AnnotatePCQPut
                0x0000000000040700                NACL_AnnotatePCQGet
                0x0000000000040720                NACL_AnnotateNewMemory
                0x0000000000040740                NACL_AnnotateExpectRace
                0x0000000000040760                NACL_AnnotateFlushExpectedRaces
                0x0000000000040780                NACL_AnnotateBenignRace
                0x00000000000407a0                NACL_AnnotateBenignRaceSized
                0x00000000000407c0                NACL_AnnotateMutexIsUsedAsCondVar
                0x00000000000407e0                NACL_AnnotateMutexIsNotPHB
                0x0000000000040800                NACL_AnnotateTraceMemory
                0x0000000000040820                NACL_AnnotateThreadName
                0x0000000000040840                NACL_AnnotateIgnoreReadsBegin
                0x0000000000040860                NACL_AnnotateIgnoreReadsEnd
                0x0000000000040880                NACL_AnnotateIgnoreWritesBegin
                0x00000000000408a0                NACL_AnnotateIgnoreWritesEnd
                0x00000000000408c0                NACL_AnnotateIgnoreSyncBegin
                0x00000000000408e0                NACL_AnnotateIgnoreSyncEnd
                0x0000000000040900                NACL_AnnotateEnableRaceDetection
                0x0000000000040920                NACL_AnnotateNoOp
                0x0000000000040940                NACL_AnnotateFlushState
                0x0000000000040960                RunningOnValgrind
 .text          0x0000000000040a00      0x6a0 /home/jfb/nacl_sdk/pepper_42/toolchain/linux_x86_newlib/bin/../lib/gcc/x86_64-nacl/4.4.3/../../../../x86_64-nacl/lib/../lib32/libpthread.a(nc_mutex_86341ae1.o)
                0x0000000000040a00                pthread_mutex_init
                0x0000000000040a60                pthread_mutex_destroy
                0x0000000000040ac0                pthread_mutexattr_init
                0x0000000000040ae0                pthread_mutexattr_destroy
                0x0000000000040b00                pthread_mutexattr_settype
                0x0000000000040b40                pthread_mutexattr_gettype
                0x0000000000040b60                pthread_mutex_unlock
                0x0000000000040f40                pthread_mutex_timedlock
                0x0000000000040f60                pthread_mutex_lock
                0x0000000000040f80                pthread_once
                0x0000000000041080                pthread_mutex_trylock
 .text          0x00000000000410a0       0x60 /home/jfb/nacl_sdk/pepper_42/toolchain/linux_x86_newlib/bin/../lib/gcc/x86_64-nacl/4.4.3/../../../../x86_64-nacl/lib/../lib32/libpthread.a(nc_init_irt_d3daafc0.o)
                0x00000000000410a0                __nc_initialize_interfaces
 .text          0x0000000000041100        0x0 /home/jfb/nacl_sdk/pepper_42/toolchain/linux_x86_newlib/bin/../lib/gcc/x86_64-nacl/4.4.3/../../../../x86_64-nacl/lib/../lib32/libstdc++.a(tree.o)
 .text._ZSt18_Rb_tree_incrementPSt18_Rb_tree_node_base
                0x0000000000041100       0xa0 /home/jfb/nacl_sdk/pepper_42/toolchain/linux_x86_newlib/bin/../lib/gcc/x86_64-nacl/4.4.3/../../../../x86_64-nacl/lib/../lib32/libstdc++.a(tree.o)
                0x0000000000041100                _ZSt18_Rb_tree_incrementPSt18_Rb_tree_node_base
 .text._ZSt18_Rb_tree_incrementPKSt18_Rb_tree_node_base
                0x00000000000411a0       0xc0 /home/jfb/nacl_sdk/pepper_42/toolchain/linux_x86_newlib/bin/../lib/gcc/x86_64-nacl/4.4.3/../../../../x86_64-nacl/lib/../lib32/libstdc++.a(tree.o)
                0x00000000000411a0                _ZSt18_Rb_tree_incrementPKSt18_Rb_tree_node_base
 .text._ZSt18_Rb_tree_decrementPSt18_Rb_tree_node_base
                0x0000000000041260      0x120 /home/jfb/nacl_sdk/pepper_42/toolchain/linux_x86_newlib/bin/../lib/gcc/x86_64-nacl/4.4.3/../../../../x86_64-nacl/lib/../lib32/libstdc++.a(tree.o)
                0x0000000000041260                _ZSt18_Rb_tree_decrementPSt18_Rb_tree_node_base
 .text._ZSt18_Rb_tree_decrementPKSt18_Rb_tree_node_base
                0x0000000000041380      0x120 /home/jfb/nacl_sdk/pepper_42/toolchain/linux_x86_newlib/bin/../lib/gcc/x86_64-nacl/4.4.3/../../../../x86_64-nacl/lib/../lib32/libstdc++.a(tree.o)
                0x0000000000041380                _ZSt18_Rb_tree_decrementPKSt18_Rb_tree_node_base
 .text._ZSt20_Rb_tree_rotate_leftPSt18_Rb_tree_node_baseRS0_
                0x00000000000414a0       0xa0 /home/jfb/nacl_sdk/pepper_42/toolchain/linux_x86_newlib/bin/../lib/gcc/x86_64-nacl/4.4.3/../../../../x86_64-nacl/lib/../lib32/libstdc++.a(tree.o)
                0x00000000000414a0                _ZSt20_Rb_tree_rotate_leftPSt18_Rb_tree_node_baseRS0_
 .text._ZSt21_Rb_tree_rotate_rightPSt18_Rb_tree_node_baseRS0_
                0x0000000000041540       0xa0 /home/jfb/nacl_sdk/pepper_42/toolchain/linux_x86_newlib/bin/../lib/gcc/x86_64-nacl/4.4.3/../../../../x86_64-nacl/lib/../lib32/libstdc++.a(tree.o)
                0x0000000000041540                _ZSt21_Rb_tree_rotate_rightPSt18_Rb_tree_node_baseRS0_
 .text._ZSt29_Rb_tree_insert_and_rebalancebPSt18_Rb_tree_node_baseS0_RS_
                0x00000000000415e0      0x4a0 /home/jfb/nacl_sdk/pepper_42/toolchain/linux_x86_newlib/bin/../lib/gcc/x86_64-nacl/4.4.3/../../../../x86_64-nacl/lib/../lib32/libstdc++.a(tree.o)
                0x00000000000415e0                _ZSt29_Rb_tree_insert_and_rebalancebPSt18_Rb_tree_node_baseS0_RS_
 .text._ZSt28_Rb_tree_rebalance_for_erasePSt18_Rb_tree_node_baseRS_
                0x0000000000041a80      0x9a0 /home/jfb/nacl_sdk/pepper_42/toolchain/linux_x86_newlib/bin/../lib/gcc/x86_64-nacl/4.4.3/../../../../x86_64-nacl/lib/../lib32/libstdc++.a(tree.o)
                0x0000000000041a80                _ZSt28_Rb_tree_rebalance_for_erasePSt18_Rb_tree_node_baseRS_
 .text._ZSt20_Rb_tree_black_countPKSt18_Rb_tree_node_baseS1_
                0x0000000000042420       0x80 /home/jfb/nacl_sdk/pepper_42/toolchain/linux_x86_newlib/bin/../lib/gcc/x86_64-nacl/4.4.3/../../../../x86_64-nacl/lib/../lib32/libstdc++.a(tree.o)
                0x0000000000042420                _ZSt20_Rb_tree_black_countPKSt18_Rb_tree_node_baseS1_
 .text          0x00000000000424a0        0x0 /home/jfb/nacl_sdk/pepper_42/toolchain/linux_x86_newlib/bin/../lib/gcc/x86_64-nacl/4.4.3/../../../../x86_64-nacl/lib/../lib32/libstdc++.a(string-inst.o)
 .text._ZNKSs7_M_dataEv
                0x00000000000424a0       0x20 /home/jfb/nacl_sdk/pepper_42/toolchain/linux_x86_newlib/bin/../lib/gcc/x86_64-nacl/4.4.3/../../../../x86_64-nacl/lib/../lib32/libstdc++.a(string-inst.o)
                0x00000000000424a0                _ZNKSs7_M_dataEv
 .text._ZNSs7_M_dataEPc
                0x00000000000424c0       0x20 /home/jfb/nacl_sdk/pepper_42/toolchain/linux_x86_newlib/bin/../lib/gcc/x86_64-nacl/4.4.3/../../../../x86_64-nacl/lib/../lib32/libstdc++.a(string-inst.o)
                0x00000000000424c0                _ZNSs7_M_dataEPc
 .text._ZNKSs6_M_repEv
                0x00000000000424e0       0x20 /home/jfb/nacl_sdk/pepper_42/toolchain/linux_x86_newlib/bin/../lib/gcc/x86_64-nacl/4.4.3/../../../../x86_64-nacl/lib/../lib32/libstdc++.a(string-inst.o)
                0x00000000000424e0                _ZNKSs6_M_repEv
 .text._ZNKSs9_M_ibeginEv
                0x0000000000042500       0x20 /home/jfb/nacl_sdk/pepper_42/toolchain/linux_x86_newlib/bin/../lib/gcc/x86_64-nacl/4.4.3/../../../../x86_64-nacl/lib/../lib32/libstdc++.a(string-inst.o)
                0x0000000000042500                _ZNKSs9_M_ibeginEv
 .text._ZNKSs7_M_iendEv
                0x0000000000042520       0x20 /home/jfb/nacl_sdk/pepper_42/toolchain/linux_x86_newlib/bin/../lib/gcc/x86_64-nacl/4.4.3/../../../../x86_64-nacl/lib/../lib32/libstdc++.a(string-inst.o)
                0x0000000000042520                _ZNKSs7_M_iendEv
 .text._ZNKSs8_M_limitEjj
                0x0000000000042540       0x20 /home/jfb/nacl_sdk/pepper_42/toolchain/linux_x86_newlib/bin/../lib/gcc/x86_64-nacl/4.4.3/../../../../x86_64-nacl/lib/../lib32/libstdc++.a(string-inst.o)
                0x0000000000042540                _ZNKSs8_M_limitEjj
 .text._ZNKSs11_M_disjunctEPKc
                0x0000000000042560       0x40 /home/jfb/nacl_sdk/pepper_42/toolchain/linux_x86_newlib/bin/../lib/gcc/x86_64-nacl/4.4.3/../../../../x86_64-nacl/lib/../lib32/libstdc++.a(string-inst.o)
                0x0000000000042560                _ZNKSs11_M_disjunctEPKc
 .text._ZNSs10_S_compareEjj
                0x00000000000425a0       0x20 /home/jfb/nacl_sdk/pepper_42/toolchain/linux_x86_newlib/bin/../lib/gcc/x86_64-nacl/4.4.3/../../../../x86_64-nacl/lib/../lib32/libstdc++.a(string-inst.o)
                0x00000000000425a0                _ZNSs10_S_compareEjj
 .text._ZNSs12_S_empty_repEv
                0x00000000000425c0       0x20 /home/jfb/nacl_sdk/pepper_42/toolchain/linux_x86_newlib/bin/../lib/gcc/x86_64-nacl/4.4.3/../../../../x86_64-nacl/lib/../lib32/libstdc++.a(string-inst.o)
                0x00000000000425c0                _ZNSs12_S_empty_repEv
 .text._ZNSsC2Ev
                0x00000000000425e0       0x20 /home/jfb/nacl_sdk/pepper_42/toolchain/linux_x86_newlib/bin/../lib/gcc/x86_64-nacl/4.4.3/../../../../x86_64-nacl/lib/../lib32/libstdc++.a(string-inst.o)
                0x00000000000425e0                _ZNSsC2Ev
 .text._ZNSsC1Ev
                0x0000000000042600       0x20 /home/jfb/nacl_sdk/pepper_42/toolchain/linux_x86_newlib/bin/../lib/gcc/x86_64-nacl/4.4.3/../../../../x86_64-nacl/lib/../lib32/libstdc++.a(string-inst.o)
                0x0000000000042600                _ZNSsC1Ev
 .text._ZNKSs5beginEv
                0x0000000000042620       0x20 /home/jfb/nacl_sdk/pepper_42/toolchain/linux_x86_newlib/bin/../lib/gcc/x86_64-nacl/4.4.3/../../../../x86_64-nacl/lib/../lib32/libstdc++.a(string-inst.o)
                0x0000000000042620                _ZNKSs5beginEv
 .text._ZNKSs3endEv
                0x0000000000042640       0x20 /home/jfb/nacl_sdk/pepper_42/toolchain/linux_x86_newlib/bin/../lib/gcc/x86_64-nacl/4.4.3/../../../../x86_64-nacl/lib/../lib32/libstdc++.a(string-inst.o)
                0x0000000000042640                _ZNKSs3endEv
 .text._ZNKSs6rbeginEv
                0x0000000000042660       0x20 /home/jfb/nacl_sdk/pepper_42/toolchain/linux_x86_newlib/bin/../lib/gcc/x86_64-nacl/4.4.3/../../../../x86_64-nacl/lib/../lib32/libstdc++.a(string-inst.o)
                0x0000000000042660                _ZNKSs6rbeginEv
 .text._ZNKSs4rendEv
                0x0000000000042680       0x20 /home/jfb/nacl_sdk/pepper_42/toolchain/linux_x86_newlib/bin/../lib/gcc/x86_64-nacl/4.4.3/../../../../x86_64-nacl/lib/../lib32/libstdc++.a(string-inst.o)
                0x0000000000042680                _ZNKSs4rendEv
 .text._ZNKSs4sizeEv
                0x00000000000426a0       0x20 /home/jfb/nacl_sdk/pepper_42/toolchain/linux_x86_newlib/bin/../lib/gcc/x86_64-nacl/4.4.3/../../../../x86_64-nacl/lib/../lib32/libstdc++.a(string-inst.o)
                0x00000000000426a0                _ZNKSs4sizeEv
 .text._ZNKSs6lengthEv
                0x00000000000426c0       0x20 /home/jfb/nacl_sdk/pepper_42/toolchain/linux_x86_newlib/bin/../lib/gcc/x86_64-nacl/4.4.3/../../../../x86_64-nacl/lib/../lib32/libstdc++.a(string-inst.o)
                0x00000000000426c0                _ZNKSs6lengthEv
 .text._ZNKSs8max_sizeEv
                0x00000000000426e0       0x20 /home/jfb/nacl_sdk/pepper_42/toolchain/linux_x86_newlib/bin/../lib/gcc/x86_64-nacl/4.4.3/../../../../x86_64-nacl/lib/../lib32/libstdc++.a(string-inst.o)
                0x00000000000426e0                _ZNKSs8max_sizeEv
 .text._ZNKSs8capacityEv
                0x0000000000042700       0x20 /home/jfb/nacl_sdk/pepper_42/toolchain/linux_x86_newlib/bin/../lib/gcc/x86_64-nacl/4.4.3/../../../../x86_64-nacl/lib/../lib32/libstdc++.a(string-inst.o)
                0x0000000000042700                _ZNKSs8capacityEv
 .text._ZNKSs5emptyEv
                0x0000000000042720       0x20 /home/jfb/nacl_sdk/pepper_42/toolchain/linux_x86_newlib/bin/../lib/gcc/x86_64-nacl/4.4.3/../../../../x86_64-nacl/lib/../lib32/libstdc++.a(string-inst.o)
                0x0000000000042720                _ZNKSs5emptyEv
 .text._ZNKSsixEj
                0x0000000000042740       0x20 /home/jfb/nacl_sdk/pepper_42/toolchain/linux_x86_newlib/bin/../lib/gcc/x86_64-nacl/4.4.3/../../../../x86_64-nacl/lib/../lib32/libstdc++.a(string-inst.o)
                0x0000000000042740                _ZNKSsixEj
 .text._ZNSs4swapERSs
                0x0000000000042760       0xa0 /home/jfb/nacl_sdk/pepper_42/toolchain/linux_x86_newlib/bin/../lib/gcc/x86_64-nacl/4.4.3/../../../../x86_64-nacl/lib/../lib32/libstdc++.a(string-inst.o)
                0x0000000000042760                _ZNSs4swapERSs
 .text._ZNKSs5c_strEv
                0x0000000000042800       0x20 /home/jfb/nacl_sdk/pepper_42/toolchain/linux_x86_newlib/bin/../lib/gcc/x86_64-nacl/4.4.3/../../../../x86_64-nacl/lib/../lib32/libstdc++.a(string-inst.o)
                0x0000000000042800                _ZNKSs5c_strEv
 .text._ZNKSs4dataEv
                0x0000000000042820       0x20 /home/jfb/nacl_sdk/pepper_42/toolchain/linux_x86_newlib/bin/../lib/gcc/x86_64-nacl/4.4.3/../../../../x86_64-nacl/lib/../lib32/libstdc++.a(string-inst.o)
                0x0000000000042820                _ZNKSs4dataEv
 .text._ZNKSs13get_allocatorEv
                0x0000000000042840       0x20 /home/jfb/nacl_sdk/pepper_42/toolchain/linux_x86_newlib/bin/../lib/gcc/x86_64-nacl/4.4.3/../../../../x86_64-nacl/lib/../lib32/libstdc++.a(string-inst.o)
                0x0000000000042840                _ZNKSs13get_allocatorEv
 .text._ZNKSs5rfindEcj
                0x0000000000042860       0x80 /home/jfb/nacl_sdk/pepper_42/toolchain/linux_x86_newlib/bin/../lib/gcc/x86_64-nacl/4.4.3/../../../../x86_64-nacl/lib/../lib32/libstdc++.a(string-inst.o)
                0x0000000000042860                _ZNKSs5rfindEcj
 .text._ZNKSs12find_last_ofEcj
                0x00000000000428e0       0x20 /home/jfb/nacl_sdk/pepper_42/toolchain/linux_x86_newlib/bin/../lib/gcc/x86_64-nacl/4.4.3/../../../../x86_64-nacl/lib/../lib32/libstdc++.a(string-inst.o)
                0x00000000000428e0                _ZNKSs12find_last_ofEcj
 .text._ZNKSs17find_first_not_ofEcj
                0x0000000000042900       0xc0 /home/jfb/nacl_sdk/pepper_42/toolchain/linux_x86_newlib/bin/../lib/gcc/x86_64-nacl/4.4.3/../../../../x86_64-nacl/lib/../lib32/libstdc++.a(string-inst.o)
                0x0000000000042900                _ZNKSs17find_first_not_ofEcj
 .text._ZNKSs16find_last_not_ofEcj
                0x00000000000429c0       0xc0 /home/jfb/nacl_sdk/pepper_42/toolchain/linux_x86_newlib/bin/../lib/gcc/x86_64-nacl/4.4.3/../../../../x86_64-nacl/lib/../lib32/libstdc++.a(string-inst.o)
                0x00000000000429c0                _ZNKSs16find_last_not_ofEcj
 .text._ZNSs12_Alloc_hiderC2EPcRKSaIcE
                0x0000000000042a80       0x20 /home/jfb/nacl_sdk/pepper_42/toolchain/linux_x86_newlib/bin/../lib/gcc/x86_64-nacl/4.4.3/../../../../x86_64-nacl/lib/../lib32/libstdc++.a(string-inst.o)
                0x0000000000042a80                _ZNSs12_Alloc_hiderC2EPcRKSaIcE
 .text._ZNSs12_Alloc_hiderC1EPcRKSaIcE
                0x0000000000042aa0       0x20 /home/jfb/nacl_sdk/pepper_42/toolchain/linux_x86_newlib/bin/../lib/gcc/x86_64-nacl/4.4.3/../../../../x86_64-nacl/lib/../lib32/libstdc++.a(string-inst.o)
                0x0000000000042aa0                _ZNSs12_Alloc_hiderC1EPcRKSaIcE
 .text._ZNSs4_Rep12_S_empty_repEv
                0x0000000000042ac0       0x20 /home/jfb/nacl_sdk/pepper_42/toolchain/linux_x86_newlib/bin/../lib/gcc/x86_64-nacl/4.4.3/../../../../x86_64-nacl/lib/../lib32/libstdc++.a(string-inst.o)
                0x0000000000042ac0                _ZNSs4_Rep12_S_empty_repEv
 .text._ZNKSs4_Rep12_M_is_leakedEv
                0x0000000000042ae0       0x20 /home/jfb/nacl_sdk/pepper_42/toolchain/linux_x86_newlib/bin/../lib/gcc/x86_64-nacl/4.4.3/../../../../x86_64-nacl/lib/../lib32/libstdc++.a(string-inst.o)
                0x0000000000042ae0                _ZNKSs4_Rep12_M_is_leakedEv
 .text._ZNKSs4_Rep12_M_is_sharedEv
                0x0000000000042b00       0x20 /home/jfb/nacl_sdk/pepper_42/toolchain/linux_x86_newlib/bin/../lib/gcc/x86_64-nacl/4.4.3/../../../../x86_64-nacl/lib/../lib32/libstdc++.a(string-inst.o)
                0x0000000000042b00                _ZNKSs4_Rep12_M_is_sharedEv
 .text._ZNSs4_Rep13_M_set_leakedEv
                0x0000000000042b20       0x20 /home/jfb/nacl_sdk/pepper_42/toolchain/linux_x86_newlib/bin/../lib/gcc/x86_64-nacl/4.4.3/../../../../x86_64-nacl/lib/../lib32/libstdc++.a(string-inst.o)
                0x0000000000042b20                _ZNSs4_Rep13_M_set_leakedEv
 .text._ZNSs4_Rep15_M_set_sharableEv
                0x0000000000042b40       0x20 /home/jfb/nacl_sdk/pepper_42/toolchain/linux_x86_newlib/bin/../lib/gcc/x86_64-nacl/4.4.3/../../../../x86_64-nacl/lib/../lib32/libstdc++.a(string-inst.o)
                0x0000000000042b40                _ZNSs4_Rep15_M_set_sharableEv
 .text._ZNSs4_Rep26_M_set_length_and_sharableEj
                0x0000000000042b60       0x20 /home/jfb/nacl_sdk/pepper_42/toolchain/linux_x86_newlib/bin/../lib/gcc/x86_64-nacl/4.4.3/../../../../x86_64-nacl/lib/../lib32/libstdc++.a(string-inst.o)
                0x0000000000042b60                _ZNSs4_Rep26_M_set_length_and_sharableEj
 .text._ZNSs4_Rep10_M_refdataEv
                0x0000000000042b80       0x20 /home/jfb/nacl_sdk/pepper_42/toolchain/linux_x86_newlib/bin/../lib/gcc/x86_64-nacl/4.4.3/../../../../x86_64-nacl/lib/../lib32/libstdc++.a(string-inst.o)
                0x0000000000042b80                _ZNSs4_Rep10_M_refdataEv
 .text._ZN9__gnu_cxxeqIPcSsEEbRKNS_17__normal_iteratorIT_T0_EES7_
                0x0000000000042ba0       0x20 /home/jfb/nacl_sdk/pepper_42/toolchain/linux_x86_newlib/bin/../lib/gcc/x86_64-nacl/4.4.3/../../../../x86_64-nacl/lib/../lib32/libstdc++.a(string-inst.o)
                0x0000000000042ba0                _ZN9__gnu_cxxeqIPcSsEEbRKNS_17__normal_iteratorIT_T0_EES7_
 .text._ZN9__gnu_cxxeqIPKcSsEEbRKNS_17__normal_iteratorIT_T0_EES8_
                0x0000000000042bc0       0x20 /home/jfb/nacl_sdk/pepper_42/toolchain/linux_x86_newlib/bin/../lib/gcc/x86_64-nacl/4.4.3/../../../../x86_64-nacl/lib/../lib32/libstdc++.a(string-inst.o)
                0x0000000000042bc0                _ZN9__gnu_cxxeqIPKcSsEEbRKNS_17__normal_iteratorIT_T0_EES8_
 .text._ZNSs4_Rep10_M_refcopyEv
                0x0000000000042be0       0x80 /home/jfb/nacl_sdk/pepper_42/toolchain/linux_x86_newlib/bin/../lib/gcc/x86_64-nacl/4.4.3/../../../../x86_64-nacl/lib/../lib32/libstdc++.a(string-inst.o)
                0x0000000000042be0                _ZNSs4_Rep10_M_refcopyEv
 .text._ZNSs4_Rep10_M_destroyERKSaIcE
                0x0000000000042c60       0x20 /home/jfb/nacl_sdk/pepper_42/toolchain/linux_x86_newlib/bin/../lib/gcc/x86_64-nacl/4.4.3/../../../../x86_64-nacl/lib/../lib32/libstdc++.a(string-inst.o)
                0x0000000000042c60                _ZNSs4_Rep10_M_destroyERKSaIcE
 .text._ZNSs4_Rep10_M_disposeERKSaIcE
                0x0000000000042c80       0xa0 /home/jfb/nacl_sdk/pepper_42/toolchain/linux_x86_newlib/bin/../lib/gcc/x86_64-nacl/4.4.3/../../../../x86_64-nacl/lib/../lib32/libstdc++.a(string-inst.o)
                0x0000000000042c80                _ZNSs4_Rep10_M_disposeERKSaIcE
 .text._ZNKSs15_M_check_lengthEjjPKc
                0x0000000000042d20       0x60 /home/jfb/nacl_sdk/pepper_42/toolchain/linux_x86_newlib/bin/../lib/gcc/x86_64-nacl/4.4.3/../../../../x86_64-nacl/lib/../lib32/libstdc++.a(string-inst.o)
                0x0000000000042d20                _ZNKSs15_M_check_lengthEjjPKc
 .text._ZNSs4_Rep9_S_createEjjRKSaIcE
                0x0000000000042d80      0x120 /home/jfb/nacl_sdk/pepper_42/toolchain/linux_x86_newlib/bin/../lib/gcc/x86_64-nacl/4.4.3/../../../../x86_64-nacl/lib/../lib32/libstdc++.a(string-inst.o)
                0x0000000000042d80                _ZNSs4_Rep9_S_createEjjRKSaIcE
 .text._ZNKSs4findEPKcjj
                0x0000000000042ea0      0x140 /home/jfb/nacl_sdk/pepper_42/toolchain/linux_x86_newlib/bin/../lib/gcc/x86_64-nacl/4.4.3/../../../../x86_64-nacl/lib/../lib32/libstdc++.a(string-inst.o)
                0x0000000000042ea0                _ZNKSs4findEPKcjj
 .text._ZNKSs4findERKSsj
                0x0000000000042fe0       0x60 /home/jfb/nacl_sdk/pepper_42/toolchain/linux_x86_newlib/bin/../lib/gcc/x86_64-nacl/4.4.3/../../../../x86_64-nacl/lib/../lib32/libstdc++.a(string-inst.o)
                0x0000000000042fe0                _ZNKSs4findERKSsj
 .text._ZNKSs4findEcj
                0x0000000000043040       0x80 /home/jfb/nacl_sdk/pepper_42/toolchain/linux_x86_newlib/bin/../lib/gcc/x86_64-nacl/4.4.3/../../../../x86_64-nacl/lib/../lib32/libstdc++.a(string-inst.o)
                0x0000000000043040                _ZNKSs4findEcj
 .text._ZNKSs13find_first_ofEcj
                0x00000000000430c0       0x20 /home/jfb/nacl_sdk/pepper_42/toolchain/linux_x86_newlib/bin/../lib/gcc/x86_64-nacl/4.4.3/../../../../x86_64-nacl/lib/../lib32/libstdc++.a(string-inst.o)
                0x00000000000430c0                _ZNKSs13find_first_ofEcj
 .text._ZNKSs2atEj
                0x00000000000430e0       0x40 /home/jfb/nacl_sdk/pepper_42/toolchain/linux_x86_newlib/bin/../lib/gcc/x86_64-nacl/4.4.3/../../../../x86_64-nacl/lib/../lib32/libstdc++.a(string-inst.o)
                0x00000000000430e0                _ZNKSs2atEj
 .text._ZNKSs8_M_checkEjPKc
                0x0000000000043120       0x40 /home/jfb/nacl_sdk/pepper_42/toolchain/linux_x86_newlib/bin/../lib/gcc/x86_64-nacl/4.4.3/../../../../x86_64-nacl/lib/../lib32/libstdc++.a(string-inst.o)
                0x0000000000043120                _ZNKSs8_M_checkEjPKc
 .text._ZNSs9_M_assignEPcjc
                0x0000000000043160       0x60 /home/jfb/nacl_sdk/pepper_42/toolchain/linux_x86_newlib/bin/../lib/gcc/x86_64-nacl/4.4.3/../../../../x86_64-nacl/lib/../lib32/libstdc++.a(string-inst.o)
                0x0000000000043160                _ZNSs9_M_assignEPcjc
 .text._ZNSs7_M_moveEPcPKcj
                0x00000000000431c0       0x60 /home/jfb/nacl_sdk/pepper_42/toolchain/linux_x86_newlib/bin/../lib/gcc/x86_64-nacl/4.4.3/../../../../x86_64-nacl/lib/../lib32/libstdc++.a(string-inst.o)
                0x00000000000431c0                _ZNSs7_M_moveEPcPKcj
 .text._ZNSs7_M_copyEPcPKcj
                0x0000000000043220       0x60 /home/jfb/nacl_sdk/pepper_42/toolchain/linux_x86_newlib/bin/../lib/gcc/x86_64-nacl/4.4.3/../../../../x86_64-nacl/lib/../lib32/libstdc++.a(string-inst.o)
                0x0000000000043220                _ZNSs7_M_copyEPcPKcj
 .text._ZNKSs16find_last_not_ofEPKcjj
                0x0000000000043280       0xe0 /home/jfb/nacl_sdk/pepper_42/toolchain/linux_x86_newlib/bin/../lib/gcc/x86_64-nacl/4.4.3/../../../../x86_64-nacl/lib/../lib32/libstdc++.a(string-inst.o)
                0x0000000000043280                _ZNKSs16find_last_not_ofEPKcjj
 .text._ZNKSs16find_last_not_ofERKSsj
                0x0000000000043360       0x60 /home/jfb/nacl_sdk/pepper_42/toolchain/linux_x86_newlib/bin/../lib/gcc/x86_64-nacl/4.4.3/../../../../x86_64-nacl/lib/../lib32/libstdc++.a(string-inst.o)
                0x0000000000043360                _ZNKSs16find_last_not_ofERKSsj
 .text._ZNKSs17find_first_not_ofEPKcjj
                0x00000000000433c0       0xc0 /home/jfb/nacl_sdk/pepper_42/toolchain/linux_x86_newlib/bin/../lib/gcc/x86_64-nacl/4.4.3/../../../../x86_64-nacl/lib/../lib32/libstdc++.a(string-inst.o)
                0x00000000000433c0                _ZNKSs17find_first_not_ofEPKcjj
 .text._ZNKSs17find_first_not_ofERKSsj
                0x0000000000043480       0x60 /home/jfb/nacl_sdk/pepper_42/toolchain/linux_x86_newlib/bin/../lib/gcc/x86_64-nacl/4.4.3/../../../../x86_64-nacl/lib/../lib32/libstdc++.a(string-inst.o)
                0x0000000000043480                _ZNKSs17find_first_not_ofERKSsj
 .text._ZNKSs12find_last_ofEPKcjj
                0x00000000000434e0       0xe0 /home/jfb/nacl_sdk/pepper_42/toolchain/linux_x86_newlib/bin/../lib/gcc/x86_64-nacl/4.4.3/../../../../x86_64-nacl/lib/../lib32/libstdc++.a(string-inst.o)
                0x00000000000434e0                _ZNKSs12find_last_ofEPKcjj
 .text._ZNKSs12find_last_ofERKSsj
                0x00000000000435c0       0x60 /home/jfb/nacl_sdk/pepper_42/toolchain/linux_x86_newlib/bin/../lib/gcc/x86_64-nacl/4.4.3/../../../../x86_64-nacl/lib/../lib32/libstdc++.a(string-inst.o)
                0x00000000000435c0                _ZNKSs12find_last_ofERKSsj
 .text._ZNKSs13find_first_ofEPKcjj
                0x0000000000043620       0xc0 /home/jfb/nacl_sdk/pepper_42/toolchain/linux_x86_newlib/bin/../lib/gcc/x86_64-nacl/4.4.3/../../../../x86_64-nacl/lib/../lib32/libstdc++.a(string-inst.o)
                0x0000000000043620                _ZNKSs13find_first_ofEPKcjj
 .text._ZNKSs13find_first_ofERKSsj
                0x00000000000436e0       0x60 /home/jfb/nacl_sdk/pepper_42/toolchain/linux_x86_newlib/bin/../lib/gcc/x86_64-nacl/4.4.3/../../../../x86_64-nacl/lib/../lib32/libstdc++.a(string-inst.o)
                0x00000000000436e0                _ZNKSs13find_first_ofERKSsj
 .text._ZNKSs5rfindEPKcjj
                0x0000000000043740       0xc0 /home/jfb/nacl_sdk/pepper_42/toolchain/linux_x86_newlib/bin/../lib/gcc/x86_64-nacl/4.4.3/../../../../x86_64-nacl/lib/../lib32/libstdc++.a(string-inst.o)
                0x0000000000043740                _ZNKSs5rfindEPKcjj
 .text._ZNKSs5rfindERKSsj
                0x0000000000043800       0x60 /home/jfb/nacl_sdk/pepper_42/toolchain/linux_x86_newlib/bin/../lib/gcc/x86_64-nacl/4.4.3/../../../../x86_64-nacl/lib/../lib32/libstdc++.a(string-inst.o)
                0x0000000000043800                _ZNKSs5rfindERKSsj
 .text._ZNKSs7compareERKSs
                0x0000000000043860       0x60 /home/jfb/nacl_sdk/pepper_42/toolchain/linux_x86_newlib/bin/../lib/gcc/x86_64-nacl/4.4.3/../../../../x86_64-nacl/lib/../lib32/libstdc++.a(string-inst.o)
                0x0000000000043860                _ZNKSs7compareERKSs
 .text._ZNKSs7compareEjjPKcj
                0x00000000000438c0       0xa0 /home/jfb/nacl_sdk/pepper_42/toolchain/linux_x86_newlib/bin/../lib/gcc/x86_64-nacl/4.4.3/../../../../x86_64-nacl/lib/../lib32/libstdc++.a(string-inst.o)
                0x00000000000438c0                _ZNKSs7compareEjjPKcj
 .text._ZNKSs7compareEjjRKSsjj
                0x0000000000043960       0xa0 /home/jfb/nacl_sdk/pepper_42/toolchain/linux_x86_newlib/bin/../lib/gcc/x86_64-nacl/4.4.3/../../../../x86_64-nacl/lib/../lib32/libstdc++.a(string-inst.o)
                0x0000000000043960                _ZNKSs7compareEjjRKSsjj
 .text._ZNKSs7compareEjjRKSs
                0x0000000000043a00       0xa0 /home/jfb/nacl_sdk/pepper_42/toolchain/linux_x86_newlib/bin/../lib/gcc/x86_64-nacl/4.4.3/../../../../x86_64-nacl/lib/../lib32/libstdc++.a(string-inst.o)
                0x0000000000043a00                _ZNKSs7compareEjjRKSs
 .text._ZNKSs7compareEPKc
                0x0000000000043aa0       0x80 /home/jfb/nacl_sdk/pepper_42/toolchain/linux_x86_newlib/bin/../lib/gcc/x86_64-nacl/4.4.3/../../../../x86_64-nacl/lib/../lib32/libstdc++.a(string-inst.o)
                0x0000000000043aa0                _ZNKSs7compareEPKc
 .text._ZNKSs5rfindEPKcj
                0x0000000000043b20       0x60 /home/jfb/nacl_sdk/pepper_42/toolchain/linux_x86_newlib/bin/../lib/gcc/x86_64-nacl/4.4.3/../../../../x86_64-nacl/lib/../lib32/libstdc++.a(string-inst.o)
                0x0000000000043b20                _ZNKSs5rfindEPKcj
 .text._ZNKSs4findEPKcj
                0x0000000000043b80       0x60 /home/jfb/nacl_sdk/pepper_42/toolchain/linux_x86_newlib/bin/../lib/gcc/x86_64-nacl/4.4.3/../../../../x86_64-nacl/lib/../lib32/libstdc++.a(string-inst.o)
                0x0000000000043b80                _ZNKSs4findEPKcj
 .text._ZNKSs16find_last_not_ofEPKcj
                0x0000000000043be0       0x60 /home/jfb/nacl_sdk/pepper_42/toolchain/linux_x86_newlib/bin/../lib/gcc/x86_64-nacl/4.4.3/../../../../x86_64-nacl/lib/../lib32/libstdc++.a(string-inst.o)
                0x0000000000043be0                _ZNKSs16find_last_not_ofEPKcj
 .text._ZNKSs17find_first_not_ofEPKcj
                0x0000000000043c40       0x60 /home/jfb/nacl_sdk/pepper_42/toolchain/linux_x86_newlib/bin/../lib/gcc/x86_64-nacl/4.4.3/../../../../x86_64-nacl/lib/../lib32/libstdc++.a(string-inst.o)
                0x0000000000043c40                _ZNKSs17find_first_not_ofEPKcj
 .text._ZNKSs12find_last_ofEPKcj
                0x0000000000043ca0       0x60 /home/jfb/nacl_sdk/pepper_42/toolchain/linux_x86_newlib/bin/../lib/gcc/x86_64-nacl/4.4.3/../../../../x86_64-nacl/lib/../lib32/libstdc++.a(string-inst.o)
                0x0000000000043ca0                _ZNKSs12find_last_ofEPKcj
 .text._ZNKSs13find_first_ofEPKcj
                0x0000000000043d00       0x60 /home/jfb/nacl_sdk/pepper_42/toolchain/linux_x86_newlib/bin/../lib/gcc/x86_64-nacl/4.4.3/../../../../x86_64-nacl/lib/../lib32/libstdc++.a(string-inst.o)
                0x0000000000043d00                _ZNKSs13find_first_ofEPKcj
 .text._ZNKSs7compareEjjPKc
                0x0000000000043d60       0xa0 /home/jfb/nacl_sdk/pepper_42/toolchain/linux_x86_newlib/bin/../lib/gcc/x86_64-nacl/4.4.3/../../../../x86_64-nacl/lib/../lib32/libstdc++.a(string-inst.o)
                0x0000000000043d60                _ZNKSs7compareEjjPKc
 .text._ZNSs13_S_copy_charsEPcS_S_
                0x0000000000043e00       0x60 /home/jfb/nacl_sdk/pepper_42/toolchain/linux_x86_newlib/bin/../lib/gcc/x86_64-nacl/4.4.3/../../../../x86_64-nacl/lib/../lib32/libstdc++.a(string-inst.o)
                0x0000000000043e00                _ZNSs13_S_copy_charsEPcS_S_
 .text._ZNSs13_S_copy_charsEPcPKcS1_
                0x0000000000043e60       0x60 /home/jfb/nacl_sdk/pepper_42/toolchain/linux_x86_newlib/bin/../lib/gcc/x86_64-nacl/4.4.3/../../../../x86_64-nacl/lib/../lib32/libstdc++.a(string-inst.o)
                0x0000000000043e60                _ZNSs13_S_copy_charsEPcPKcS1_
 .text._ZNSs13_S_copy_charsEPcN9__gnu_cxx17__normal_iteratorIPKcSsEES4_
                0x0000000000043ec0       0x60 /home/jfb/nacl_sdk/pepper_42/toolchain/linux_x86_newlib/bin/../lib/gcc/x86_64-nacl/4.4.3/../../../../x86_64-nacl/lib/../lib32/libstdc++.a(string-inst.o)
                0x0000000000043ec0                _ZNSs13_S_copy_charsEPcN9__gnu_cxx17__normal_iteratorIPKcSsEES4_
 .text._ZNSs13_S_copy_charsEPcN9__gnu_cxx17__normal_iteratorIS_SsEES2_
                0x0000000000043f20       0x60 /home/jfb/nacl_sdk/pepper_42/toolchain/linux_x86_newlib/bin/../lib/gcc/x86_64-nacl/4.4.3/../../../../x86_64-nacl/lib/../lib32/libstdc++.a(string-inst.o)
                0x0000000000043f20                _ZNSs13_S_copy_charsEPcN9__gnu_cxx17__normal_iteratorIS_SsEES2_
 .text._ZNSs4_Rep8_M_cloneERKSaIcEj
                0x0000000000043f80      0x100 /home/jfb/nacl_sdk/pepper_42/toolchain/linux_x86_newlib/bin/../lib/gcc/x86_64-nacl/4.4.3/../../../../x86_64-nacl/lib/../lib32/libstdc++.a(string-inst.o)
                0x0000000000043f80                _ZNSs4_Rep8_M_cloneERKSaIcEj
 .text._ZNSs4_Rep7_M_grabERKSaIcES2_
                0x0000000000044080       0xa0 /home/jfb/nacl_sdk/pepper_42/toolchain/linux_x86_newlib/bin/../lib/gcc/x86_64-nacl/4.4.3/../../../../x86_64-nacl/lib/../lib32/libstdc++.a(string-inst.o)
                0x0000000000044080                _ZNSs4_Rep7_M_grabERKSaIcES2_
 .text._ZNSsC1ERKSs
                0x0000000000044120       0xe0 /home/jfb/nacl_sdk/pepper_42/toolchain/linux_x86_newlib/bin/../lib/gcc/x86_64-nacl/4.4.3/../../../../x86_64-nacl/lib/../lib32/libstdc++.a(string-inst.o)
                0x0000000000044120                _ZNSsC1ERKSs
 .text._ZNSsC2ERKSs
                0x0000000000044200       0xe0 /home/jfb/nacl_sdk/pepper_42/toolchain/linux_x86_newlib/bin/../lib/gcc/x86_64-nacl/4.4.3/../../../../x86_64-nacl/lib/../lib32/libstdc++.a(string-inst.o)
                0x0000000000044200                _ZNSsC2ERKSs
 .text._ZNKSs4copyEPcjj
                0x00000000000442e0       0xe0 /home/jfb/nacl_sdk/pepper_42/toolchain/linux_x86_newlib/bin/../lib/gcc/x86_64-nacl/4.4.3/../../../../x86_64-nacl/lib/../lib32/libstdc++.a(string-inst.o)
                0x00000000000442e0                _ZNKSs4copyEPcjj
 .text._ZNSs12_S_constructIPKcEEPcT_S3_RKSaIcESt20forward_iterator_tag
                0x00000000000443c0      0x180 /home/jfb/nacl_sdk/pepper_42/toolchain/linux_x86_newlib/bin/../lib/gcc/x86_64-nacl/4.4.3/../../../../x86_64-nacl/lib/../lib32/libstdc++.a(string-inst.o)
                0x00000000000443c0                _ZNSs12_S_constructIPKcEEPcT_S3_RKSaIcESt20forward_iterator_tag
 .text._ZNSsC1IPKcEET_S2_RKSaIcE
                0x0000000000044540       0x60 /home/jfb/nacl_sdk/pepper_42/toolchain/linux_x86_newlib/bin/../lib/gcc/x86_64-nacl/4.4.3/../../../../x86_64-nacl/lib/../lib32/libstdc++.a(string-inst.o)
                0x0000000000044540                _ZNSsC1IPKcEET_S2_RKSaIcE
 .text._ZNSsC2IPKcEET_S2_RKSaIcE
                0x00000000000445a0       0x60 /home/jfb/nacl_sdk/pepper_42/toolchain/linux_x86_newlib/bin/../lib/gcc/x86_64-nacl/4.4.3/../../../../x86_64-nacl/lib/../lib32/libstdc++.a(string-inst.o)
                0x00000000000445a0                _ZNSsC2IPKcEET_S2_RKSaIcE
 .text._ZNSsC1ESt16initializer_listIcERKSaIcE
                0x0000000000044600       0x60 /home/jfb/nacl_sdk/pepper_42/toolchain/linux_x86_newlib/bin/../lib/gcc/x86_64-nacl/4.4.3/../../../../x86_64-nacl/lib/../lib32/libstdc++.a(string-inst.o)
                0x0000000000044600                _ZNSsC1ESt16initializer_listIcERKSaIcE
 .text._ZNSsC2ESt16initializer_listIcERKSaIcE
                0x0000000000044660       0x60 /home/jfb/nacl_sdk/pepper_42/toolchain/linux_x86_newlib/bin/../lib/gcc/x86_64-nacl/4.4.3/../../../../x86_64-nacl/lib/../lib32/libstdc++.a(string-inst.o)
                0x0000000000044660                _ZNSsC2ESt16initializer_listIcERKSaIcE
 .text._ZNSsC1EPKcRKSaIcE
                0x00000000000446c0       0x80 /home/jfb/nacl_sdk/pepper_42/toolchain/linux_x86_newlib/bin/../lib/gcc/x86_64-nacl/4.4.3/../../../../x86_64-nacl/lib/../lib32/libstdc++.a(string-inst.o)
                0x00000000000446c0                _ZNSsC1EPKcRKSaIcE
 .text._ZNSsC2EPKcRKSaIcE
                0x0000000000044740       0x80 /home/jfb/nacl_sdk/pepper_42/toolchain/linux_x86_newlib/bin/../lib/gcc/x86_64-nacl/4.4.3/../../../../x86_64-nacl/lib/../lib32/libstdc++.a(string-inst.o)
                0x0000000000044740                _ZNSsC2EPKcRKSaIcE
 .text._ZNSsC1EPKcjRKSaIcE
                0x00000000000447c0       0x60 /home/jfb/nacl_sdk/pepper_42/toolchain/linux_x86_newlib/bin/../lib/gcc/x86_64-nacl/4.4.3/../../../../x86_64-nacl/lib/../lib32/libstdc++.a(string-inst.o)
                0x00000000000447c0                _ZNSsC1EPKcjRKSaIcE
 .text._ZNSsC2EPKcjRKSaIcE
                0x0000000000044820       0x60 /home/jfb/nacl_sdk/pepper_42/toolchain/linux_x86_newlib/bin/../lib/gcc/x86_64-nacl/4.4.3/../../../../x86_64-nacl/lib/../lib32/libstdc++.a(string-inst.o)
                0x0000000000044820                _ZNSsC2EPKcjRKSaIcE
 .text._ZNSs12_S_constructIPcEES0_T_S1_RKSaIcESt20forward_iterator_tag
                0x0000000000044880      0x180 /home/jfb/nacl_sdk/pepper_42/toolchain/linux_x86_newlib/bin/../lib/gcc/x86_64-nacl/4.4.3/../../../../x86_64-nacl/lib/../lib32/libstdc++.a(string-inst.o)
                0x0000000000044880                _ZNSs12_S_constructIPcEES0_T_S1_RKSaIcESt20forward_iterator_tag
 .text._ZNSsC1IPcEET_S1_RKSaIcE
                0x0000000000044a00       0x60 /home/jfb/nacl_sdk/pepper_42/toolchain/linux_x86_newlib/bin/../lib/gcc/x86_64-nacl/4.4.3/../../../../x86_64-nacl/lib/../lib32/libstdc++.a(string-inst.o)
                0x0000000000044a00                _ZNSsC1IPcEET_S1_RKSaIcE
 .text._ZNSsC2IPcEET_S1_RKSaIcE
                0x0000000000044a60       0x60 /home/jfb/nacl_sdk/pepper_42/toolchain/linux_x86_newlib/bin/../lib/gcc/x86_64-nacl/4.4.3/../../../../x86_64-nacl/lib/../lib32/libstdc++.a(string-inst.o)
                0x0000000000044a60                _ZNSsC2IPcEET_S1_RKSaIcE
 .text._ZNSsC1ERKSsjjRKSaIcE
                0x0000000000044ac0       0xa0 /home/jfb/nacl_sdk/pepper_42/toolchain/linux_x86_newlib/bin/../lib/gcc/x86_64-nacl/4.4.3/../../../../x86_64-nacl/lib/../lib32/libstdc++.a(string-inst.o)
                0x0000000000044ac0                _ZNSsC1ERKSsjjRKSaIcE
 .text._ZNSsC2ERKSsjjRKSaIcE
                0x0000000000044b60       0xa0 /home/jfb/nacl_sdk/pepper_42/toolchain/linux_x86_newlib/bin/../lib/gcc/x86_64-nacl/4.4.3/../../../../x86_64-nacl/lib/../lib32/libstdc++.a(string-inst.o)
                0x0000000000044b60                _ZNSsC2ERKSsjjRKSaIcE
 .text._ZNSsC1ERKSsjj
                0x0000000000044c00       0xc0 /home/jfb/nacl_sdk/pepper_42/toolchain/linux_x86_newlib/bin/../lib/gcc/x86_64-nacl/4.4.3/../../../../x86_64-nacl/lib/../lib32/libstdc++.a(string-inst.o)
                0x0000000000044c00                _ZNSsC1ERKSsjj
 .text._ZNKSs6substrEjj
                0x0000000000044cc0       0x80 /home/jfb/nacl_sdk/pepper_42/toolchain/linux_x86_newlib/bin/../lib/gcc/x86_64-nacl/4.4.3/../../../../x86_64-nacl/lib/../lib32/libstdc++.a(string-inst.o)
                0x0000000000044cc0                _ZNKSs6substrEjj
 .text._ZNSsC2ERKSsjj
                0x0000000000044d40       0xc0 /home/jfb/nacl_sdk/pepper_42/toolchain/linux_x86_newlib/bin/../lib/gcc/x86_64-nacl/4.4.3/../../../../x86_64-nacl/lib/../lib32/libstdc++.a(string-inst.o)
                0x0000000000044d40                _ZNSsC2ERKSsjj
 .text._ZNSs12_S_constructEjcRKSaIcE
                0x0000000000044e00       0xe0 /home/jfb/nacl_sdk/pepper_42/toolchain/linux_x86_newlib/bin/../lib/gcc/x86_64-nacl/4.4.3/../../../../x86_64-nacl/lib/../lib32/libstdc++.a(string-inst.o)
                0x0000000000044e00                _ZNSs12_S_constructEjcRKSaIcE
 .text._ZNSsC1EjcRKSaIcE
                0x0000000000044ee0       0x40 /home/jfb/nacl_sdk/pepper_42/toolchain/linux_x86_newlib/bin/../lib/gcc/x86_64-nacl/4.4.3/../../../../x86_64-nacl/lib/../lib32/libstdc++.a(string-inst.o)
                0x0000000000044ee0                _ZNSsC1EjcRKSaIcE
 .text._ZNSsC2EjcRKSaIcE
                0x0000000000044f20       0x40 /home/jfb/nacl_sdk/pepper_42/toolchain/linux_x86_newlib/bin/../lib/gcc/x86_64-nacl/4.4.3/../../../../x86_64-nacl/lib/../lib32/libstdc++.a(string-inst.o)
                0x0000000000044f20                _ZNSsC2EjcRKSaIcE
 .text._ZNSsC1ERKSaIcE
                0x0000000000044f60       0x60 /home/jfb/nacl_sdk/pepper_42/toolchain/linux_x86_newlib/bin/../lib/gcc/x86_64-nacl/4.4.3/../../../../x86_64-nacl/lib/../lib32/libstdc++.a(string-inst.o)
                0x0000000000044f60                _ZNSsC1ERKSaIcE
 .text._ZNSsC2ERKSaIcE
                0x0000000000044fc0       0x60 /home/jfb/nacl_sdk/pepper_42/toolchain/linux_x86_newlib/bin/../lib/gcc/x86_64-nacl/4.4.3/../../../../x86_64-nacl/lib/../lib32/libstdc++.a(string-inst.o)
                0x0000000000044fc0                _ZNSsC2ERKSaIcE
 .text._ZNSs12_S_constructIN9__gnu_cxx17__normal_iteratorIPcSsEEEES2_T_S4_RKSaIcESt20forward_iterator_tag
                0x0000000000045020       0xc0 /home/jfb/nacl_sdk/pepper_42/toolchain/linux_x86_newlib/bin/../lib/gcc/x86_64-nacl/4.4.3/../../../../x86_64-nacl/lib/../lib32/libstdc++.a(string-inst.o)
                0x0000000000045020                _ZNSs12_S_constructIN9__gnu_cxx17__normal_iteratorIPcSsEEEES2_T_S4_RKSaIcESt20forward_iterator_tag
 .text._ZNSsC1IN9__gnu_cxx17__normal_iteratorIPcSsEEEET_S4_RKSaIcE
                0x00000000000450e0       0x60 /home/jfb/nacl_sdk/pepper_42/toolchain/linux_x86_newlib/bin/../lib/gcc/x86_64-nacl/4.4.3/../../../../x86_64-nacl/lib/../lib32/libstdc++.a(string-inst.o)
                0x00000000000450e0                _ZNSsC1IN9__gnu_cxx17__normal_iteratorIPcSsEEEET_S4_RKSaIcE
 .text._ZNSsC2IN9__gnu_cxx17__normal_iteratorIPcSsEEEET_S4_RKSaIcE
                0x0000000000045140       0x60 /home/jfb/nacl_sdk/pepper_42/toolchain/linux_x86_newlib/bin/../lib/gcc/x86_64-nacl/4.4.3/../../../../x86_64-nacl/lib/../lib32/libstdc++.a(string-inst.o)
                0x0000000000045140                _ZNSsC2IN9__gnu_cxx17__normal_iteratorIPcSsEEEET_S4_RKSaIcE
 .text._ZNSsD1Ev
                0x00000000000451a0       0xc0 /home/jfb/nacl_sdk/pepper_42/toolchain/linux_x86_newlib/bin/../lib/gcc/x86_64-nacl/4.4.3/../../../../x86_64-nacl/lib/../lib32/libstdc++.a(string-inst.o)
                0x00000000000451a0                _ZNSsD1Ev
 .text._ZNSsD2Ev
                0x0000000000045260       0xc0 /home/jfb/nacl_sdk/pepper_42/toolchain/linux_x86_newlib/bin/../lib/gcc/x86_64-nacl/4.4.3/../../../../x86_64-nacl/lib/../lib32/libstdc++.a(string-inst.o)
                0x0000000000045260                _ZNSsD2Ev
 .text._ZNSs6assignERKSs
                0x0000000000045320      0x1e0 /home/jfb/nacl_sdk/pepper_42/toolchain/linux_x86_newlib/bin/../lib/gcc/x86_64-nacl/4.4.3/../../../../x86_64-nacl/lib/../lib32/libstdc++.a(string-inst.o)
                0x0000000000045320                _ZNSs6assignERKSs
 .text._ZNSsaSERKSs
                0x0000000000045500       0x20 /home/jfb/nacl_sdk/pepper_42/toolchain/linux_x86_newlib/bin/../lib/gcc/x86_64-nacl/4.4.3/../../../../x86_64-nacl/lib/../lib32/libstdc++.a(string-inst.o)
                0x0000000000045500                _ZNSsaSERKSs
 .text._ZNSs7reserveEj
                0x0000000000045520      0x180 /home/jfb/nacl_sdk/pepper_42/toolchain/linux_x86_newlib/bin/../lib/gcc/x86_64-nacl/4.4.3/../../../../x86_64-nacl/lib/../lib32/libstdc++.a(string-inst.o)
                0x0000000000045520                _ZNSs7reserveEj
 .text._ZNSs9push_backEc
                0x00000000000456a0       0xe0 /home/jfb/nacl_sdk/pepper_42/toolchain/linux_x86_newlib/bin/../lib/gcc/x86_64-nacl/4.4.3/../../../../x86_64-nacl/lib/../lib32/libstdc++.a(string-inst.o)
                0x00000000000456a0                _ZNSs9push_backEc
 .text._ZNSs6appendEjc
                0x0000000000045780      0x160 /home/jfb/nacl_sdk/pepper_42/toolchain/linux_x86_newlib/bin/../lib/gcc/x86_64-nacl/4.4.3/../../../../x86_64-nacl/lib/../lib32/libstdc++.a(string-inst.o)
                0x0000000000045780                _ZNSs6appendEjc
 .text._ZNSs6appendEPKcj
                0x00000000000458e0      0x1a0 /home/jfb/nacl_sdk/pepper_42/toolchain/linux_x86_newlib/bin/../lib/gcc/x86_64-nacl/4.4.3/../../../../x86_64-nacl/lib/../lib32/libstdc++.a(string-inst.o)
                0x00000000000458e0                _ZNSs6appendEPKcj
 .text._ZNSs6appendEPKc
                0x0000000000045a80       0x60 /home/jfb/nacl_sdk/pepper_42/toolchain/linux_x86_newlib/bin/../lib/gcc/x86_64-nacl/4.4.3/../../../../x86_64-nacl/lib/../lib32/libstdc++.a(string-inst.o)
                0x0000000000045a80                _ZNSs6appendEPKc
 .text._ZNSspLEPKc
                0x0000000000045ae0       0x60 /home/jfb/nacl_sdk/pepper_42/toolchain/linux_x86_newlib/bin/../lib/gcc/x86_64-nacl/4.4.3/../../../../x86_64-nacl/lib/../lib32/libstdc++.a(string-inst.o)
                0x0000000000045ae0                _ZNSspLEPKc
 .text._ZNSs6appendERKSsjj
                0x0000000000045b40      0x140 /home/jfb/nacl_sdk/pepper_42/toolchain/linux_x86_newlib/bin/../lib/gcc/x86_64-nacl/4.4.3/../../../../x86_64-nacl/lib/../lib32/libstdc++.a(string-inst.o)
                0x0000000000045b40                _ZNSs6appendERKSsjj
 .text._ZNSs6appendERKSs
                0x0000000000045c80      0x120 /home/jfb/nacl_sdk/pepper_42/toolchain/linux_x86_newlib/bin/../lib/gcc/x86_64-nacl/4.4.3/../../../../x86_64-nacl/lib/../lib32/libstdc++.a(string-inst.o)
                0x0000000000045c80                _ZNSs6appendERKSs
 .text._ZStplIcSt11char_traitsIcESaIcEESbIT_T0_T1_ERKS6_S8_
                0x0000000000045da0       0xa0 /home/jfb/nacl_sdk/pepper_42/toolchain/linux_x86_newlib/bin/../lib/gcc/x86_64-nacl/4.4.3/../../../../x86_64-nacl/lib/../lib32/libstdc++.a(string-inst.o)
                0x0000000000045da0                _ZStplIcSt11char_traitsIcESaIcEESbIT_T0_T1_ERKS6_S8_
 .text._ZNSspLERKSs
                0x0000000000045e40       0x20 /home/jfb/nacl_sdk/pepper_42/toolchain/linux_x86_newlib/bin/../lib/gcc/x86_64-nacl/4.4.3/../../../../x86_64-nacl/lib/../lib32/libstdc++.a(string-inst.o)
                0x0000000000045e40                _ZNSspLERKSs
 .text._ZStplIcSt11char_traitsIcESaIcEESbIT_T0_T1_ES3_RKS6_
                0x0000000000045e60       0xe0 /home/jfb/nacl_sdk/pepper_42/toolchain/linux_x86_newlib/bin/../lib/gcc/x86_64-nacl/4.4.3/../../../../x86_64-nacl/lib/../lib32/libstdc++.a(string-inst.o)
                0x0000000000045e60                _ZStplIcSt11char_traitsIcESaIcEESbIT_T0_T1_ES3_RKS6_
 .text._ZStplIcSt11char_traitsIcESaIcEESbIT_T0_T1_EPKS3_RKS6_
                0x0000000000045f40       0xe0 /home/jfb/nacl_sdk/pepper_42/toolchain/linux_x86_newlib/bin/../lib/gcc/x86_64-nacl/4.4.3/../../../../x86_64-nacl/lib/../lib32/libstdc++.a(string-inst.o)
                0x0000000000045f40                _ZStplIcSt11char_traitsIcESaIcEESbIT_T0_T1_EPKS3_RKS6_
 .text._ZNSspLEc
                0x0000000000046020       0xc0 /home/jfb/nacl_sdk/pepper_42/toolchain/linux_x86_newlib/bin/../lib/gcc/x86_64-nacl/4.4.3/../../../../x86_64-nacl/lib/../lib32/libstdc++.a(string-inst.o)
                0x0000000000046020                _ZNSspLEc
 .text._ZNSs9_M_mutateEjjj
                0x00000000000460e0      0x300 /home/jfb/nacl_sdk/pepper_42/toolchain/linux_x86_newlib/bin/../lib/gcc/x86_64-nacl/4.4.3/../../../../x86_64-nacl/lib/../lib32/libstdc++.a(string-inst.o)
                0x00000000000460e0                _ZNSs9_M_mutateEjjj
 .text._ZNSs15_M_replace_safeEjjPKcj
                0x00000000000463e0       0xe0 /home/jfb/nacl_sdk/pepper_42/toolchain/linux_x86_newlib/bin/../lib/gcc/x86_64-nacl/4.4.3/../../../../x86_64-nacl/lib/../lib32/libstdc++.a(string-inst.o)
                0x00000000000463e0                _ZNSs15_M_replace_safeEjjPKcj
 .text._ZNSs6assignEPKcj
                0x00000000000464c0      0x1a0 /home/jfb/nacl_sdk/pepper_42/toolchain/linux_x86_newlib/bin/../lib/gcc/x86_64-nacl/4.4.3/../../../../x86_64-nacl/lib/../lib32/libstdc++.a(string-inst.o)
                0x00000000000464c0                _ZNSs6assignEPKcj
 .text._ZNSs6assignEPKc
                0x0000000000046660       0x60 /home/jfb/nacl_sdk/pepper_42/toolchain/linux_x86_newlib/bin/../lib/gcc/x86_64-nacl/4.4.3/../../../../x86_64-nacl/lib/../lib32/libstdc++.a(string-inst.o)
                0x0000000000046660                _ZNSs6assignEPKc
 .text._ZNSs6assignERKSsjj
                0x00000000000466c0       0x80 /home/jfb/nacl_sdk/pepper_42/toolchain/linux_x86_newlib/bin/../lib/gcc/x86_64-nacl/4.4.3/../../../../x86_64-nacl/lib/../lib32/libstdc++.a(string-inst.o)
                0x00000000000466c0                _ZNSs6assignERKSsjj
 .text._ZNSsaSEPKc
                0x0000000000046740       0x60 /home/jfb/nacl_sdk/pepper_42/toolchain/linux_x86_newlib/bin/../lib/gcc/x86_64-nacl/4.4.3/../../../../x86_64-nacl/lib/../lib32/libstdc++.a(string-inst.o)
                0x0000000000046740                _ZNSsaSEPKc
 .text._ZNSs14_M_replace_auxEjjjc
                0x00000000000467a0      0x120 /home/jfb/nacl_sdk/pepper_42/toolchain/linux_x86_newlib/bin/../lib/gcc/x86_64-nacl/4.4.3/../../../../x86_64-nacl/lib/../lib32/libstdc++.a(string-inst.o)
                0x00000000000467a0                _ZNSs14_M_replace_auxEjjjc
 .text._ZNSs7replaceEN9__gnu_cxx17__normal_iteratorIPcSsEES2_jc
                0x00000000000468c0       0x40 /home/jfb/nacl_sdk/pepper_42/toolchain/linux_x86_newlib/bin/../lib/gcc/x86_64-nacl/4.4.3/../../../../x86_64-nacl/lib/../lib32/libstdc++.a(string-inst.o)
                0x00000000000468c0                _ZNSs7replaceEN9__gnu_cxx17__normal_iteratorIPcSsEES2_jc
 .text._ZNSs7replaceEjjjc
                0x0000000000046900       0x80 /home/jfb/nacl_sdk/pepper_42/toolchain/linux_x86_newlib/bin/../lib/gcc/x86_64-nacl/4.4.3/../../../../x86_64-nacl/lib/../lib32/libstdc++.a(string-inst.o)
                0x0000000000046900                _ZNSs7replaceEjjjc
 .text._ZNSs6insertEN9__gnu_cxx17__normal_iteratorIPcSsEEc
                0x0000000000046980       0x80 /home/jfb/nacl_sdk/pepper_42/toolchain/linux_x86_newlib/bin/../lib/gcc/x86_64-nacl/4.4.3/../../../../x86_64-nacl/lib/../lib32/libstdc++.a(string-inst.o)
                0x0000000000046980                _ZNSs6insertEN9__gnu_cxx17__normal_iteratorIPcSsEEc
 .text._ZNSs6insertEjjc
                0x0000000000046a00       0x80 /home/jfb/nacl_sdk/pepper_42/toolchain/linux_x86_newlib/bin/../lib/gcc/x86_64-nacl/4.4.3/../../../../x86_64-nacl/lib/../lib32/libstdc++.a(string-inst.o)
                0x0000000000046a00                _ZNSs6insertEjjc
 .text._ZNSs6assignEjc
                0x0000000000046a80       0x60 /home/jfb/nacl_sdk/pepper_42/toolchain/linux_x86_newlib/bin/../lib/gcc/x86_64-nacl/4.4.3/../../../../x86_64-nacl/lib/../lib32/libstdc++.a(string-inst.o)
                0x0000000000046a80                _ZNSs6assignEjc
 .text._ZNSs6insertEN9__gnu_cxx17__normal_iteratorIPcSsEEjc
                0x0000000000046ae0       0x60 /home/jfb/nacl_sdk/pepper_42/toolchain/linux_x86_newlib/bin/../lib/gcc/x86_64-nacl/4.4.3/../../../../x86_64-nacl/lib/../lib32/libstdc++.a(string-inst.o)
                0x0000000000046ae0                _ZNSs6insertEN9__gnu_cxx17__normal_iteratorIPcSsEEjc
 .text._ZNSsaSEc
                0x0000000000046b40       0x60 /home/jfb/nacl_sdk/pepper_42/toolchain/linux_x86_newlib/bin/../lib/gcc/x86_64-nacl/4.4.3/../../../../x86_64-nacl/lib/../lib32/libstdc++.a(string-inst.o)
                0x0000000000046b40                _ZNSsaSEc
 .text._ZNSs5eraseEN9__gnu_cxx17__normal_iteratorIPcSsEES2_
                0x0000000000046ba0       0x80 /home/jfb/nacl_sdk/pepper_42/toolchain/linux_x86_newlib/bin/../lib/gcc/x86_64-nacl/4.4.3/../../../../x86_64-nacl/lib/../lib32/libstdc++.a(string-inst.o)
                0x0000000000046ba0                _ZNSs5eraseEN9__gnu_cxx17__normal_iteratorIPcSsEES2_
 .text._ZNSs5eraseEN9__gnu_cxx17__normal_iteratorIPcSsEE
                0x0000000000046c20       0x80 /home/jfb/nacl_sdk/pepper_42/toolchain/linux_x86_newlib/bin/../lib/gcc/x86_64-nacl/4.4.3/../../../../x86_64-nacl/lib/../lib32/libstdc++.a(string-inst.o)
                0x0000000000046c20                _ZNSs5eraseEN9__gnu_cxx17__normal_iteratorIPcSsEE
 .text._ZNSs5eraseEjj
                0x0000000000046ca0       0x80 /home/jfb/nacl_sdk/pepper_42/toolchain/linux_x86_newlib/bin/../lib/gcc/x86_64-nacl/4.4.3/../../../../x86_64-nacl/lib/../lib32/libstdc++.a(string-inst.o)
                0x0000000000046ca0                _ZNSs5eraseEjj
 .text._ZNSs6insertEjPKcj
                0x0000000000046d20      0x300 /home/jfb/nacl_sdk/pepper_42/toolchain/linux_x86_newlib/bin/../lib/gcc/x86_64-nacl/4.4.3/../../../../x86_64-nacl/lib/../lib32/libstdc++.a(string-inst.o)
                0x0000000000046d20                _ZNSs6insertEjPKcj
 .text._ZNSs6insertEjPKc
                0x0000000000047020       0x60 /home/jfb/nacl_sdk/pepper_42/toolchain/linux_x86_newlib/bin/../lib/gcc/x86_64-nacl/4.4.3/../../../../x86_64-nacl/lib/../lib32/libstdc++.a(string-inst.o)
                0x0000000000047020                _ZNSs6insertEjPKc
 .text._ZNSs6insertEjRKSsjj
                0x0000000000047080       0x80 /home/jfb/nacl_sdk/pepper_42/toolchain/linux_x86_newlib/bin/../lib/gcc/x86_64-nacl/4.4.3/../../../../x86_64-nacl/lib/../lib32/libstdc++.a(string-inst.o)
                0x0000000000047080                _ZNSs6insertEjRKSsjj
 .text._ZNSs6insertEjRKSs
                0x0000000000047100       0x60 /home/jfb/nacl_sdk/pepper_42/toolchain/linux_x86_newlib/bin/../lib/gcc/x86_64-nacl/4.4.3/../../../../x86_64-nacl/lib/../lib32/libstdc++.a(string-inst.o)
                0x0000000000047100                _ZNSs6insertEjRKSs
 .text._ZNSs5clearEv
                0x0000000000047160       0x60 /home/jfb/nacl_sdk/pepper_42/toolchain/linux_x86_newlib/bin/../lib/gcc/x86_64-nacl/4.4.3/../../../../x86_64-nacl/lib/../lib32/libstdc++.a(string-inst.o)
                0x0000000000047160                _ZNSs5clearEv
 .text._ZNSs12_M_leak_hardEv
                0x00000000000471c0       0xc0 /home/jfb/nacl_sdk/pepper_42/toolchain/linux_x86_newlib/bin/../lib/gcc/x86_64-nacl/4.4.3/../../../../x86_64-nacl/lib/../lib32/libstdc++.a(string-inst.o)
                0x00000000000471c0                _ZNSs12_M_leak_hardEv
 .text._ZNSs7_M_leakEv
                0x0000000000047280       0x40 /home/jfb/nacl_sdk/pepper_42/toolchain/linux_x86_newlib/bin/../lib/gcc/x86_64-nacl/4.4.3/../../../../x86_64-nacl/lib/../lib32/libstdc++.a(string-inst.o)
                0x0000000000047280                _ZNSs7_M_leakEv
 .text._ZNSs2atEj
                0x00000000000472c0       0xa0 /home/jfb/nacl_sdk/pepper_42/toolchain/linux_x86_newlib/bin/../lib/gcc/x86_64-nacl/4.4.3/../../../../x86_64-nacl/lib/../lib32/libstdc++.a(string-inst.o)
                0x00000000000472c0                _ZNSs2atEj
 .text._ZNSsixEj
                0x0000000000047360       0x60 /home/jfb/nacl_sdk/pepper_42/toolchain/linux_x86_newlib/bin/../lib/gcc/x86_64-nacl/4.4.3/../../../../x86_64-nacl/lib/../lib32/libstdc++.a(string-inst.o)
                0x0000000000047360                _ZNSsixEj
 .text._ZNSs3endEv
                0x00000000000473c0       0x80 /home/jfb/nacl_sdk/pepper_42/toolchain/linux_x86_newlib/bin/../lib/gcc/x86_64-nacl/4.4.3/../../../../x86_64-nacl/lib/../lib32/libstdc++.a(string-inst.o)
                0x00000000000473c0                _ZNSs3endEv
 .text._ZNSs5beginEv
                0x0000000000047440       0x80 /home/jfb/nacl_sdk/pepper_42/toolchain/linux_x86_newlib/bin/../lib/gcc/x86_64-nacl/4.4.3/../../../../x86_64-nacl/lib/../lib32/libstdc++.a(string-inst.o)
                0x0000000000047440                _ZNSs5beginEv
 .text._ZNSs4rendEv
                0x00000000000474c0       0x80 /home/jfb/nacl_sdk/pepper_42/toolchain/linux_x86_newlib/bin/../lib/gcc/x86_64-nacl/4.4.3/../../../../x86_64-nacl/lib/../lib32/libstdc++.a(string-inst.o)
                0x00000000000474c0                _ZNSs4rendEv
 .text._ZNSs6rbeginEv
                0x0000000000047540       0x80 /home/jfb/nacl_sdk/pepper_42/toolchain/linux_x86_newlib/bin/../lib/gcc/x86_64-nacl/4.4.3/../../../../x86_64-nacl/lib/../lib32/libstdc++.a(string-inst.o)
                0x0000000000047540                _ZNSs6rbeginEv
 .text._ZNSs6resizeEjc
                0x00000000000475c0       0xc0 /home/jfb/nacl_sdk/pepper_42/toolchain/linux_x86_newlib/bin/../lib/gcc/x86_64-nacl/4.4.3/../../../../x86_64-nacl/lib/../lib32/libstdc++.a(string-inst.o)
                0x00000000000475c0                _ZNSs6resizeEjc
 .text._ZNSs6resizeEj
                0x0000000000047680       0x40 /home/jfb/nacl_sdk/pepper_42/toolchain/linux_x86_newlib/bin/../lib/gcc/x86_64-nacl/4.4.3/../../../../x86_64-nacl/lib/../lib32/libstdc++.a(string-inst.o)
                0x0000000000047680                _ZNSs6resizeEj
 .text._ZNSs7replaceEjjPKcj
                0x00000000000476c0      0x360 /home/jfb/nacl_sdk/pepper_42/toolchain/linux_x86_newlib/bin/../lib/gcc/x86_64-nacl/4.4.3/../../../../x86_64-nacl/lib/../lib32/libstdc++.a(string-inst.o)
                0x00000000000476c0                _ZNSs7replaceEjjPKcj
 .text._ZNSs7replaceEN9__gnu_cxx17__normal_iteratorIPcSsEES2_NS0_IPKcSsEES5_
                0x0000000000047a20       0x40 /home/jfb/nacl_sdk/pepper_42/toolchain/linux_x86_newlib/bin/../lib/gcc/x86_64-nacl/4.4.3/../../../../x86_64-nacl/lib/../lib32/libstdc++.a(string-inst.o)
                0x0000000000047a20                _ZNSs7replaceEN9__gnu_cxx17__normal_iteratorIPcSsEES2_NS0_IPKcSsEES5_
 .text._ZNSs7replaceEN9__gnu_cxx17__normal_iteratorIPcSsEES2_S2_S2_
                0x0000000000047a60       0x40 /home/jfb/nacl_sdk/pepper_42/toolchain/linux_x86_newlib/bin/../lib/gcc/x86_64-nacl/4.4.3/../../../../x86_64-nacl/lib/../lib32/libstdc++.a(string-inst.o)
                0x0000000000047a60                _ZNSs7replaceEN9__gnu_cxx17__normal_iteratorIPcSsEES2_S2_S2_
 .text._ZNSs7replaceEN9__gnu_cxx17__normal_iteratorIPcSsEES2_PKcS4_
                0x0000000000047aa0       0x40 /home/jfb/nacl_sdk/pepper_42/toolchain/linux_x86_newlib/bin/../lib/gcc/x86_64-nacl/4.4.3/../../../../x86_64-nacl/lib/../lib32/libstdc++.a(string-inst.o)
                0x0000000000047aa0                _ZNSs7replaceEN9__gnu_cxx17__normal_iteratorIPcSsEES2_PKcS4_
 .text._ZNSs7replaceEN9__gnu_cxx17__normal_iteratorIPcSsEES2_S1_S1_
                0x0000000000047ae0       0x40 /home/jfb/nacl_sdk/pepper_42/toolchain/linux_x86_newlib/bin/../lib/gcc/x86_64-nacl/4.4.3/../../../../x86_64-nacl/lib/../lib32/libstdc++.a(string-inst.o)
                0x0000000000047ae0                _ZNSs7replaceEN9__gnu_cxx17__normal_iteratorIPcSsEES2_S1_S1_
 .text._ZNSs7replaceEN9__gnu_cxx17__normal_iteratorIPcSsEES2_PKcj
                0x0000000000047b20       0x40 /home/jfb/nacl_sdk/pepper_42/toolchain/linux_x86_newlib/bin/../lib/gcc/x86_64-nacl/4.4.3/../../../../x86_64-nacl/lib/../lib32/libstdc++.a(string-inst.o)
                0x0000000000047b20                _ZNSs7replaceEN9__gnu_cxx17__normal_iteratorIPcSsEES2_PKcj
 .text._ZNSs7replaceEjjPKc
                0x0000000000047b60       0x80 /home/jfb/nacl_sdk/pepper_42/toolchain/linux_x86_newlib/bin/../lib/gcc/x86_64-nacl/4.4.3/../../../../x86_64-nacl/lib/../lib32/libstdc++.a(string-inst.o)
                0x0000000000047b60                _ZNSs7replaceEjjPKc
 .text._ZNSs7replaceEjjRKSsjj
                0x0000000000047be0       0x80 /home/jfb/nacl_sdk/pepper_42/toolchain/linux_x86_newlib/bin/../lib/gcc/x86_64-nacl/4.4.3/../../../../x86_64-nacl/lib/../lib32/libstdc++.a(string-inst.o)
                0x0000000000047be0                _ZNSs7replaceEjjRKSsjj
 .text._ZNSs7replaceEjjRKSs
                0x0000000000047c60       0x60 /home/jfb/nacl_sdk/pepper_42/toolchain/linux_x86_newlib/bin/../lib/gcc/x86_64-nacl/4.4.3/../../../../x86_64-nacl/lib/../lib32/libstdc++.a(string-inst.o)
                0x0000000000047c60                _ZNSs7replaceEjjRKSs
 .text._ZNSs7replaceEN9__gnu_cxx17__normal_iteratorIPcSsEES2_PKc
                0x0000000000047cc0       0x60 /home/jfb/nacl_sdk/pepper_42/toolchain/linux_x86_newlib/bin/../lib/gcc/x86_64-nacl/4.4.3/../../../../x86_64-nacl/lib/../lib32/libstdc++.a(string-inst.o)
                0x0000000000047cc0                _ZNSs7replaceEN9__gnu_cxx17__normal_iteratorIPcSsEES2_PKc
 .text._ZNSs7replaceEN9__gnu_cxx17__normal_iteratorIPcSsEES2_RKSs
                0x0000000000047d20       0x60 /home/jfb/nacl_sdk/pepper_42/toolchain/linux_x86_newlib/bin/../lib/gcc/x86_64-nacl/4.4.3/../../../../x86_64-nacl/lib/../lib32/libstdc++.a(string-inst.o)
                0x0000000000047d20                _ZNSs7replaceEN9__gnu_cxx17__normal_iteratorIPcSsEES2_RKSs
 .text._ZNSs6assignESt16initializer_listIcE
                0x0000000000047d80       0x60 /home/jfb/nacl_sdk/pepper_42/toolchain/linux_x86_newlib/bin/../lib/gcc/x86_64-nacl/4.4.3/../../../../x86_64-nacl/lib/../lib32/libstdc++.a(string-inst.o)
                0x0000000000047d80                _ZNSs6assignESt16initializer_listIcE
 .text._ZNSsaSESt16initializer_listIcE
                0x0000000000047de0       0x60 /home/jfb/nacl_sdk/pepper_42/toolchain/linux_x86_newlib/bin/../lib/gcc/x86_64-nacl/4.4.3/../../../../x86_64-nacl/lib/../lib32/libstdc++.a(string-inst.o)
                0x0000000000047de0                _ZNSsaSESt16initializer_listIcE
 .text._ZNSs6appendESt16initializer_listIcE
                0x0000000000047e40       0x60 /home/jfb/nacl_sdk/pepper_42/toolchain/linux_x86_newlib/bin/../lib/gcc/x86_64-nacl/4.4.3/../../../../x86_64-nacl/lib/../lib32/libstdc++.a(string-inst.o)
                0x0000000000047e40                _ZNSs6appendESt16initializer_listIcE
 .text._ZNSspLESt16initializer_listIcE
                0x0000000000047ea0       0x60 /home/jfb/nacl_sdk/pepper_42/toolchain/linux_x86_newlib/bin/../lib/gcc/x86_64-nacl/4.4.3/../../../../x86_64-nacl/lib/../lib32/libstdc++.a(string-inst.o)
                0x0000000000047ea0                _ZNSspLESt16initializer_listIcE
 .text._ZNSs7replaceEN9__gnu_cxx17__normal_iteratorIPcSsEES2_St16initializer_listIcE
                0x0000000000047f00       0x40 /home/jfb/nacl_sdk/pepper_42/toolchain/linux_x86_newlib/bin/../lib/gcc/x86_64-nacl/4.4.3/../../../../x86_64-nacl/lib/../lib32/libstdc++.a(string-inst.o)
                0x0000000000047f00                _ZNSs7replaceEN9__gnu_cxx17__normal_iteratorIPcSsEES2_St16initializer_listIcE
 .text._ZNSs6insertEN9__gnu_cxx17__normal_iteratorIPcSsEESt16initializer_listIcE
                0x0000000000047f40       0x60 /home/jfb/nacl_sdk/pepper_42/toolchain/linux_x86_newlib/bin/../lib/gcc/x86_64-nacl/4.4.3/../../../../x86_64-nacl/lib/../lib32/libstdc++.a(string-inst.o)
                0x0000000000047f40                _ZNSs6insertEN9__gnu_cxx17__normal_iteratorIPcSsEESt16initializer_listIcE
 .text          0x0000000000047fa0        0x0 /home/jfb/nacl_sdk/pepper_42/toolchain/linux_x86_newlib/bin/../lib/gcc/x86_64-nacl/4.4.3/../../../../x86_64-nacl/lib/../lib32/libstdc++.a(eh_personality.o)
 .text._ZL16get_adjusted_ptrPKSt9type_infoS1_PPv
                0x0000000000047fa0       0xc0 /home/jfb/nacl_sdk/pepper_42/toolchain/linux_x86_newlib/bin/../lib/gcc/x86_64-nacl/4.4.3/../../../../x86_64-nacl/lib/../lib32/libstdc++.a(eh_personality.o)
 .text._ZL21base_of_encoded_valuehP15_Unwind_Context
                0x0000000000048060      0x180 /home/jfb/nacl_sdk/pepper_42/toolchain/linux_x86_newlib/bin/../lib/gcc/x86_64-nacl/4.4.3/../../../../x86_64-nacl/lib/../lib32/libstdc++.a(eh_personality.o)
 .text._ZL28read_encoded_value_with_basehjPKhPj
                0x00000000000481e0      0x200 /home/jfb/nacl_sdk/pepper_42/toolchain/linux_x86_newlib/bin/../lib/gcc/x86_64-nacl/4.4.3/../../../../x86_64-nacl/lib/../lib32/libstdc++.a(eh_personality.o)
 .text._ZL17parse_lsda_headerP15_Unwind_ContextPKhP16lsda_header_info
                0x00000000000483e0      0x180 /home/jfb/nacl_sdk/pepper_42/toolchain/linux_x86_newlib/bin/../lib/gcc/x86_64-nacl/4.4.3/../../../../x86_64-nacl/lib/../lib32/libstdc++.a(eh_personality.o)
 .text._ZL15get_ttype_entryP16lsda_header_infom
                0x0000000000048560      0x140 /home/jfb/nacl_sdk/pepper_42/toolchain/linux_x86_newlib/bin/../lib/gcc/x86_64-nacl/4.4.3/../../../../x86_64-nacl/lib/../lib32/libstdc++.a(eh_personality.o)
 .text._ZL20check_exception_specP16lsda_header_infoPKSt9type_infoPvl
                0x00000000000486a0       0xe0 /home/jfb/nacl_sdk/pepper_42/toolchain/linux_x86_newlib/bin/../lib/gcc/x86_64-nacl/4.4.3/../../../../x86_64-nacl/lib/../lib32/libstdc++.a(eh_personality.o)
 .text.__cxa_call_unexpected
                0x0000000000048780      0x200 /home/jfb/nacl_sdk/pepper_42/toolchain/linux_x86_newlib/bin/../lib/gcc/x86_64-nacl/4.4.3/../../../../x86_64-nacl/lib/../lib32/libstdc++.a(eh_personality.o)
                0x0000000000048780                __cxa_call_unexpected
 .text.__gxx_personality_v0
                0x0000000000048980      0x960 /home/jfb/nacl_sdk/pepper_42/toolchain/linux_x86_newlib/bin/../lib/gcc/x86_64-nacl/4.4.3/../../../../x86_64-nacl/lib/../lib32/libstdc++.a(eh_personality.o)
                0x0000000000048980                __gxx_personality_v0
 .text          0x00000000000492e0        0x0 /home/jfb/nacl_sdk/pepper_42/toolchain/linux_x86_newlib/bin/../lib/gcc/x86_64-nacl/4.4.3/../../../../x86_64-nacl/lib/../lib32/libstdc++.a(eh_globals.o)
 .text._ZN17__eh_globals_initD1Ev
                0x00000000000492e0       0x60 /home/jfb/nacl_sdk/pepper_42/toolchain/linux_x86_newlib/bin/../lib/gcc/x86_64-nacl/4.4.3/../../../../x86_64-nacl/lib/../lib32/libstdc++.a(eh_globals.o)
                0x00000000000492e0                _ZN17__eh_globals_initD1Ev
 .text._GLOBAL__I___cxa_get_globals_fast
                0x0000000000049340       0xa0 /home/jfb/nacl_sdk/pepper_42/toolchain/linux_x86_newlib/bin/../lib/gcc/x86_64-nacl/4.4.3/../../../../x86_64-nacl/lib/../lib32/libstdc++.a(eh_globals.o)
 .text._ZL15eh_globals_dtorPv
                0x00000000000493e0       0xa0 /home/jfb/nacl_sdk/pepper_42/toolchain/linux_x86_newlib/bin/../lib/gcc/x86_64-nacl/4.4.3/../../../../x86_64-nacl/lib/../lib32/libstdc++.a(eh_globals.o)
 .text.__cxa_get_globals
                0x0000000000049480      0x140 /home/jfb/nacl_sdk/pepper_42/toolchain/linux_x86_newlib/bin/../lib/gcc/x86_64-nacl/4.4.3/../../../../x86_64-nacl/lib/../lib32/libstdc++.a(eh_globals.o)
                0x0000000000049480                __cxa_get_globals
 .text.__cxa_get_globals_fast
                0x00000000000495c0       0xa0 /home/jfb/nacl_sdk/pepper_42/toolchain/linux_x86_newlib/bin/../lib/gcc/x86_64-nacl/4.4.3/../../../../x86_64-nacl/lib/../lib32/libstdc++.a(eh_globals.o)
                0x00000000000495c0                __cxa_get_globals_fast
 .text          0x0000000000049660        0x0 /home/jfb/nacl_sdk/pepper_42/toolchain/linux_x86_newlib/bin/../lib/gcc/x86_64-nacl/4.4.3/../../../../x86_64-nacl/lib/../lib32/libstdc++.a(eh_throw.o)
 .text.__cxa_rethrow
                0x0000000000049660      0x100 /home/jfb/nacl_sdk/pepper_42/toolchain/linux_x86_newlib/bin/../lib/gcc/x86_64-nacl/4.4.3/../../../../x86_64-nacl/lib/../lib32/libstdc++.a(eh_throw.o)
                0x0000000000049660                __cxa_rethrow
 .text.__cxa_throw
                0x0000000000049760       0xa0 /home/jfb/nacl_sdk/pepper_42/toolchain/linux_x86_newlib/bin/../lib/gcc/x86_64-nacl/4.4.3/../../../../x86_64-nacl/lib/../lib32/libstdc++.a(eh_throw.o)
                0x0000000000049760                __cxa_throw
 .text._ZL23__gxx_exception_cleanup19_Unwind_Reason_CodeP17_Unwind_Exception
                0x0000000000049800       0xa0 /home/jfb/nacl_sdk/pepper_42/toolchain/linux_x86_newlib/bin/../lib/gcc/x86_64-nacl/4.4.3/../../../../x86_64-nacl/lib/../lib32/libstdc++.a(eh_throw.o)
 .text          0x00000000000498a0        0x0 /home/jfb/nacl_sdk/pepper_42/toolchain/linux_x86_newlib/bin/../lib/gcc/x86_64-nacl/4.4.3/../../../../x86_64-nacl/lib/../lib32/libstdc++.a(del_op.o)
 .text._ZdlPv   0x00000000000498a0       0x40 /home/jfb/nacl_sdk/pepper_42/toolchain/linux_x86_newlib/bin/../lib/gcc/x86_64-nacl/4.4.3/../../../../x86_64-nacl/lib/../lib32/libstdc++.a(del_op.o)
                0x00000000000498a0                _ZdlPv
 .text          0x00000000000498e0        0x0 /home/jfb/nacl_sdk/pepper_42/toolchain/linux_x86_newlib/bin/../lib/gcc/x86_64-nacl/4.4.3/../../../../x86_64-nacl/lib/../lib32/libstdc++.a(eh_call.o)
 .text.__cxa_call_terminate
                0x00000000000498e0       0x80 /home/jfb/nacl_sdk/pepper_42/toolchain/linux_x86_newlib/bin/../lib/gcc/x86_64-nacl/4.4.3/../../../../x86_64-nacl/lib/../lib32/libstdc++.a(eh_call.o)
                0x00000000000498e0                __cxa_call_terminate
 .text          0x0000000000049960        0x0 /home/jfb/nacl_sdk/pepper_42/toolchain/linux_x86_newlib/bin/../lib/gcc/x86_64-nacl/4.4.3/../../../../x86_64-nacl/lib/../lib32/libstdc++.a(guard.o)
 .text._ZNK9__gnu_cxx24__concurrence_lock_error4whatEv
                0x0000000000049960       0x20 /home/jfb/nacl_sdk/pepper_42/toolchain/linux_x86_newlib/bin/../lib/gcc/x86_64-nacl/4.4.3/../../../../x86_64-nacl/lib/../lib32/libstdc++.a(guard.o)
                0x0000000000049960                _ZNK9__gnu_cxx24__concurrence_lock_error4whatEv
 .text._ZNK9__gnu_cxx26__concurrence_unlock_error4whatEv
                0x0000000000049980       0x20 /home/jfb/nacl_sdk/pepper_42/toolchain/linux_x86_newlib/bin/../lib/gcc/x86_64-nacl/4.4.3/../../../../x86_64-nacl/lib/../lib32/libstdc++.a(guard.o)
                0x0000000000049980                _ZNK9__gnu_cxx26__concurrence_unlock_error4whatEv
 .text._ZN12_GLOBAL__N_1L4initEv
                0x00000000000499a0       0x80 /home/jfb/nacl_sdk/pepper_42/toolchain/linux_x86_newlib/bin/../lib/gcc/x86_64-nacl/4.4.3/../../../../x86_64-nacl/lib/../lib32/libstdc++.a(guard.o)
 .text._ZN10__cxxabiv1L7acquireEPx
                0x0000000000049a20       0x80 /home/jfb/nacl_sdk/pepper_42/toolchain/linux_x86_newlib/bin/../lib/gcc/x86_64-nacl/4.4.3/../../../../x86_64-nacl/lib/../lib32/libstdc++.a(guard.o)
 .text._ZN9__gnu_cxx26__concurrence_unlock_errorD1Ev
                0x0000000000049aa0       0x20 /home/jfb/nacl_sdk/pepper_42/toolchain/linux_x86_newlib/bin/../lib/gcc/x86_64-nacl/4.4.3/../../../../x86_64-nacl/lib/../lib32/libstdc++.a(guard.o)
                0x0000000000049aa0                _ZN9__gnu_cxx26__concurrence_unlock_errorD1Ev
 .text._ZN9__gnu_cxx24__concurrence_lock_errorD1Ev
                0x0000000000049ac0       0x20 /home/jfb/nacl_sdk/pepper_42/toolchain/linux_x86_newlib/bin/../lib/gcc/x86_64-nacl/4.4.3/../../../../x86_64-nacl/lib/../lib32/libstdc++.a(guard.o)
                0x0000000000049ac0                _ZN9__gnu_cxx24__concurrence_lock_errorD1Ev
 .text._ZN9__gnu_cxx20recursive_init_errorD1Ev
                0x0000000000049ae0       0x20 /home/jfb/nacl_sdk/pepper_42/toolchain/linux_x86_newlib/bin/../lib/gcc/x86_64-nacl/4.4.3/../../../../x86_64-nacl/lib/../lib32/libstdc++.a(guard.o)
                0x0000000000049ae0                _ZN9__gnu_cxx20recursive_init_errorD1Ev
 .text._ZN9__gnu_cxx20recursive_init_errorD2Ev
                0x0000000000049b00       0x20 /home/jfb/nacl_sdk/pepper_42/toolchain/linux_x86_newlib/bin/../lib/gcc/x86_64-nacl/4.4.3/../../../../x86_64-nacl/lib/../lib32/libstdc++.a(guard.o)
                0x0000000000049b00                _ZN9__gnu_cxx20recursive_init_errorD2Ev
 .text._ZN9__gnu_cxx26__concurrence_unlock_errorD0Ev
                0x0000000000049b20       0x40 /home/jfb/nacl_sdk/pepper_42/toolchain/linux_x86_newlib/bin/../lib/gcc/x86_64-nacl/4.4.3/../../../../x86_64-nacl/lib/../lib32/libstdc++.a(guard.o)
                0x0000000000049b20                _ZN9__gnu_cxx26__concurrence_unlock_errorD0Ev
 .text._ZN9__gnu_cxx24__concurrence_lock_errorD0Ev
                0x0000000000049b60       0x40 /home/jfb/nacl_sdk/pepper_42/toolchain/linux_x86_newlib/bin/../lib/gcc/x86_64-nacl/4.4.3/../../../../x86_64-nacl/lib/../lib32/libstdc++.a(guard.o)
                0x0000000000049b60                _ZN9__gnu_cxx24__concurrence_lock_errorD0Ev
 .text._ZN9__gnu_cxx20recursive_init_errorD0Ev
                0x0000000000049ba0       0x40 /home/jfb/nacl_sdk/pepper_42/toolchain/linux_x86_newlib/bin/../lib/gcc/x86_64-nacl/4.4.3/../../../../x86_64-nacl/lib/../lib32/libstdc++.a(guard.o)
                0x0000000000049ba0                _ZN9__gnu_cxx20recursive_init_errorD0Ev
 .text.__cxa_guard_release
                0x0000000000049be0       0xc0 /home/jfb/nacl_sdk/pepper_42/toolchain/linux_x86_newlib/bin/../lib/gcc/x86_64-nacl/4.4.3/../../../../x86_64-nacl/lib/../lib32/libstdc++.a(guard.o)
                0x0000000000049be0                __cxa_guard_release
 .text.__cxa_guard_abort
                0x0000000000049ca0       0xc0 /home/jfb/nacl_sdk/pepper_42/toolchain/linux_x86_newlib/bin/../lib/gcc/x86_64-nacl/4.4.3/../../../../x86_64-nacl/lib/../lib32/libstdc++.a(guard.o)
                0x0000000000049ca0                __cxa_guard_abort
 .text.__cxa_guard_acquire
                0x0000000000049d60      0x220 /home/jfb/nacl_sdk/pepper_42/toolchain/linux_x86_newlib/bin/../lib/gcc/x86_64-nacl/4.4.3/../../../../x86_64-nacl/lib/../lib32/libstdc++.a(guard.o)
                0x0000000000049d60                __cxa_guard_acquire
 .text          0x0000000000049f80        0x0 /home/jfb/nacl_sdk/pepper_42/toolchain/linux_x86_newlib/bin/../lib/gcc/x86_64-nacl/4.4.3/../../../../x86_64-nacl/lib/../lib32/libstdc++.a(si_class_type_info.o)
 .text._ZNK10__cxxabiv120__si_class_type_info20__do_find_public_srcEiPKvPKNS_17__class_type_infoES2_
                0x0000000000049f80       0xa0 /home/jfb/nacl_sdk/pepper_42/toolchain/linux_x86_newlib/bin/../lib/gcc/x86_64-nacl/4.4.3/../../../../x86_64-nacl/lib/../lib32/libstdc++.a(si_class_type_info.o)
                0x0000000000049f80                _ZNK10__cxxabiv120__si_class_type_info20__do_find_public_srcEiPKvPKNS_17__class_type_infoES2_
 .text._ZNK10__cxxabiv120__si_class_type_info12__do_dyncastEiNS_17__class_type_info10__sub_kindEPKS1_PKvS4_S6_RNS1_16__dyncast_resultE
                0x000000000004a020      0x140 /home/jfb/nacl_sdk/pepper_42/toolchain/linux_x86_newlib/bin/../lib/gcc/x86_64-nacl/4.4.3/../../../../x86_64-nacl/lib/../lib32/libstdc++.a(si_class_type_info.o)
                0x000000000004a020                _ZNK10__cxxabiv120__si_class_type_info12__do_dyncastEiNS_17__class_type_info10__sub_kindEPKS1_PKvS4_S6_RNS1_16__dyncast_resultE
 .text._ZNK10__cxxabiv120__si_class_type_info11__do_upcastEPKNS_17__class_type_infoEPKvRNS1_15__upcast_resultE
                0x000000000004a160       0xa0 /home/jfb/nacl_sdk/pepper_42/toolchain/linux_x86_newlib/bin/../lib/gcc/x86_64-nacl/4.4.3/../../../../x86_64-nacl/lib/../lib32/libstdc++.a(si_class_type_info.o)
                0x000000000004a160                _ZNK10__cxxabiv120__si_class_type_info11__do_upcastEPKNS_17__class_type_infoEPKvRNS1_15__upcast_resultE
 .text._ZN10__cxxabiv120__si_class_type_infoD1Ev
                0x000000000004a200       0x20 /home/jfb/nacl_sdk/pepper_42/toolchain/linux_x86_newlib/bin/../lib/gcc/x86_64-nacl/4.4.3/../../../../x86_64-nacl/lib/../lib32/libstdc++.a(si_class_type_info.o)
                0x000000000004a200                _ZN10__cxxabiv120__si_class_type_infoD1Ev
 .text._ZN10__cxxabiv120__si_class_type_infoD2Ev
                0x000000000004a220       0x20 /home/jfb/nacl_sdk/pepper_42/toolchain/linux_x86_newlib/bin/../lib/gcc/x86_64-nacl/4.4.3/../../../../x86_64-nacl/lib/../lib32/libstdc++.a(si_class_type_info.o)
                0x000000000004a220                _ZN10__cxxabiv120__si_class_type_infoD2Ev
 .text._ZN10__cxxabiv120__si_class_type_infoD0Ev
                0x000000000004a240       0x40 /home/jfb/nacl_sdk/pepper_42/toolchain/linux_x86_newlib/bin/../lib/gcc/x86_64-nacl/4.4.3/../../../../x86_64-nacl/lib/../lib32/libstdc++.a(si_class_type_info.o)
                0x000000000004a240                _ZN10__cxxabiv120__si_class_type_infoD0Ev
 .text          0x000000000004a280        0x0 /home/jfb/nacl_sdk/pepper_42/toolchain/linux_x86_newlib/bin/../lib/gcc/x86_64-nacl/4.4.3/../../../../x86_64-nacl/lib/../lib32/libstdc++.a(eh_terminate.o)
 .text._ZSt13set_terminatePFvvE
                0x000000000004a280       0x20 /home/jfb/nacl_sdk/pepper_42/toolchain/linux_x86_newlib/bin/../lib/gcc/x86_64-nacl/4.4.3/../../../../x86_64-nacl/lib/../lib32/libstdc++.a(eh_terminate.o)
                0x000000000004a280                _ZSt13set_terminatePFvvE
 .text._ZSt14set_unexpectedPFvvE
                0x000000000004a2a0       0x20 /home/jfb/nacl_sdk/pepper_42/toolchain/linux_x86_newlib/bin/../lib/gcc/x86_64-nacl/4.4.3/../../../../x86_64-nacl/lib/../lib32/libstdc++.a(eh_terminate.o)
                0x000000000004a2a0                _ZSt14set_unexpectedPFvvE
 .text._ZN10__cxxabiv111__terminateEPFvvE
                0x000000000004a2c0       0xc0 /home/jfb/nacl_sdk/pepper_42/toolchain/linux_x86_newlib/bin/../lib/gcc/x86_64-nacl/4.4.3/../../../../x86_64-nacl/lib/../lib32/libstdc++.a(eh_terminate.o)
                0x000000000004a2c0                _ZN10__cxxabiv111__terminateEPFvvE
 .text._ZSt9terminatev
                0x000000000004a380       0x20 /home/jfb/nacl_sdk/pepper_42/toolchain/linux_x86_newlib/bin/../lib/gcc/x86_64-nacl/4.4.3/../../../../x86_64-nacl/lib/../lib32/libstdc++.a(eh_terminate.o)
                0x000000000004a380                _ZSt9terminatev
 .text._ZN10__cxxabiv112__unexpectedEPFvvE
                0x000000000004a3a0       0x40 /home/jfb/nacl_sdk/pepper_42/toolchain/linux_x86_newlib/bin/../lib/gcc/x86_64-nacl/4.4.3/../../../../x86_64-nacl/lib/../lib32/libstdc++.a(eh_terminate.o)
                0x000000000004a3a0                _ZN10__cxxabiv112__unexpectedEPFvvE
 .text._ZSt10unexpectedv
                0x000000000004a3e0       0x20 /home/jfb/nacl_sdk/pepper_42/toolchain/linux_x86_newlib/bin/../lib/gcc/x86_64-nacl/4.4.3/../../../../x86_64-nacl/lib/../lib32/libstdc++.a(eh_terminate.o)
                0x000000000004a3e0                _ZSt10unexpectedv
 .text          0x000000000004a400        0x0 /home/jfb/nacl_sdk/pepper_42/toolchain/linux_x86_newlib/bin/../lib/gcc/x86_64-nacl/4.4.3/../../../../x86_64-nacl/lib/../lib32/libstdc++.a(class_type_info.o)
 .text._ZNK10__cxxabiv117__class_type_info10__do_catchEPKSt9type_infoPPvj
                0x000000000004a400       0x80 /home/jfb/nacl_sdk/pepper_42/toolchain/linux_x86_newlib/bin/../lib/gcc/x86_64-nacl/4.4.3/../../../../x86_64-nacl/lib/../lib32/libstdc++.a(class_type_info.o)
                0x000000000004a400                _ZNK10__cxxabiv117__class_type_info10__do_catchEPKSt9type_infoPPvj
 .text._ZNK10__cxxabiv117__class_type_info11__do_upcastEPKS0_PPv
                0x000000000004a480       0xa0 /home/jfb/nacl_sdk/pepper_42/toolchain/linux_x86_newlib/bin/../lib/gcc/x86_64-nacl/4.4.3/../../../../x86_64-nacl/lib/../lib32/libstdc++.a(class_type_info.o)
                0x000000000004a480                _ZNK10__cxxabiv117__class_type_info11__do_upcastEPKS0_PPv
 .text._ZNK10__cxxabiv117__class_type_info20__do_find_public_srcEiPKvPKS0_S2_
                0x000000000004a520       0x20 /home/jfb/nacl_sdk/pepper_42/toolchain/linux_x86_newlib/bin/../lib/gcc/x86_64-nacl/4.4.3/../../../../x86_64-nacl/lib/../lib32/libstdc++.a(class_type_info.o)
                0x000000000004a520                _ZNK10__cxxabiv117__class_type_info20__do_find_public_srcEiPKvPKS0_S2_
 .text._ZNK10__cxxabiv117__class_type_info12__do_dyncastEiNS0_10__sub_kindEPKS0_PKvS3_S5_RNS0_16__dyncast_resultE
                0x000000000004a540       0xc0 /home/jfb/nacl_sdk/pepper_42/toolchain/linux_x86_newlib/bin/../lib/gcc/x86_64-nacl/4.4.3/../../../../x86_64-nacl/lib/../lib32/libstdc++.a(class_type_info.o)
                0x000000000004a540                _ZNK10__cxxabiv117__class_type_info12__do_dyncastEiNS0_10__sub_kindEPKS0_PKvS3_S5_RNS0_16__dyncast_resultE
 .text._ZNK10__cxxabiv117__class_type_info11__do_upcastEPKS0_PKvRNS0_15__upcast_resultE
                0x000000000004a600       0x40 /home/jfb/nacl_sdk/pepper_42/toolchain/linux_x86_newlib/bin/../lib/gcc/x86_64-nacl/4.4.3/../../../../x86_64-nacl/lib/../lib32/libstdc++.a(class_type_info.o)
                0x000000000004a600                _ZNK10__cxxabiv117__class_type_info11__do_upcastEPKS0_PKvRNS0_15__upcast_resultE
 .text._ZN10__cxxabiv117__class_type_infoD1Ev
                0x000000000004a640       0x20 /home/jfb/nacl_sdk/pepper_42/toolchain/linux_x86_newlib/bin/../lib/gcc/x86_64-nacl/4.4.3/../../../../x86_64-nacl/lib/../lib32/libstdc++.a(class_type_info.o)
                0x000000000004a640                _ZN10__cxxabiv117__class_type_infoD1Ev
 .text._ZN10__cxxabiv117__class_type_infoD2Ev
                0x000000000004a660       0x20 /home/jfb/nacl_sdk/pepper_42/toolchain/linux_x86_newlib/bin/../lib/gcc/x86_64-nacl/4.4.3/../../../../x86_64-nacl/lib/../lib32/libstdc++.a(class_type_info.o)
                0x000000000004a660                _ZN10__cxxabiv117__class_type_infoD2Ev
 .text._ZN10__cxxabiv117__class_type_infoD0Ev
                0x000000000004a680       0x40 /home/jfb/nacl_sdk/pepper_42/toolchain/linux_x86_newlib/bin/../lib/gcc/x86_64-nacl/4.4.3/../../../../x86_64-nacl/lib/../lib32/libstdc++.a(class_type_info.o)
                0x000000000004a680                _ZN10__cxxabiv117__class_type_infoD0Ev
 .text          0x000000000004a6c0        0x0 /home/jfb/nacl_sdk/pepper_42/toolchain/linux_x86_newlib/bin/../lib/gcc/x86_64-nacl/4.4.3/../../../../x86_64-nacl/lib/../lib32/libstdc++.a(eh_alloc.o)
 .text._GLOBAL__I___cxa_allocate_exception
                0x000000000004a6c0       0x80 /home/jfb/nacl_sdk/pepper_42/toolchain/linux_x86_newlib/bin/../lib/gcc/x86_64-nacl/4.4.3/../../../../x86_64-nacl/lib/../lib32/libstdc++.a(eh_alloc.o)
 .text._ZN9__gnu_cxx13__scoped_lockD1Ev
                0x000000000004a740       0xe0 /home/jfb/nacl_sdk/pepper_42/toolchain/linux_x86_newlib/bin/../lib/gcc/x86_64-nacl/4.4.3/../../../../x86_64-nacl/lib/../lib32/libstdc++.a(eh_alloc.o)
                0x000000000004a740                _ZN9__gnu_cxx13__scoped_lockD1Ev
 .text.__cxa_free_dependent_exception
                0x000000000004a820      0x200 /home/jfb/nacl_sdk/pepper_42/toolchain/linux_x86_newlib/bin/../lib/gcc/x86_64-nacl/4.4.3/../../../../x86_64-nacl/lib/../lib32/libstdc++.a(eh_alloc.o)
                0x000000000004a820                __cxa_free_dependent_exception
 .text.__cxa_free_exception
                0x000000000004aa20      0x1e0 /home/jfb/nacl_sdk/pepper_42/toolchain/linux_x86_newlib/bin/../lib/gcc/x86_64-nacl/4.4.3/../../../../x86_64-nacl/lib/../lib32/libstdc++.a(eh_alloc.o)
                0x000000000004aa20                __cxa_free_exception
 .text.__cxa_allocate_exception
                0x000000000004ac00      0x380 /home/jfb/nacl_sdk/pepper_42/toolchain/linux_x86_newlib/bin/../lib/gcc/x86_64-nacl/4.4.3/../../../../x86_64-nacl/lib/../lib32/libstdc++.a(eh_alloc.o)
                0x000000000004ac00                __cxa_allocate_exception
 .text.__cxa_allocate_dependent_exception
                0x000000000004af80      0x2c0 /home/jfb/nacl_sdk/pepper_42/toolchain/linux_x86_newlib/bin/../lib/gcc/x86_64-nacl/4.4.3/../../../../x86_64-nacl/lib/../lib32/libstdc++.a(eh_alloc.o)
                0x000000000004af80                __cxa_allocate_dependent_exception
 .text          0x000000000004b240        0x0 /home/jfb/nacl_sdk/pepper_42/toolchain/linux_x86_newlib/bin/../lib/gcc/x86_64-nacl/4.4.3/../../../../x86_64-nacl/lib/../lib32/libstdc++.a(eh_catch.o)
 .text.__cxa_get_exception_ptr
                0x000000000004b240       0x20 /home/jfb/nacl_sdk/pepper_42/toolchain/linux_x86_newlib/bin/../lib/gcc/x86_64-nacl/4.4.3/../../../../x86_64-nacl/lib/../lib32/libstdc++.a(eh_catch.o)
                0x000000000004b240                __cxa_get_exception_ptr
 .text._ZSt18uncaught_exceptionv
                0x000000000004b260       0x40 /home/jfb/nacl_sdk/pepper_42/toolchain/linux_x86_newlib/bin/../lib/gcc/x86_64-nacl/4.4.3/../../../../x86_64-nacl/lib/../lib32/libstdc++.a(eh_catch.o)
                0x000000000004b260                _ZSt18uncaught_exceptionv
 .text.__cxa_end_catch
                0x000000000004b2a0      0x160 /home/jfb/nacl_sdk/pepper_42/toolchain/linux_x86_newlib/bin/../lib/gcc/x86_64-nacl/4.4.3/../../../../x86_64-nacl/lib/../lib32/libstdc++.a(eh_catch.o)
                0x000000000004b2a0                __cxa_end_catch
 .text.__cxa_begin_catch
                0x000000000004b400      0x160 /home/jfb/nacl_sdk/pepper_42/toolchain/linux_x86_newlib/bin/../lib/gcc/x86_64-nacl/4.4.3/../../../../x86_64-nacl/lib/../lib32/libstdc++.a(eh_catch.o)
                0x000000000004b400                __cxa_begin_catch
 .text          0x000000000004b560        0x0 /home/jfb/nacl_sdk/pepper_42/toolchain/linux_x86_newlib/bin/../lib/gcc/x86_64-nacl/4.4.3/../../../../x86_64-nacl/lib/../lib32/libstdc++.a(eh_exception.o)
 .text._ZNSt9exceptionD2Ev
                0x000000000004b560       0x20 /home/jfb/nacl_sdk/pepper_42/toolchain/linux_x86_newlib/bin/../lib/gcc/x86_64-nacl/4.4.3/../../../../x86_64-nacl/lib/../lib32/libstdc++.a(eh_exception.o)
                0x000000000004b560                _ZNSt9exceptionD2Ev
 .text._ZNSt9exceptionD1Ev
                0x000000000004b580       0x20 /home/jfb/nacl_sdk/pepper_42/toolchain/linux_x86_newlib/bin/../lib/gcc/x86_64-nacl/4.4.3/../../../../x86_64-nacl/lib/../lib32/libstdc++.a(eh_exception.o)
                0x000000000004b580                _ZNSt9exceptionD1Ev
 .text._ZNSt13bad_exceptionD2Ev
                0x000000000004b5a0       0x20 /home/jfb/nacl_sdk/pepper_42/toolchain/linux_x86_newlib/bin/../lib/gcc/x86_64-nacl/4.4.3/../../../../x86_64-nacl/lib/../lib32/libstdc++.a(eh_exception.o)
                0x000000000004b5a0                _ZNSt13bad_exceptionD2Ev
 .text._ZNSt13bad_exceptionD1Ev
                0x000000000004b5c0       0x20 /home/jfb/nacl_sdk/pepper_42/toolchain/linux_x86_newlib/bin/../lib/gcc/x86_64-nacl/4.4.3/../../../../x86_64-nacl/lib/../lib32/libstdc++.a(eh_exception.o)
                0x000000000004b5c0                _ZNSt13bad_exceptionD1Ev
 .text._ZN10__cxxabiv115__forced_unwindD2Ev
                0x000000000004b5e0       0x20 /home/jfb/nacl_sdk/pepper_42/toolchain/linux_x86_newlib/bin/../lib/gcc/x86_64-nacl/4.4.3/../../../../x86_64-nacl/lib/../lib32/libstdc++.a(eh_exception.o)
                0x000000000004b5e0                _ZN10__cxxabiv115__forced_unwindD2Ev
 .text._ZN10__cxxabiv115__forced_unwindD1Ev
                0x000000000004b600       0x20 /home/jfb/nacl_sdk/pepper_42/toolchain/linux_x86_newlib/bin/../lib/gcc/x86_64-nacl/4.4.3/../../../../x86_64-nacl/lib/../lib32/libstdc++.a(eh_exception.o)
                0x000000000004b600                _ZN10__cxxabiv115__forced_unwindD1Ev
 .text._ZN10__cxxabiv119__foreign_exceptionD2Ev
                0x000000000004b620       0x20 /home/jfb/nacl_sdk/pepper_42/toolchain/linux_x86_newlib/bin/../lib/gcc/x86_64-nacl/4.4.3/../../../../x86_64-nacl/lib/../lib32/libstdc++.a(eh_exception.o)
                0x000000000004b620                _ZN10__cxxabiv119__foreign_exceptionD2Ev
 .text._ZN10__cxxabiv119__foreign_exceptionD1Ev
                0x000000000004b640       0x20 /home/jfb/nacl_sdk/pepper_42/toolchain/linux_x86_newlib/bin/../lib/gcc/x86_64-nacl/4.4.3/../../../../x86_64-nacl/lib/../lib32/libstdc++.a(eh_exception.o)
                0x000000000004b640                _ZN10__cxxabiv119__foreign_exceptionD1Ev
 .text._ZNKSt9exception4whatEv
                0x000000000004b660       0x20 /home/jfb/nacl_sdk/pepper_42/toolchain/linux_x86_newlib/bin/../lib/gcc/x86_64-nacl/4.4.3/../../../../x86_64-nacl/lib/../lib32/libstdc++.a(eh_exception.o)
                0x000000000004b660                _ZNKSt9exception4whatEv
 .text._ZNKSt13bad_exception4whatEv
                0x000000000004b680       0x20 /home/jfb/nacl_sdk/pepper_42/toolchain/linux_x86_newlib/bin/../lib/gcc/x86_64-nacl/4.4.3/../../../../x86_64-nacl/lib/../lib32/libstdc++.a(eh_exception.o)
                0x000000000004b680                _ZNKSt13bad_exception4whatEv
 .text._ZN10__cxxabiv119__foreign_exceptionD0Ev
                0x000000000004b6a0       0x20 /home/jfb/nacl_sdk/pepper_42/toolchain/linux_x86_newlib/bin/../lib/gcc/x86_64-nacl/4.4.3/../../../../x86_64-nacl/lib/../lib32/libstdc++.a(eh_exception.o)
                0x000000000004b6a0                _ZN10__cxxabiv119__foreign_exceptionD0Ev
 .text._ZN10__cxxabiv115__forced_unwindD0Ev
                0x000000000004b6c0       0x20 /home/jfb/nacl_sdk/pepper_42/toolchain/linux_x86_newlib/bin/../lib/gcc/x86_64-nacl/4.4.3/../../../../x86_64-nacl/lib/../lib32/libstdc++.a(eh_exception.o)
                0x000000000004b6c0                _ZN10__cxxabiv115__forced_unwindD0Ev
 .text._ZNSt9exceptionD0Ev
                0x000000000004b6e0       0x20 /home/jfb/nacl_sdk/pepper_42/toolchain/linux_x86_newlib/bin/../lib/gcc/x86_64-nacl/4.4.3/../../../../x86_64-nacl/lib/../lib32/libstdc++.a(eh_exception.o)
                0x000000000004b6e0                _ZNSt9exceptionD0Ev
 .text._ZNSt13bad_exceptionD0Ev
                0x000000000004b700       0x20 /home/jfb/nacl_sdk/pepper_42/toolchain/linux_x86_newlib/bin/../lib/gcc/x86_64-nacl/4.4.3/../../../../x86_64-nacl/lib/../lib32/libstdc++.a(eh_exception.o)
                0x000000000004b700                _ZNSt13bad_exceptionD0Ev
 .text          0x000000000004b720        0x0 /home/jfb/nacl_sdk/pepper_42/toolchain/linux_x86_newlib/bin/../lib/gcc/x86_64-nacl/4.4.3/../../../../x86_64-nacl/lib/../lib32/libstdc++.a(pure.o)
 .text.__cxa_pure_virtual
                0x000000000004b720       0x60 /home/jfb/nacl_sdk/pepper_42/toolchain/linux_x86_newlib/bin/../lib/gcc/x86_64-nacl/4.4.3/../../../../x86_64-nacl/lib/../lib32/libstdc++.a(pure.o)
                0x000000000004b720                __cxa_pure_virtual
 .text          0x000000000004b780        0x0 /home/jfb/nacl_sdk/pepper_42/toolchain/linux_x86_newlib/bin/../lib/gcc/x86_64-nacl/4.4.3/../../../../x86_64-nacl/lib/../lib32/libstdc++.a(new_op.o)
 .text._Znwj    0x000000000004b780      0x100 /home/jfb/nacl_sdk/pepper_42/toolchain/linux_x86_newlib/bin/../lib/gcc/x86_64-nacl/4.4.3/../../../../x86_64-nacl/lib/../lib32/libstdc++.a(new_op.o)
                0x000000000004b780                _Znwj
 .text          0x000000000004b880        0x0 /home/jfb/nacl_sdk/pepper_42/toolchain/linux_x86_newlib/bin/../lib/gcc/x86_64-nacl/4.4.3/../../../../x86_64-nacl/lib/../lib32/libstdc++.a(tinfo.o)
 .text._ZNSt9type_infoD2Ev
                0x000000000004b880       0x20 /home/jfb/nacl_sdk/pepper_42/toolchain/linux_x86_newlib/bin/../lib/gcc/x86_64-nacl/4.4.3/../../../../x86_64-nacl/lib/../lib32/libstdc++.a(tinfo.o)
                0x000000000004b880                _ZNSt9type_infoD2Ev
 .text._ZNSt9type_infoD1Ev
                0x000000000004b8a0       0x20 /home/jfb/nacl_sdk/pepper_42/toolchain/linux_x86_newlib/bin/../lib/gcc/x86_64-nacl/4.4.3/../../../../x86_64-nacl/lib/../lib32/libstdc++.a(tinfo.o)
                0x000000000004b8a0                _ZNSt9type_infoD1Ev
 .text._ZNKSt9type_info14__is_pointer_pEv
                0x000000000004b8c0       0x20 /home/jfb/nacl_sdk/pepper_42/toolchain/linux_x86_newlib/bin/../lib/gcc/x86_64-nacl/4.4.3/../../../../x86_64-nacl/lib/../lib32/libstdc++.a(tinfo.o)
                0x000000000004b8c0                _ZNKSt9type_info14__is_pointer_pEv
 .text._ZNKSt9type_info15__is_function_pEv
                0x000000000004b8e0       0x20 /home/jfb/nacl_sdk/pepper_42/toolchain/linux_x86_newlib/bin/../lib/gcc/x86_64-nacl/4.4.3/../../../../x86_64-nacl/lib/../lib32/libstdc++.a(tinfo.o)
                0x000000000004b8e0                _ZNKSt9type_info15__is_function_pEv
 .text._ZNKSt9type_info10__do_catchEPKS_PPvj
                0x000000000004b900       0x20 /home/jfb/nacl_sdk/pepper_42/toolchain/linux_x86_newlib/bin/../lib/gcc/x86_64-nacl/4.4.3/../../../../x86_64-nacl/lib/../lib32/libstdc++.a(tinfo.o)
                0x000000000004b900                _ZNKSt9type_info10__do_catchEPKS_PPvj
 .text._ZNKSt9type_info11__do_upcastEPKN10__cxxabiv117__class_type_infoEPPv
                0x000000000004b920       0x20 /home/jfb/nacl_sdk/pepper_42/toolchain/linux_x86_newlib/bin/../lib/gcc/x86_64-nacl/4.4.3/../../../../x86_64-nacl/lib/../lib32/libstdc++.a(tinfo.o)
                0x000000000004b920                _ZNKSt9type_info11__do_upcastEPKN10__cxxabiv117__class_type_infoEPPv
 .text._ZNSt9type_infoD0Ev
                0x000000000004b940       0x20 /home/jfb/nacl_sdk/pepper_42/toolchain/linux_x86_newlib/bin/../lib/gcc/x86_64-nacl/4.4.3/../../../../x86_64-nacl/lib/../lib32/libstdc++.a(tinfo.o)
                0x000000000004b940                _ZNSt9type_infoD0Ev
 .text          0x000000000004b960        0x0 /home/jfb/nacl_sdk/pepper_42/toolchain/linux_x86_newlib/bin/../lib/gcc/x86_64-nacl/4.4.3/../../../../x86_64-nacl/lib/../lib32/libstdc++.a(functexcept.o)
 .text._ZSt18__throw_bad_typeidv
                0x000000000004b960       0x40 /home/jfb/nacl_sdk/pepper_42/toolchain/linux_x86_newlib/bin/../lib/gcc/x86_64-nacl/4.4.3/../../../../x86_64-nacl/lib/../lib32/libstdc++.a(functexcept.o)
                0x000000000004b960                _ZSt18__throw_bad_typeidv
 .text._ZSt16__throw_bad_castv
                0x000000000004b9a0       0x40 /home/jfb/nacl_sdk/pepper_42/toolchain/linux_x86_newlib/bin/../lib/gcc/x86_64-nacl/4.4.3/../../../../x86_64-nacl/lib/../lib32/libstdc++.a(functexcept.o)
                0x000000000004b9a0                _ZSt16__throw_bad_castv
 .text._ZSt17__throw_bad_allocv
                0x000000000004b9e0       0x40 /home/jfb/nacl_sdk/pepper_42/toolchain/linux_x86_newlib/bin/../lib/gcc/x86_64-nacl/4.4.3/../../../../x86_64-nacl/lib/../lib32/libstdc++.a(functexcept.o)
                0x000000000004b9e0                _ZSt17__throw_bad_allocv
 .text._ZSt21__throw_bad_exceptionv
                0x000000000004ba20       0x40 /home/jfb/nacl_sdk/pepper_42/toolchain/linux_x86_newlib/bin/../lib/gcc/x86_64-nacl/4.4.3/../../../../x86_64-nacl/lib/../lib32/libstdc++.a(functexcept.o)
                0x000000000004ba20                _ZSt21__throw_bad_exceptionv
 .text._ZNSt15underflow_errorD1Ev
                0x000000000004ba60       0x20 /home/jfb/nacl_sdk/pepper_42/toolchain/linux_x86_newlib/bin/../lib/gcc/x86_64-nacl/4.4.3/../../../../x86_64-nacl/lib/../lib32/libstdc++.a(functexcept.o)
                0x000000000004ba60                _ZNSt15underflow_errorD1Ev
 .text._ZNSt14overflow_errorD1Ev
                0x000000000004ba80       0x20 /home/jfb/nacl_sdk/pepper_42/toolchain/linux_x86_newlib/bin/../lib/gcc/x86_64-nacl/4.4.3/../../../../x86_64-nacl/lib/../lib32/libstdc++.a(functexcept.o)
                0x000000000004ba80                _ZNSt14overflow_errorD1Ev
 .text._ZNSt11range_errorD1Ev
                0x000000000004baa0       0x20 /home/jfb/nacl_sdk/pepper_42/toolchain/linux_x86_newlib/bin/../lib/gcc/x86_64-nacl/4.4.3/../../../../x86_64-nacl/lib/../lib32/libstdc++.a(functexcept.o)
                0x000000000004baa0                _ZNSt11range_errorD1Ev
 .text._ZNSt15underflow_errorD0Ev
                0x000000000004bac0       0x40 /home/jfb/nacl_sdk/pepper_42/toolchain/linux_x86_newlib/bin/../lib/gcc/x86_64-nacl/4.4.3/../../../../x86_64-nacl/lib/../lib32/libstdc++.a(functexcept.o)
                0x000000000004bac0                _ZNSt15underflow_errorD0Ev
 .text._ZNSt14overflow_errorD0Ev
                0x000000000004bb00       0x40 /home/jfb/nacl_sdk/pepper_42/toolchain/linux_x86_newlib/bin/../lib/gcc/x86_64-nacl/4.4.3/../../../../x86_64-nacl/lib/../lib32/libstdc++.a(functexcept.o)
                0x000000000004bb00                _ZNSt14overflow_errorD0Ev
 .text._ZNSt11range_errorD0Ev
                0x000000000004bb40       0x40 /home/jfb/nacl_sdk/pepper_42/toolchain/linux_x86_newlib/bin/../lib/gcc/x86_64-nacl/4.4.3/../../../../x86_64-nacl/lib/../lib32/libstdc++.a(functexcept.o)
                0x000000000004bb40                _ZNSt11range_errorD0Ev
 .text._ZNSt12out_of_rangeD1Ev
                0x000000000004bb80       0x20 /home/jfb/nacl_sdk/pepper_42/toolchain/linux_x86_newlib/bin/../lib/gcc/x86_64-nacl/4.4.3/../../../../x86_64-nacl/lib/../lib32/libstdc++.a(functexcept.o)
                0x000000000004bb80                _ZNSt12out_of_rangeD1Ev
 .text._ZNSt12out_of_rangeD0Ev
                0x000000000004bba0       0x40 /home/jfb/nacl_sdk/pepper_42/toolchain/linux_x86_newlib/bin/../lib/gcc/x86_64-nacl/4.4.3/../../../../x86_64-nacl/lib/../lib32/libstdc++.a(functexcept.o)
                0x000000000004bba0                _ZNSt12out_of_rangeD0Ev
 .text._ZNSt12length_errorD1Ev
                0x000000000004bbe0       0x20 /home/jfb/nacl_sdk/pepper_42/toolchain/linux_x86_newlib/bin/../lib/gcc/x86_64-nacl/4.4.3/../../../../x86_64-nacl/lib/../lib32/libstdc++.a(functexcept.o)
                0x000000000004bbe0                _ZNSt12length_errorD1Ev
 .text._ZNSt12length_errorD0Ev
                0x000000000004bc00       0x40 /home/jfb/nacl_sdk/pepper_42/toolchain/linux_x86_newlib/bin/../lib/gcc/x86_64-nacl/4.4.3/../../../../x86_64-nacl/lib/../lib32/libstdc++.a(functexcept.o)
                0x000000000004bc00                _ZNSt12length_errorD0Ev
 .text._ZNSt16invalid_argumentD1Ev
                0x000000000004bc40       0x20 /home/jfb/nacl_sdk/pepper_42/toolchain/linux_x86_newlib/bin/../lib/gcc/x86_64-nacl/4.4.3/../../../../x86_64-nacl/lib/../lib32/libstdc++.a(functexcept.o)
                0x000000000004bc40                _ZNSt16invalid_argumentD1Ev
 .text._ZNSt16invalid_argumentD0Ev
                0x000000000004bc60       0x40 /home/jfb/nacl_sdk/pepper_42/toolchain/linux_x86_newlib/bin/../lib/gcc/x86_64-nacl/4.4.3/../../../../x86_64-nacl/lib/../lib32/libstdc++.a(functexcept.o)
                0x000000000004bc60                _ZNSt16invalid_argumentD0Ev
 .text._ZNSt12domain_errorD1Ev
                0x000000000004bca0       0x20 /home/jfb/nacl_sdk/pepper_42/toolchain/linux_x86_newlib/bin/../lib/gcc/x86_64-nacl/4.4.3/../../../../x86_64-nacl/lib/../lib32/libstdc++.a(functexcept.o)
                0x000000000004bca0                _ZNSt12domain_errorD1Ev
 .text._ZNSt12domain_errorD0Ev
                0x000000000004bcc0       0x40 /home/jfb/nacl_sdk/pepper_42/toolchain/linux_x86_newlib/bin/../lib/gcc/x86_64-nacl/4.4.3/../../../../x86_64-nacl/lib/../lib32/libstdc++.a(functexcept.o)
                0x000000000004bcc0                _ZNSt12domain_errorD0Ev
 .text._ZSt20__throw_system_errori
                0x000000000004bd00      0x1e0 /home/jfb/nacl_sdk/pepper_42/toolchain/linux_x86_newlib/bin/../lib/gcc/x86_64-nacl/4.4.3/../../../../x86_64-nacl/lib/../lib32/libstdc++.a(functexcept.o)
                0x000000000004bd00                _ZSt20__throw_system_errori
 .text._ZSt19__throw_ios_failurePKc
                0x000000000004bee0      0x160 /home/jfb/nacl_sdk/pepper_42/toolchain/linux_x86_newlib/bin/../lib/gcc/x86_64-nacl/4.4.3/../../../../x86_64-nacl/lib/../lib32/libstdc++.a(functexcept.o)
                0x000000000004bee0                _ZSt19__throw_ios_failurePKc
 .text._ZSt23__throw_underflow_errorPKc
                0x000000000004c040      0x1e0 /home/jfb/nacl_sdk/pepper_42/toolchain/linux_x86_newlib/bin/../lib/gcc/x86_64-nacl/4.4.3/../../../../x86_64-nacl/lib/../lib32/libstdc++.a(functexcept.o)
                0x000000000004c040                _ZSt23__throw_underflow_errorPKc
 .text._ZSt22__throw_overflow_errorPKc
                0x000000000004c220      0x1e0 /home/jfb/nacl_sdk/pepper_42/toolchain/linux_x86_newlib/bin/../lib/gcc/x86_64-nacl/4.4.3/../../../../x86_64-nacl/lib/../lib32/libstdc++.a(functexcept.o)
                0x000000000004c220                _ZSt22__throw_overflow_errorPKc
 .text._ZSt19__throw_range_errorPKc
                0x000000000004c400      0x1e0 /home/jfb/nacl_sdk/pepper_42/toolchain/linux_x86_newlib/bin/../lib/gcc/x86_64-nacl/4.4.3/../../../../x86_64-nacl/lib/../lib32/libstdc++.a(functexcept.o)
                0x000000000004c400                _ZSt19__throw_range_errorPKc
 .text._ZSt21__throw_runtime_errorPKc
                0x000000000004c5e0      0x1e0 /home/jfb/nacl_sdk/pepper_42/toolchain/linux_x86_newlib/bin/../lib/gcc/x86_64-nacl/4.4.3/../../../../x86_64-nacl/lib/../lib32/libstdc++.a(functexcept.o)
                0x000000000004c5e0                _ZSt21__throw_runtime_errorPKc
 .text._ZSt20__throw_out_of_rangePKc
                0x000000000004c7c0      0x1e0 /home/jfb/nacl_sdk/pepper_42/toolchain/linux_x86_newlib/bin/../lib/gcc/x86_64-nacl/4.4.3/../../../../x86_64-nacl/lib/../lib32/libstdc++.a(functexcept.o)
                0x000000000004c7c0                _ZSt20__throw_out_of_rangePKc
 .text._ZSt20__throw_length_errorPKc
                0x000000000004c9a0      0x1e0 /home/jfb/nacl_sdk/pepper_42/toolchain/linux_x86_newlib/bin/../lib/gcc/x86_64-nacl/4.4.3/../../../../x86_64-nacl/lib/../lib32/libstdc++.a(functexcept.o)
                0x000000000004c9a0                _ZSt20__throw_length_errorPKc
 .text._ZSt24__throw_invalid_argumentPKc
                0x000000000004cb80      0x1e0 /home/jfb/nacl_sdk/pepper_42/toolchain/linux_x86_newlib/bin/../lib/gcc/x86_64-nacl/4.4.3/../../../../x86_64-nacl/lib/../lib32/libstdc++.a(functexcept.o)
                0x000000000004cb80                _ZSt24__throw_invalid_argumentPKc
 .text._ZSt20__throw_domain_errorPKc
                0x000000000004cd60      0x1e0 /home/jfb/nacl_sdk/pepper_42/toolchain/linux_x86_newlib/bin/../lib/gcc/x86_64-nacl/4.4.3/../../../../x86_64-nacl/lib/../lib32/libstdc++.a(functexcept.o)
                0x000000000004cd60                _ZSt20__throw_domain_errorPKc
 .text._ZSt19__throw_logic_errorPKc
                0x000000000004cf40      0x1e0 /home/jfb/nacl_sdk/pepper_42/toolchain/linux_x86_newlib/bin/../lib/gcc/x86_64-nacl/4.4.3/../../../../x86_64-nacl/lib/../lib32/libstdc++.a(functexcept.o)
                0x000000000004cf40                _ZSt19__throw_logic_errorPKc
 .text          0x000000000004d120        0x0 /home/jfb/nacl_sdk/pepper_42/toolchain/linux_x86_newlib/bin/../lib/gcc/x86_64-nacl/4.4.3/../../../../x86_64-nacl/lib/../lib32/libstdc++.a(ios_failure.o)
 .text._ZNKSt8ios_base7failure4whatEv
                0x000000000004d120       0x20 /home/jfb/nacl_sdk/pepper_42/toolchain/linux_x86_newlib/bin/../lib/gcc/x86_64-nacl/4.4.3/../../../../x86_64-nacl/lib/../lib32/libstdc++.a(ios_failure.o)
                0x000000000004d120                _ZNKSt8ios_base7failure4whatEv
 .text._ZNSt8ios_base7failureC1ERKSs
                0x000000000004d140       0xc0 /home/jfb/nacl_sdk/pepper_42/toolchain/linux_x86_newlib/bin/../lib/gcc/x86_64-nacl/4.4.3/../../../../x86_64-nacl/lib/../lib32/libstdc++.a(ios_failure.o)
                0x000000000004d140                _ZNSt8ios_base7failureC1ERKSs
 .text._ZNSt8ios_base7failureC2ERKSs
                0x000000000004d200       0xc0 /home/jfb/nacl_sdk/pepper_42/toolchain/linux_x86_newlib/bin/../lib/gcc/x86_64-nacl/4.4.3/../../../../x86_64-nacl/lib/../lib32/libstdc++.a(ios_failure.o)
                0x000000000004d200                _ZNSt8ios_base7failureC2ERKSs
 .text._ZNSt8ios_base7failureD0Ev
                0x000000000004d2c0      0x120 /home/jfb/nacl_sdk/pepper_42/toolchain/linux_x86_newlib/bin/../lib/gcc/x86_64-nacl/4.4.3/../../../../x86_64-nacl/lib/../lib32/libstdc++.a(ios_failure.o)
                0x000000000004d2c0                _ZNSt8ios_base7failureD0Ev
 .text._ZNSt8ios_base7failureD1Ev
                0x000000000004d3e0      0x100 /home/jfb/nacl_sdk/pepper_42/toolchain/linux_x86_newlib/bin/../lib/gcc/x86_64-nacl/4.4.3/../../../../x86_64-nacl/lib/../lib32/libstdc++.a(ios_failure.o)
                0x000000000004d3e0                _ZNSt8ios_base7failureD1Ev
 .text._ZNSt8ios_base7failureD2Ev
                0x000000000004d4e0      0x100 /home/jfb/nacl_sdk/pepper_42/toolchain/linux_x86_newlib/bin/../lib/gcc/x86_64-nacl/4.4.3/../../../../x86_64-nacl/lib/../lib32/libstdc++.a(ios_failure.o)
                0x000000000004d4e0                _ZNSt8ios_base7failureD2Ev
 .text          0x000000000004d5e0        0x0 /home/jfb/nacl_sdk/pepper_42/toolchain/linux_x86_newlib/bin/../lib/gcc/x86_64-nacl/4.4.3/../../../../x86_64-nacl/lib/../lib32/libstdc++.a(stdexcept.o)
 .text._ZNKSt11logic_error4whatEv
                0x000000000004d5e0       0x20 /home/jfb/nacl_sdk/pepper_42/toolchain/linux_x86_newlib/bin/../lib/gcc/x86_64-nacl/4.4.3/../../../../x86_64-nacl/lib/../lib32/libstdc++.a(stdexcept.o)
                0x000000000004d5e0                _ZNKSt11logic_error4whatEv
 .text._ZNKSt13runtime_error4whatEv
                0x000000000004d600       0x20 /home/jfb/nacl_sdk/pepper_42/toolchain/linux_x86_newlib/bin/../lib/gcc/x86_64-nacl/4.4.3/../../../../x86_64-nacl/lib/../lib32/libstdc++.a(stdexcept.o)
                0x000000000004d600                _ZNKSt13runtime_error4whatEv
 .text._ZNSt13runtime_errorC1ERKSs
                0x000000000004d620       0xa0 /home/jfb/nacl_sdk/pepper_42/toolchain/linux_x86_newlib/bin/../lib/gcc/x86_64-nacl/4.4.3/../../../../x86_64-nacl/lib/../lib32/libstdc++.a(stdexcept.o)
                0x000000000004d620                _ZNSt13runtime_errorC1ERKSs
 .text._ZNSt13runtime_errorC2ERKSs
                0x000000000004d6c0       0xa0 /home/jfb/nacl_sdk/pepper_42/toolchain/linux_x86_newlib/bin/../lib/gcc/x86_64-nacl/4.4.3/../../../../x86_64-nacl/lib/../lib32/libstdc++.a(stdexcept.o)
                0x000000000004d6c0                _ZNSt13runtime_errorC2ERKSs
 .text._ZNSt15underflow_errorC1ERKSs
                0x000000000004d760       0x40 /home/jfb/nacl_sdk/pepper_42/toolchain/linux_x86_newlib/bin/../lib/gcc/x86_64-nacl/4.4.3/../../../../x86_64-nacl/lib/../lib32/libstdc++.a(stdexcept.o)
                0x000000000004d760                _ZNSt15underflow_errorC1ERKSs
 .text._ZNSt15underflow_errorC2ERKSs
                0x000000000004d7a0       0x40 /home/jfb/nacl_sdk/pepper_42/toolchain/linux_x86_newlib/bin/../lib/gcc/x86_64-nacl/4.4.3/../../../../x86_64-nacl/lib/../lib32/libstdc++.a(stdexcept.o)
                0x000000000004d7a0                _ZNSt15underflow_errorC2ERKSs
 .text._ZNSt14overflow_errorC1ERKSs
                0x000000000004d7e0       0x40 /home/jfb/nacl_sdk/pepper_42/toolchain/linux_x86_newlib/bin/../lib/gcc/x86_64-nacl/4.4.3/../../../../x86_64-nacl/lib/../lib32/libstdc++.a(stdexcept.o)
                0x000000000004d7e0                _ZNSt14overflow_errorC1ERKSs
 .text._ZNSt14overflow_errorC2ERKSs
                0x000000000004d820       0x40 /home/jfb/nacl_sdk/pepper_42/toolchain/linux_x86_newlib/bin/../lib/gcc/x86_64-nacl/4.4.3/../../../../x86_64-nacl/lib/../lib32/libstdc++.a(stdexcept.o)
                0x000000000004d820                _ZNSt14overflow_errorC2ERKSs
 .text._ZNSt11range_errorC1ERKSs
                0x000000000004d860       0x40 /home/jfb/nacl_sdk/pepper_42/toolchain/linux_x86_newlib/bin/../lib/gcc/x86_64-nacl/4.4.3/../../../../x86_64-nacl/lib/../lib32/libstdc++.a(stdexcept.o)
                0x000000000004d860                _ZNSt11range_errorC1ERKSs
 .text._ZNSt11range_errorC2ERKSs
                0x000000000004d8a0       0x40 /home/jfb/nacl_sdk/pepper_42/toolchain/linux_x86_newlib/bin/../lib/gcc/x86_64-nacl/4.4.3/../../../../x86_64-nacl/lib/../lib32/libstdc++.a(stdexcept.o)
                0x000000000004d8a0                _ZNSt11range_errorC2ERKSs
 .text._ZNSt11logic_errorC1ERKSs
                0x000000000004d8e0       0xa0 /home/jfb/nacl_sdk/pepper_42/toolchain/linux_x86_newlib/bin/../lib/gcc/x86_64-nacl/4.4.3/../../../../x86_64-nacl/lib/../lib32/libstdc++.a(stdexcept.o)
                0x000000000004d8e0                _ZNSt11logic_errorC1ERKSs
 .text._ZNSt11logic_errorC2ERKSs
                0x000000000004d980       0xa0 /home/jfb/nacl_sdk/pepper_42/toolchain/linux_x86_newlib/bin/../lib/gcc/x86_64-nacl/4.4.3/../../../../x86_64-nacl/lib/../lib32/libstdc++.a(stdexcept.o)
                0x000000000004d980                _ZNSt11logic_errorC2ERKSs
 .text._ZNSt12out_of_rangeC1ERKSs
                0x000000000004da20       0x40 /home/jfb/nacl_sdk/pepper_42/toolchain/linux_x86_newlib/bin/../lib/gcc/x86_64-nacl/4.4.3/../../../../x86_64-nacl/lib/../lib32/libstdc++.a(stdexcept.o)
                0x000000000004da20                _ZNSt12out_of_rangeC1ERKSs
 .text._ZNSt12out_of_rangeC2ERKSs
                0x000000000004da60       0x40 /home/jfb/nacl_sdk/pepper_42/toolchain/linux_x86_newlib/bin/../lib/gcc/x86_64-nacl/4.4.3/../../../../x86_64-nacl/lib/../lib32/libstdc++.a(stdexcept.o)
                0x000000000004da60                _ZNSt12out_of_rangeC2ERKSs
 .text._ZNSt12length_errorC1ERKSs
                0x000000000004daa0       0x40 /home/jfb/nacl_sdk/pepper_42/toolchain/linux_x86_newlib/bin/../lib/gcc/x86_64-nacl/4.4.3/../../../../x86_64-nacl/lib/../lib32/libstdc++.a(stdexcept.o)
                0x000000000004daa0                _ZNSt12length_errorC1ERKSs
 .text._ZNSt12length_errorC2ERKSs
                0x000000000004dae0       0x40 /home/jfb/nacl_sdk/pepper_42/toolchain/linux_x86_newlib/bin/../lib/gcc/x86_64-nacl/4.4.3/../../../../x86_64-nacl/lib/../lib32/libstdc++.a(stdexcept.o)
                0x000000000004dae0                _ZNSt12length_errorC2ERKSs
 .text._ZNSt16invalid_argumentC1ERKSs
                0x000000000004db20       0x40 /home/jfb/nacl_sdk/pepper_42/toolchain/linux_x86_newlib/bin/../lib/gcc/x86_64-nacl/4.4.3/../../../../x86_64-nacl/lib/../lib32/libstdc++.a(stdexcept.o)
                0x000000000004db20                _ZNSt16invalid_argumentC1ERKSs
 .text._ZNSt16invalid_argumentC2ERKSs
                0x000000000004db60       0x40 /home/jfb/nacl_sdk/pepper_42/toolchain/linux_x86_newlib/bin/../lib/gcc/x86_64-nacl/4.4.3/../../../../x86_64-nacl/lib/../lib32/libstdc++.a(stdexcept.o)
                0x000000000004db60                _ZNSt16invalid_argumentC2ERKSs
 .text._ZNSt12domain_errorC1ERKSs
                0x000000000004dba0       0x40 /home/jfb/nacl_sdk/pepper_42/toolchain/linux_x86_newlib/bin/../lib/gcc/x86_64-nacl/4.4.3/../../../../x86_64-nacl/lib/../lib32/libstdc++.a(stdexcept.o)
                0x000000000004dba0                _ZNSt12domain_errorC1ERKSs
 .text._ZNSt12domain_errorC2ERKSs
                0x000000000004dbe0       0x40 /home/jfb/nacl_sdk/pepper_42/toolchain/linux_x86_newlib/bin/../lib/gcc/x86_64-nacl/4.4.3/../../../../x86_64-nacl/lib/../lib32/libstdc++.a(stdexcept.o)
                0x000000000004dbe0                _ZNSt12domain_errorC2ERKSs
 .text._ZNSt13runtime_errorD2Ev
                0x000000000004dc20      0x100 /home/jfb/nacl_sdk/pepper_42/toolchain/linux_x86_newlib/bin/../lib/gcc/x86_64-nacl/4.4.3/../../../../x86_64-nacl/lib/../lib32/libstdc++.a(stdexcept.o)
                0x000000000004dc20                _ZNSt13runtime_errorD2Ev
 .text._ZNSt11logic_errorD1Ev
                0x000000000004dd20      0x100 /home/jfb/nacl_sdk/pepper_42/toolchain/linux_x86_newlib/bin/../lib/gcc/x86_64-nacl/4.4.3/../../../../x86_64-nacl/lib/../lib32/libstdc++.a(stdexcept.o)
                0x000000000004dd20                _ZNSt11logic_errorD1Ev
 .text._ZNSt11logic_errorD2Ev
                0x000000000004de20      0x100 /home/jfb/nacl_sdk/pepper_42/toolchain/linux_x86_newlib/bin/../lib/gcc/x86_64-nacl/4.4.3/../../../../x86_64-nacl/lib/../lib32/libstdc++.a(stdexcept.o)
                0x000000000004de20                _ZNSt11logic_errorD2Ev
 .text._ZNSt13runtime_errorD0Ev
                0x000000000004df20      0x120 /home/jfb/nacl_sdk/pepper_42/toolchain/linux_x86_newlib/bin/../lib/gcc/x86_64-nacl/4.4.3/../../../../x86_64-nacl/lib/../lib32/libstdc++.a(stdexcept.o)
                0x000000000004df20                _ZNSt13runtime_errorD0Ev
 .text._ZNSt13runtime_errorD1Ev
                0x000000000004e040      0x100 /home/jfb/nacl_sdk/pepper_42/toolchain/linux_x86_newlib/bin/../lib/gcc/x86_64-nacl/4.4.3/../../../../x86_64-nacl/lib/../lib32/libstdc++.a(stdexcept.o)
                0x000000000004e040                _ZNSt13runtime_errorD1Ev
 .text._ZNSt11logic_errorD0Ev
                0x000000000004e140      0x120 /home/jfb/nacl_sdk/pepper_42/toolchain/linux_x86_newlib/bin/../lib/gcc/x86_64-nacl/4.4.3/../../../../x86_64-nacl/lib/../lib32/libstdc++.a(stdexcept.o)
                0x000000000004e140                _ZNSt11logic_errorD0Ev
 .text          0x000000000004e260        0x0 /home/jfb/nacl_sdk/pepper_42/toolchain/linux_x86_newlib/bin/../lib/gcc/x86_64-nacl/4.4.3/../../../../x86_64-nacl/lib/../lib32/libstdc++.a(system_error.o)
 .text._ZNSt14error_categoryD1Ev
                0x000000000004e260       0x20 /home/jfb/nacl_sdk/pepper_42/toolchain/linux_x86_newlib/bin/../lib/gcc/x86_64-nacl/4.4.3/../../../../x86_64-nacl/lib/../lib32/libstdc++.a(system_error.o)
                0x000000000004e260                _ZNSt14error_categoryD1Ev
 .text._ZNK12_GLOBAL__N_122generic_error_category4nameEv
                0x000000000004e280       0x20 /home/jfb/nacl_sdk/pepper_42/toolchain/linux_x86_newlib/bin/../lib/gcc/x86_64-nacl/4.4.3/../../../../x86_64-nacl/lib/../lib32/libstdc++.a(system_error.o)
 .text._ZNK12_GLOBAL__N_121system_error_category4nameEv
                0x000000000004e2a0       0x20 /home/jfb/nacl_sdk/pepper_42/toolchain/linux_x86_newlib/bin/../lib/gcc/x86_64-nacl/4.4.3/../../../../x86_64-nacl/lib/../lib32/libstdc++.a(system_error.o)
 .text._ZSt15system_categoryv
                0x000000000004e2c0       0x20 /home/jfb/nacl_sdk/pepper_42/toolchain/linux_x86_newlib/bin/../lib/gcc/x86_64-nacl/4.4.3/../../../../x86_64-nacl/lib/../lib32/libstdc++.a(system_error.o)
                0x000000000004e2c0                _ZSt15system_categoryv
 .text._ZSt16generic_categoryv
                0x000000000004e2e0       0x20 /home/jfb/nacl_sdk/pepper_42/toolchain/linux_x86_newlib/bin/../lib/gcc/x86_64-nacl/4.4.3/../../../../x86_64-nacl/lib/../lib32/libstdc++.a(system_error.o)
                0x000000000004e2e0                _ZSt16generic_categoryv
 .text._ZNKSt14error_category23default_error_conditionEi
                0x000000000004e300       0x20 /home/jfb/nacl_sdk/pepper_42/toolchain/linux_x86_newlib/bin/../lib/gcc/x86_64-nacl/4.4.3/../../../../x86_64-nacl/lib/../lib32/libstdc++.a(system_error.o)
                0x000000000004e300                _ZNKSt14error_category23default_error_conditionEi
 .text._ZNKSt14error_category10equivalentEiRKSt15error_condition
                0x000000000004e320       0x80 /home/jfb/nacl_sdk/pepper_42/toolchain/linux_x86_newlib/bin/../lib/gcc/x86_64-nacl/4.4.3/../../../../x86_64-nacl/lib/../lib32/libstdc++.a(system_error.o)
                0x000000000004e320                _ZNKSt14error_category10equivalentEiRKSt15error_condition
 .text._ZNKSt14error_category10equivalentERKSt10error_codei
                0x000000000004e3a0       0x40 /home/jfb/nacl_sdk/pepper_42/toolchain/linux_x86_newlib/bin/../lib/gcc/x86_64-nacl/4.4.3/../../../../x86_64-nacl/lib/../lib32/libstdc++.a(system_error.o)
                0x000000000004e3a0                _ZNKSt14error_category10equivalentERKSt10error_codei
 .text._ZNKSt10error_code23default_error_conditionEv
                0x000000000004e3e0       0x60 /home/jfb/nacl_sdk/pepper_42/toolchain/linux_x86_newlib/bin/../lib/gcc/x86_64-nacl/4.4.3/../../../../x86_64-nacl/lib/../lib32/libstdc++.a(system_error.o)
                0x000000000004e3e0                _ZNKSt10error_code23default_error_conditionEv
 .text._ZN12_GLOBAL__N_122generic_error_categoryD1Ev
                0x000000000004e440       0x20 /home/jfb/nacl_sdk/pepper_42/toolchain/linux_x86_newlib/bin/../lib/gcc/x86_64-nacl/4.4.3/../../../../x86_64-nacl/lib/../lib32/libstdc++.a(system_error.o)
 .text._ZN12_GLOBAL__N_121system_error_categoryD1Ev
                0x000000000004e460       0x20 /home/jfb/nacl_sdk/pepper_42/toolchain/linux_x86_newlib/bin/../lib/gcc/x86_64-nacl/4.4.3/../../../../x86_64-nacl/lib/../lib32/libstdc++.a(system_error.o)
 .text._ZNSt14error_categoryD0Ev
                0x000000000004e480       0x20 /home/jfb/nacl_sdk/pepper_42/toolchain/linux_x86_newlib/bin/../lib/gcc/x86_64-nacl/4.4.3/../../../../x86_64-nacl/lib/../lib32/libstdc++.a(system_error.o)
                0x000000000004e480                _ZNSt14error_categoryD0Ev
 .text._ZN12_GLOBAL__N_122generic_error_categoryD0Ev
                0x000000000004e4a0       0x20 /home/jfb/nacl_sdk/pepper_42/toolchain/linux_x86_newlib/bin/../lib/gcc/x86_64-nacl/4.4.3/../../../../x86_64-nacl/lib/../lib32/libstdc++.a(system_error.o)
 .text._ZN12_GLOBAL__N_121system_error_categoryD0Ev
                0x000000000004e4c0       0x20 /home/jfb/nacl_sdk/pepper_42/toolchain/linux_x86_newlib/bin/../lib/gcc/x86_64-nacl/4.4.3/../../../../x86_64-nacl/lib/../lib32/libstdc++.a(system_error.o)
 .text._GLOBAL__I__ZSt15system_categoryv
                0x000000000004e4e0       0xa0 /home/jfb/nacl_sdk/pepper_42/toolchain/linux_x86_newlib/bin/../lib/gcc/x86_64-nacl/4.4.3/../../../../x86_64-nacl/lib/../lib32/libstdc++.a(system_error.o)
 .text._ZNK12_GLOBAL__N_122generic_error_category7messageEi
                0x000000000004e580       0x80 /home/jfb/nacl_sdk/pepper_42/toolchain/linux_x86_newlib/bin/../lib/gcc/x86_64-nacl/4.4.3/../../../../x86_64-nacl/lib/../lib32/libstdc++.a(system_error.o)
 .text._ZNK12_GLOBAL__N_121system_error_category7messageEi
                0x000000000004e600       0x80 /home/jfb/nacl_sdk/pepper_42/toolchain/linux_x86_newlib/bin/../lib/gcc/x86_64-nacl/4.4.3/../../../../x86_64-nacl/lib/../lib32/libstdc++.a(system_error.o)
 .text._ZNSt12system_errorD0Ev
                0x000000000004e680       0x40 /home/jfb/nacl_sdk/pepper_42/toolchain/linux_x86_newlib/bin/../lib/gcc/x86_64-nacl/4.4.3/../../../../x86_64-nacl/lib/../lib32/libstdc++.a(system_error.o)
                0x000000000004e680                _ZNSt12system_errorD0Ev
 .text._ZNSt12system_errorD1Ev
                0x000000000004e6c0       0x20 /home/jfb/nacl_sdk/pepper_42/toolchain/linux_x86_newlib/bin/../lib/gcc/x86_64-nacl/4.4.3/../../../../x86_64-nacl/lib/../lib32/libstdc++.a(system_error.o)
                0x000000000004e6c0                _ZNSt12system_errorD1Ev
 .text._ZNSt12system_errorD2Ev
                0x000000000004e6e0       0x20 /home/jfb/nacl_sdk/pepper_42/toolchain/linux_x86_newlib/bin/../lib/gcc/x86_64-nacl/4.4.3/../../../../x86_64-nacl/lib/../lib32/libstdc++.a(system_error.o)
                0x000000000004e6e0                _ZNSt12system_errorD2Ev
 .text          0x000000000004e700        0x0 /home/jfb/nacl_sdk/pepper_42/toolchain/linux_x86_newlib/bin/../lib/gcc/x86_64-nacl/4.4.3/../../../../x86_64-nacl/lib/../lib32/libstdc++.a(eh_unex_handler.o)
 .text          0x000000000004e700        0x0 /home/jfb/nacl_sdk/pepper_42/toolchain/linux_x86_newlib/bin/../lib/gcc/x86_64-nacl/4.4.3/../../../../x86_64-nacl/lib/../lib32/libstdc++.a(eh_term_handler.o)
 .text          0x000000000004e700        0x0 /home/jfb/nacl_sdk/pepper_42/toolchain/linux_x86_newlib/bin/../lib/gcc/x86_64-nacl/4.4.3/../../../../x86_64-nacl/lib/../lib32/libstdc++.a(bad_typeid.o)
 .text._ZNKSt10bad_typeid4whatEv
                0x000000000004e700       0x20 /home/jfb/nacl_sdk/pepper_42/toolchain/linux_x86_newlib/bin/../lib/gcc/x86_64-nacl/4.4.3/../../../../x86_64-nacl/lib/../lib32/libstdc++.a(bad_typeid.o)
                0x000000000004e700                _ZNKSt10bad_typeid4whatEv
 .text._ZNSt10bad_typeidD1Ev
                0x000000000004e720       0x20 /home/jfb/nacl_sdk/pepper_42/toolchain/linux_x86_newlib/bin/../lib/gcc/x86_64-nacl/4.4.3/../../../../x86_64-nacl/lib/../lib32/libstdc++.a(bad_typeid.o)
                0x000000000004e720                _ZNSt10bad_typeidD1Ev
 .text._ZNSt10bad_typeidD2Ev
                0x000000000004e740       0x20 /home/jfb/nacl_sdk/pepper_42/toolchain/linux_x86_newlib/bin/../lib/gcc/x86_64-nacl/4.4.3/../../../../x86_64-nacl/lib/../lib32/libstdc++.a(bad_typeid.o)
                0x000000000004e740                _ZNSt10bad_typeidD2Ev
 .text._ZNSt10bad_typeidD0Ev
                0x000000000004e760       0x40 /home/jfb/nacl_sdk/pepper_42/toolchain/linux_x86_newlib/bin/../lib/gcc/x86_64-nacl/4.4.3/../../../../x86_64-nacl/lib/../lib32/libstdc++.a(bad_typeid.o)
                0x000000000004e760                _ZNSt10bad_typeidD0Ev
 .text          0x000000000004e7a0        0x0 /home/jfb/nacl_sdk/pepper_42/toolchain/linux_x86_newlib/bin/../lib/gcc/x86_64-nacl/4.4.3/../../../../x86_64-nacl/lib/../lib32/libstdc++.a(new_handler.o)
 .text._ZSt15set_new_handlerPFvvE
                0x000000000004e7a0       0x20 /home/jfb/nacl_sdk/pepper_42/toolchain/linux_x86_newlib/bin/../lib/gcc/x86_64-nacl/4.4.3/../../../../x86_64-nacl/lib/../lib32/libstdc++.a(new_handler.o)
                0x000000000004e7a0                _ZSt15set_new_handlerPFvvE
 .text._ZNKSt9bad_alloc4whatEv
                0x000000000004e7c0       0x20 /home/jfb/nacl_sdk/pepper_42/toolchain/linux_x86_newlib/bin/../lib/gcc/x86_64-nacl/4.4.3/../../../../x86_64-nacl/lib/../lib32/libstdc++.a(new_handler.o)
                0x000000000004e7c0                _ZNKSt9bad_alloc4whatEv
 .text._ZNSt9bad_allocD1Ev
                0x000000000004e7e0       0x20 /home/jfb/nacl_sdk/pepper_42/toolchain/linux_x86_newlib/bin/../lib/gcc/x86_64-nacl/4.4.3/../../../../x86_64-nacl/lib/../lib32/libstdc++.a(new_handler.o)
                0x000000000004e7e0                _ZNSt9bad_allocD1Ev
 .text._ZNSt9bad_allocD2Ev
                0x000000000004e800       0x20 /home/jfb/nacl_sdk/pepper_42/toolchain/linux_x86_newlib/bin/../lib/gcc/x86_64-nacl/4.4.3/../../../../x86_64-nacl/lib/../lib32/libstdc++.a(new_handler.o)
                0x000000000004e800                _ZNSt9bad_allocD2Ev
 .text._ZNSt9bad_allocD0Ev
                0x000000000004e820       0x40 /home/jfb/nacl_sdk/pepper_42/toolchain/linux_x86_newlib/bin/../lib/gcc/x86_64-nacl/4.4.3/../../../../x86_64-nacl/lib/../lib32/libstdc++.a(new_handler.o)
                0x000000000004e820                _ZNSt9bad_allocD0Ev
 .text          0x000000000004e860        0x0 /home/jfb/nacl_sdk/pepper_42/toolchain/linux_x86_newlib/bin/../lib/gcc/x86_64-nacl/4.4.3/../../../../x86_64-nacl/lib/../lib32/libstdc++.a(bad_cast.o)
 .text._ZNKSt8bad_cast4whatEv
                0x000000000004e860       0x20 /home/jfb/nacl_sdk/pepper_42/toolchain/linux_x86_newlib/bin/../lib/gcc/x86_64-nacl/4.4.3/../../../../x86_64-nacl/lib/../lib32/libstdc++.a(bad_cast.o)
                0x000000000004e860                _ZNKSt8bad_cast4whatEv
 .text._ZNSt8bad_castD1Ev
                0x000000000004e880       0x20 /home/jfb/nacl_sdk/pepper_42/toolchain/linux_x86_newlib/bin/../lib/gcc/x86_64-nacl/4.4.3/../../../../x86_64-nacl/lib/../lib32/libstdc++.a(bad_cast.o)
                0x000000000004e880                _ZNSt8bad_castD1Ev
 .text._ZNSt8bad_castD2Ev
                0x000000000004e8a0       0x20 /home/jfb/nacl_sdk/pepper_42/toolchain/linux_x86_newlib/bin/../lib/gcc/x86_64-nacl/4.4.3/../../../../x86_64-nacl/lib/../lib32/libstdc++.a(bad_cast.o)
                0x000000000004e8a0                _ZNSt8bad_castD2Ev
 .text._ZNSt8bad_castD0Ev
                0x000000000004e8c0       0x40 /home/jfb/nacl_sdk/pepper_42/toolchain/linux_x86_newlib/bin/../lib/gcc/x86_64-nacl/4.4.3/../../../../x86_64-nacl/lib/../lib32/libstdc++.a(bad_cast.o)
                0x000000000004e8c0                _ZNSt8bad_castD0Ev
 .text          0x000000000004e900        0x0 /home/jfb/nacl_sdk/pepper_42/toolchain/linux_x86_newlib/bin/../lib/gcc/x86_64-nacl/4.4.3/../../../../x86_64-nacl/lib/../lib32/libstdc++.a(vterminate.o)
 .text._ZN9__gnu_cxx27__verbose_terminate_handlerEv
                0x000000000004e900      0x420 /home/jfb/nacl_sdk/pepper_42/toolchain/linux_x86_newlib/bin/../lib/gcc/x86_64-nacl/4.4.3/../../../../x86_64-nacl/lib/../lib32/libstdc++.a(vterminate.o)
                0x000000000004e900                _ZN9__gnu_cxx27__verbose_terminate_handlerEv
 .text          0x000000000004ed20     0x8340 /home/jfb/nacl_sdk/pepper_42/toolchain/linux_x86_newlib/bin/../lib/gcc/x86_64-nacl/4.4.3/../../../../x86_64-nacl/lib/../lib32/libstdc++.a(cp-demangle.o)
                0x0000000000056580                __gcclibcxx_demangle_callback
                0x0000000000056600                __cxa_demangle
 .text          0x0000000000057060        0x0 /home/jfb/nacl_sdk/pepper_42/toolchain/linux_x86_newlib/bin/../lib/gcc/x86_64-nacl/4.4.3/../../../../x86_64-nacl/lib/../lib32/libstdc++.a(eh_type.o)
 .text.__cxa_current_exception_type
                0x0000000000057060       0xa0 /home/jfb/nacl_sdk/pepper_42/toolchain/linux_x86_newlib/bin/../lib/gcc/x86_64-nacl/4.4.3/../../../../x86_64-nacl/lib/../lib32/libstdc++.a(eh_type.o)
                0x0000000000057060                __cxa_current_exception_type
 .text          0x0000000000057100     0x4920 /home/jfb/nacl_sdk/pepper_42/toolchain/linux_x86_newlib/bin/../lib/gcc/x86_64-nacl/4.4.3/32/libgcc.a(unwind-dw2.o)
                0x0000000000057180                _Unwind_GetCFA
                0x00000000000571a0                _Unwind_GetIP
                0x00000000000571c0                _Unwind_GetIPInfo
                0x00000000000571e0                _Unwind_SetIP
                0x0000000000057200                _Unwind_GetLanguageSpecificData
                0x0000000000057220                _Unwind_GetRegionStart
                0x0000000000057240                _Unwind_GetDataRelBase
                0x0000000000057260                _Unwind_GetTextRelBase
                0x0000000000057280                _Unwind_DeleteException
                0x00000000000572c0                _Unwind_SetGR
                0x00000000000573c0                _Unwind_GetGR
                0x0000000000057600                _Unwind_FindEnclosingFunction
                0x000000000005ada0                _Unwind_Backtrace
                0x000000000005b0c0                _Unwind_ForcedUnwind
                0x000000000005b340                _Unwind_Resume
                0x000000000005b4c0                __frame_state_for
                0x000000000005b660                _Unwind_RaiseException
                0x000000000005b8c0                _Unwind_Resume_or_Rethrow
 .text.__i686.get_pc_thunk.cx
                0x000000000005ba20       0x20 /home/jfb/nacl_sdk/pepper_42/toolchain/linux_x86_newlib/bin/../lib/gcc/x86_64-nacl/4.4.3/32/libgcc.a(unwind-dw2.o)
                0x000000000005ba20                __i686.get_pc_thunk.cx
 .text.__i686.get_pc_thunk.bx
                0x000000000005ba40       0x20 /home/jfb/nacl_sdk/pepper_42/toolchain/linux_x86_newlib/bin/../lib/gcc/x86_64-nacl/4.4.3/32/libgcc.a(unwind-dw2.o)
                0x000000000005ba40                __i686.get_pc_thunk.bx
 .text          0x000000000005ba60     0x2700 /home/jfb/nacl_sdk/pepper_42/toolchain/linux_x86_newlib/bin/../lib/gcc/x86_64-nacl/4.4.3/32/libgcc.a(unwind-dw2-fde-glibc.o)
                0x000000000005d720                __deregister_frame_info_bases
                0x000000000005d980                __deregister_frame_info
                0x000000000005d9e0                __deregister_frame
                0x000000000005da60                __register_frame_info_table_bases
                0x000000000005db40                __register_frame_info_table
                0x000000000005dbc0                __register_frame_table
                0x000000000005dc40                _Unwind_Find_FDE
                0x000000000005df60                __register_frame_info_bases
                0x000000000005e060                __register_frame_info
                0x000000000005e0e0                __register_frame
 .text          0x000000000005e160       0x40 /home/jfb/nacl_sdk/pepper_42/toolchain/linux_x86_newlib/bin/../lib/gcc/x86_64-nacl/4.4.3/../../../../x86_64-nacl/lib/../lib32/libnacl.a(_exit_710c7d0d.o)
                0x000000000005e160                _exit
 .text          0x000000000005e1a0       0x40 /home/jfb/nacl_sdk/pepper_42/toolchain/linux_x86_newlib/bin/../lib/gcc/x86_64-nacl/4.4.3/../../../../x86_64-nacl/lib/../lib32/libnacl.a(abort_9f6b5845.o)
                0x000000000005e1a0                abort
 .text          0x000000000005e1e0        0x0 /home/jfb/nacl_sdk/pepper_42/toolchain/linux_x86_newlib/bin/../lib/gcc/x86_64-nacl/4.4.3/../../../../x86_64-nacl/lib/../lib32/libnacl.a(environ_25cd24d8.o)
 .text          0x000000000005e1e0      0x120 /home/jfb/nacl_sdk/pepper_42/toolchain/linux_x86_newlib/bin/../lib/gcc/x86_64-nacl/4.4.3/../../../../x86_64-nacl/lib/../lib32/libnacl.a(start_fa9ef7de.o)
                0x000000000005e1e0                _start
 .text          0x000000000005e300     0x6460 /home/jfb/nacl_sdk/pepper_42/toolchain/linux_x86_newlib/bin/../lib/gcc/x86_64-nacl/4.4.3/../../../../x86_64-nacl/lib/../lib32/libnacl.a(malloc_222c4a1e.o)
                0x000000000005e300                malloc_footprint
                0x000000000005e320                malloc_max_footprint
                0x000000000005e340                malloc_footprint_limit
                0x000000000005e360                malloc_set_footprint_limit
                0x000000000005e3a0                malloc_usable_size
                0x000000000005e5e0                mallopt
                0x000000000005fb20                bulk_free
                0x000000000005fd20                malloc_trim
                0x000000000005fe40                free
                0x0000000000060a20                _free_r
                0x0000000000060a40                mallinfo
                0x0000000000060de0                malloc_stats
                0x0000000000061100                malloc
                0x00000000000631a0                _malloc_r
                0x00000000000631c0                calloc
                0x0000000000063280                _calloc_r
                0x00000000000638a0                realloc
                0x0000000000063b20                _realloc_r
                0x0000000000063b40                realloc_in_place
                0x0000000000064020                memalign
                0x0000000000064060                pvalloc
                0x00000000000640c0                valloc
                0x0000000000064120                posix_memalign
                0x00000000000646e0                independent_calloc
                0x0000000000064740                independent_comalloc
 .text          0x0000000000064760      0x340 /home/jfb/nacl_sdk/pepper_42/toolchain/linux_x86_newlib/bin/../lib/gcc/x86_64-nacl/4.4.3/../../../../x86_64-nacl/lib/../lib32/libnacl.a(nacl_irt_6de1d53f.o)
                0x0000000000064860                __libnacl_irt_init_fn
                0x00000000000649a0                __libnacl_irt_query
                0x0000000000064a40                __libnacl_mandatory_irt_query
 .text          0x0000000000064aa0      0x100 /home/jfb/nacl_sdk/pepper_42/toolchain/linux_x86_newlib/bin/../lib/gcc/x86_64-nacl/4.4.3/../../../../x86_64-nacl/lib/../lib32/libnacl.a(pthread_initialize_minimal_4b6e776b.o)
                0x0000000000064aa0                __pthread_initialize_minimal
 .text          0x0000000000064ba0       0x20 /home/jfb/nacl_sdk/pepper_42/toolchain/linux_x86_newlib/bin/../lib/gcc/x86_64-nacl/4.4.3/../../../../x86_64-nacl/lib/../lib32/libnacl.a(nacl_read_tp_5748ac47.o)
                0x0000000000064ba0                __nacl_read_tp
 .text          0x0000000000064bc0       0xc0 /home/jfb/nacl_sdk/pepper_42/toolchain/linux_x86_newlib/bin/../lib/gcc/x86_64-nacl/4.4.3/../../../../x86_64-nacl/lib/../lib32/libnacl.a(mmap_767fb080.o)
                0x0000000000064bc0                mmap
 .text          0x0000000000064c80       0xa0 /home/jfb/nacl_sdk/pepper_42/toolchain/linux_x86_newlib/bin/../lib/gcc/x86_64-nacl/4.4.3/../../../../x86_64-nacl/lib/../lib32/libnacl.a(sched_yield_56c375be.o)
                0x0000000000064c80                sched_yield
 .text          0x0000000000064d20       0xa0 /home/jfb/nacl_sdk/pepper_42/toolchain/linux_x86_newlib/bin/../lib/gcc/x86_64-nacl/4.4.3/../../../../x86_64-nacl/lib/../lib32/libnacl.a(munmap_d4f09867.o)
                0x0000000000064d20                munmap
 .text          0x0000000000064dc0      0x2e0 /home/jfb/nacl_sdk/pepper_42/toolchain/linux_x86_newlib/bin/../lib/gcc/x86_64-nacl/4.4.3/../../../../x86_64-nacl/lib/../lib32/libnacl.a(tls_bba1975b.o)
                0x0000000000064f00                __nacl_tls_combined_size
                0x0000000000064f80                __nacl_tls_initialize_memory
 .text          0x00000000000650a0       0xc0 /home/jfb/nacl_sdk/pepper_42/toolchain/linux_x86_newlib/bin/../lib/gcc/x86_64-nacl/4.4.3/../../../../x86_64-nacl/lib/../lib32/libnacl.a(write_fb49787f.o)
                0x00000000000650a0                write
 .text          0x0000000000065160       0x20 /home/jfb/nacl_sdk/pepper_42/toolchain/linux_x86_newlib/bin/../lib/gcc/x86_64-nacl/4.4.3/../../../../x86_64-nacl/lib/../lib32/libnacl.a(nacl_tls_get_d2f842b5.o)
                0x0000000000065160                nacl_tls_get
 .text          0x0000000000065180      0x260 /home/jfb/nacl_sdk/pepper_42/toolchain/linux_x86_newlib/bin/../lib/gcc/x86_64-nacl/4.4.3/../../../../x86_64-nacl/lib/../lib32/libnacl.a(nacl_irt_init_7b4f826e.o)
                0x00000000000651a0                __libnacl_irt_init
 .text          0x00000000000653e0       0xa0 /home/jfb/nacl_sdk/pepper_42/toolchain/linux_x86_newlib/bin/../lib/gcc/x86_64-nacl/4.4.3/../../../../x86_64-nacl/lib/../lib32/libnacl.a(sysconf_ad295ea2.o)
                0x00000000000653e0                sysconf
 .text          0x0000000000065480       0x20 /home/jfb/nacl_sdk/pepper_42/toolchain/linux_x86_newlib/bin/../lib/gcc/x86_64-nacl/4.4.3/../../../../x86_64-nacl/lib/../lib32/libnacl.a(nacl_tls_init_eb0cd232.o)
                0x0000000000065480                nacl_tls_init
 .text          0x00000000000654a0       0x60 /home/jfb/nacl_sdk/pepper_42/toolchain/linux_x86_newlib/bin/../lib/gcc/x86_64-nacl/4.4.3/../../../../x86_64-nacl/lib/../lib32/libcrt_common.a(lib_a-atexit.o)
                0x00000000000654a0                atexit
 .text          0x0000000000065500       0x60 /home/jfb/nacl_sdk/pepper_42/toolchain/linux_x86_newlib/bin/../lib/gcc/x86_64-nacl/4.4.3/../../../../x86_64-nacl/lib/../lib32/libcrt_common.a(lib_a-cxa_atexit.o)
                0x0000000000065500                __cxa_atexit
 .text          0x0000000000065560       0x20 /home/jfb/nacl_sdk/pepper_42/toolchain/linux_x86_newlib/bin/../lib/gcc/x86_64-nacl/4.4.3/../../../../x86_64-nacl/lib/../lib32/libcrt_common.a(lib_a-errno.o)
                0x0000000000065560                __errno
 .text          0x0000000000065580       0x60 /home/jfb/nacl_sdk/pepper_42/toolchain/linux_x86_newlib/bin/../lib/gcc/x86_64-nacl/4.4.3/../../../../x86_64-nacl/lib/../lib32/libcrt_common.a(lib_a-exit.o)
                0x0000000000065580                exit
 .text          0x00000000000655e0       0x80 /home/jfb/nacl_sdk/pepper_42/toolchain/linux_x86_newlib/bin/../lib/gcc/x86_64-nacl/4.4.3/../../../../x86_64-nacl/lib/../lib32/libcrt_common.a(lib_a-fini.o)
                0x00000000000655e0                __libc_fini_array
 .text          0x0000000000065660       0xc0 /home/jfb/nacl_sdk/pepper_42/toolchain/linux_x86_newlib/bin/../lib/gcc/x86_64-nacl/4.4.3/../../../../x86_64-nacl/lib/../lib32/libcrt_common.a(lib_a-fprintf.o)
                0x0000000000065660                fprintf
                0x00000000000656c0                _fprintf_r
 .text          0x0000000000065720      0x2a0 /home/jfb/nacl_sdk/pepper_42/toolchain/linux_x86_newlib/bin/../lib/gcc/x86_64-nacl/4.4.3/../../../../x86_64-nacl/lib/../lib32/libcrt_common.a(lib_a-fputc.o)
                0x0000000000065720                fputc
                0x0000000000065880                _fputc_r
 .text          0x00000000000659c0      0x200 /home/jfb/nacl_sdk/pepper_42/toolchain/linux_x86_newlib/bin/../lib/gcc/x86_64-nacl/4.4.3/../../../../x86_64-nacl/lib/../lib32/libcrt_common.a(lib_a-fputs.o)
                0x00000000000659c0                _fputs_r
                0x0000000000065b60                fputs
 .text          0x0000000000065bc0      0x7e0 /home/jfb/nacl_sdk/pepper_42/toolchain/linux_x86_newlib/bin/../lib/gcc/x86_64-nacl/4.4.3/../../../../x86_64-nacl/lib/../lib32/libcrt_common.a(lib_a-fvwrite.o)
                0x0000000000065bc0                __sfvwrite_r
 .text          0x00000000000663a0      0x280 /home/jfb/nacl_sdk/pepper_42/toolchain/linux_x86_newlib/bin/../lib/gcc/x86_64-nacl/4.4.3/../../../../x86_64-nacl/lib/../lib32/libcrt_common.a(lib_a-fwrite.o)
                0x00000000000663a0                _fwrite_r
                0x00000000000665c0                fwrite
 .text          0x0000000000066620       0xc0 /home/jfb/nacl_sdk/pepper_42/toolchain/linux_x86_newlib/bin/../lib/gcc/x86_64-nacl/4.4.3/../../../../x86_64-nacl/lib/../lib32/libcrt_common.a(lib_a-getenv.o)
                0x0000000000066620                getenv
                0x0000000000066680                _findenv
 .text          0x00000000000666e0      0x240 /home/jfb/nacl_sdk/pepper_42/toolchain/linux_x86_newlib/bin/../lib/gcc/x86_64-nacl/4.4.3/../../../../x86_64-nacl/lib/../lib32/libcrt_common.a(lib_a-getenv_r.o)
                0x00000000000666e0                _findenv_r
                0x00000000000668e0                _getenv_r
 .text          0x0000000000066920       0x40 /home/jfb/nacl_sdk/pepper_42/toolchain/linux_x86_newlib/bin/../lib/gcc/x86_64-nacl/4.4.3/../../../../x86_64-nacl/lib/../lib32/libcrt_common.a(lib_a-impure.o)
                0x0000000000066920                __newlib_thread_init
                0x0000000000066940                __newlib_thread_exit
 .text          0x0000000000066960      0x100 /home/jfb/nacl_sdk/pepper_42/toolchain/linux_x86_newlib/bin/../lib/gcc/x86_64-nacl/4.4.3/../../../../x86_64-nacl/lib/../lib32/libcrt_common.a(lib_a-init.o)
                0x0000000000066960                __libc_init_array
 .text          0x0000000000066a60       0xa0 /home/jfb/nacl_sdk/pepper_42/toolchain/linux_x86_newlib/bin/../lib/gcc/x86_64-nacl/4.4.3/../../../../x86_64-nacl/lib/../lib32/libcrt_common.a(lib_a-memchr.o)
                0x0000000000066a60                memchr
 .text          0x0000000000066b00       0x60 /home/jfb/nacl_sdk/pepper_42/toolchain/linux_x86_newlib/bin/../lib/gcc/x86_64-nacl/4.4.3/../../../../x86_64-nacl/lib/../lib32/libcrt_common.a(lib_a-memcpy.o)
                0x0000000000066b00                memcpy
 .text          0x0000000000066b60       0xa0 /home/jfb/nacl_sdk/pepper_42/toolchain/linux_x86_newlib/bin/../lib/gcc/x86_64-nacl/4.4.3/../../../../x86_64-nacl/lib/../lib32/libcrt_common.a(lib_a-memmove.o)
                0x0000000000066b60                memmove
 .text          0x0000000000066c00       0xa0 /home/jfb/nacl_sdk/pepper_42/toolchain/linux_x86_newlib/bin/../lib/gcc/x86_64-nacl/4.4.3/../../../../x86_64-nacl/lib/../lib32/libcrt_common.a(lib_a-memset.o)
                0x0000000000066c00                memset
 .text          0x0000000000066ca0      0x440 /home/jfb/nacl_sdk/pepper_42/toolchain/linux_x86_newlib/bin/../lib/gcc/x86_64-nacl/4.4.3/../../../../x86_64-nacl/lib/../lib32/libcrt_common.a(lib_a-putc.o)
                0x0000000000066ca0                putc
                0x0000000000066ec0                _putc_r
 .text          0x00000000000670e0      0x240 /home/jfb/nacl_sdk/pepper_42/toolchain/linux_x86_newlib/bin/../lib/gcc/x86_64-nacl/4.4.3/../../../../x86_64-nacl/lib/../lib32/libcrt_common.a(lib_a-snprintf.o)
                0x00000000000670e0                snprintf
                0x0000000000067200                _snprintf_r
 .text          0x0000000000067320      0x100 /home/jfb/nacl_sdk/pepper_42/toolchain/linux_x86_newlib/bin/../lib/gcc/x86_64-nacl/4.4.3/../../../../x86_64-nacl/lib/../lib32/libcrt_common.a(lib_a-sprintf.o)
                0x0000000000067320                sprintf
                0x00000000000673a0                _sprintf_r
 .text          0x0000000000067420       0xa0 /home/jfb/nacl_sdk/pepper_42/toolchain/linux_x86_newlib/bin/../lib/gcc/x86_64-nacl/4.4.3/../../../../x86_64-nacl/lib/../lib32/libcrt_common.a(lib_a-strcpy.o)
                0x0000000000067420                strcpy
 .text          0x00000000000674c0      0x840 /home/jfb/nacl_sdk/pepper_42/toolchain/linux_x86_newlib/bin/../lib/gcc/x86_64-nacl/4.4.3/../../../../x86_64-nacl/lib/../lib32/libcrt_common.a(lib_a-strerror.o)
                0x00000000000674c0                _strerror_r
                0x0000000000067ca0                strerror
 .text          0x0000000000067d00       0xa0 /home/jfb/nacl_sdk/pepper_42/toolchain/linux_x86_newlib/bin/../lib/gcc/x86_64-nacl/4.4.3/../../../../x86_64-nacl/lib/../lib32/libcrt_common.a(lib_a-strlen.o)
                0x0000000000067d00                strlen
 .text          0x0000000000067da0      0x180 /home/jfb/nacl_sdk/pepper_42/toolchain/linux_x86_newlib/bin/../lib/gcc/x86_64-nacl/4.4.3/../../../../x86_64-nacl/lib/../lib32/libcrt_common.a(lib_a-strncmp.o)
                0x0000000000067da0                strncmp
 .text          0x0000000000067f20     0x4740 /home/jfb/nacl_sdk/pepper_42/toolchain/linux_x86_newlib/bin/../lib/gcc/x86_64-nacl/4.4.3/../../../../x86_64-nacl/lib/../lib32/libcrt_common.a(lib_a-svfprintf.o)
                0x0000000000067f20                _svfprintf_r
 .text          0x000000000006c660       0x20 /home/jfb/nacl_sdk/pepper_42/toolchain/linux_x86_newlib/bin/../lib/gcc/x86_64-nacl/4.4.3/../../../../x86_64-nacl/lib/../lib32/libcrt_common.a(lib_a-u_strerr.o)
                0x000000000006c660                _user_strerror
 .text          0x000000000006c680     0x4b00 /home/jfb/nacl_sdk/pepper_42/toolchain/linux_x86_newlib/bin/../lib/gcc/x86_64-nacl/4.4.3/../../../../x86_64-nacl/lib/../lib32/libcrt_common.a(lib_a-vfprintf.o)
                0x000000000006c680                _vfprintf_r
                0x0000000000071120                vfprintf
 .text          0x0000000000071180      0x2a0 /home/jfb/nacl_sdk/pepper_42/toolchain/linux_x86_newlib/bin/../lib/gcc/x86_64-nacl/4.4.3/../../../../x86_64-nacl/lib/../lib32/libcrt_common.a(lib_a-wbuf.o)
                0x0000000000071180                __swbuf_r
                0x00000000000713c0                __swbuf
 .text          0x0000000000071420      0x220 /home/jfb/nacl_sdk/pepper_42/toolchain/linux_x86_newlib/bin/../lib/gcc/x86_64-nacl/4.4.3/../../../../x86_64-nacl/lib/../lib32/libcrt_common.a(lib_a-wcrtomb.o)
                0x0000000000071420                wcrtomb
                0x0000000000071540                _wcrtomb_r
 .text          0x0000000000071640       0xe0 /home/jfb/nacl_sdk/pepper_42/toolchain/linux_x86_newlib/bin/../lib/gcc/x86_64-nacl/4.4.3/../../../../x86_64-nacl/lib/../lib32/libcrt_common.a(lib_a-wcsrtombs.o)
                0x0000000000071640                wcsrtombs
                0x00000000000716c0                _wcsrtombs_r
 .text          0x0000000000071720      0x540 /home/jfb/nacl_sdk/pepper_42/toolchain/linux_x86_newlib/bin/../lib/gcc/x86_64-nacl/4.4.3/../../../../x86_64-nacl/lib/../lib32/libcrt_common.a(lib_a-wctomb_r.o)
                0x0000000000071720                __ascii_wctomb
                0x0000000000071780                __utf8_wctomb
                0x00000000000718e0                __sjis_wctomb
                0x00000000000719c0                __eucjp_wctomb
                0x0000000000071ac0                __jis_wctomb
                0x0000000000071be0                _wctomb_r
 .text          0x0000000000071c60      0x2c0 /home/jfb/nacl_sdk/pepper_42/toolchain/linux_x86_newlib/bin/../lib/gcc/x86_64-nacl/4.4.3/../../../../x86_64-nacl/lib/../lib32/libcrt_common.a(lib_a-wsetup.o)
                0x0000000000071c60                __swsetup_r
 .text          0x0000000000071f20      0x220 /home/jfb/nacl_sdk/pepper_42/toolchain/linux_x86_newlib/bin/../lib/gcc/x86_64-nacl/4.4.3/../../../../x86_64-nacl/lib/../lib32/libcrt_common.a(lib_a-__atexit.o)
                0x0000000000071f20                __register_exitproc
 .text          0x0000000000072140      0x300 /home/jfb/nacl_sdk/pepper_42/toolchain/linux_x86_newlib/bin/../lib/gcc/x86_64-nacl/4.4.3/../../../../x86_64-nacl/lib/../lib32/libcrt_common.a(lib_a-__call_atexit.o)
                0x0000000000072140                __call_exitprocs
 .text          0x0000000000072440     0x2220 /home/jfb/nacl_sdk/pepper_42/toolchain/linux_x86_newlib/bin/../lib/gcc/x86_64-nacl/4.4.3/../../../../x86_64-nacl/lib/../lib32/libcrt_common.a(lib_a-dtoa.o)
                0x0000000000072760                _dtoa_r
 .text          0x0000000000074660       0x40 /home/jfb/nacl_sdk/pepper_42/toolchain/linux_x86_newlib/bin/../lib/gcc/x86_64-nacl/4.4.3/../../../../x86_64-nacl/lib/../lib32/libcrt_common.a(lib_a-envlock.o)
                0x0000000000074660                __env_unlock
                0x0000000000074680                __env_lock
 .text          0x00000000000746a0      0x620 /home/jfb/nacl_sdk/pepper_42/toolchain/linux_x86_newlib/bin/../lib/gcc/x86_64-nacl/4.4.3/../../../../x86_64-nacl/lib/../lib32/libcrt_common.a(lib_a-fflush.o)
                0x00000000000746a0                __sflush_r
                0x0000000000074aa0                _fflush_r
                0x0000000000074c20                fflush
 .text          0x0000000000074cc0      0x880 /home/jfb/nacl_sdk/pepper_42/toolchain/linux_x86_newlib/bin/../lib/gcc/x86_64-nacl/4.4.3/../../../../x86_64-nacl/lib/../lib32/libcrt_common.a(lib_a-findfp.o)
                0x0000000000074d00                __sinit_lock_release
                0x0000000000074d40                __sfp_lock_release
                0x0000000000074d80                __fp_unlock_all
                0x0000000000074e20                __sinit_lock_acquire
                0x0000000000074e60                __sfp_lock_acquire
                0x0000000000074ea0                __fp_lock_all
                0x0000000000074fc0                __sinit
                0x0000000000075160                _cleanup_r
                0x00000000000751a0                _cleanup
                0x00000000000751e0                __sfmoreglue
                0x00000000000752a0                __sfp
 .text          0x0000000000075540      0x420 /home/jfb/nacl_sdk/pepper_42/toolchain/linux_x86_newlib/bin/../lib/gcc/x86_64-nacl/4.4.3/../../../../x86_64-nacl/lib/../lib32/libcrt_common.a(lib_a-fwalk.o)
                0x0000000000075540                _fwalk_reent
                0x0000000000075700                _fwalk
 .text          0x0000000000075960     0x1880 /home/jfb/nacl_sdk/pepper_42/toolchain/linux_x86_newlib/bin/../lib/gcc/x86_64-nacl/4.4.3/../../../../x86_64-nacl/lib/../lib32/libcrt_common.a(lib_a-locale.o)
                0x0000000000075960                __locale_charset
                0x0000000000075980                __locale_mb_cur_max
                0x00000000000759a0                __locale_msgcharset
                0x00000000000759c0                __locale_cjk_lang
                0x00000000000759e0                _localeconv_r
                0x0000000000075a00                localeconv
                0x0000000000076ac0                _setlocale_r
                0x0000000000077180                setlocale
 .text          0x00000000000771e0      0x260 /home/jfb/nacl_sdk/pepper_42/toolchain/linux_x86_newlib/bin/../lib/gcc/x86_64-nacl/4.4.3/../../../../x86_64-nacl/lib/../lib32/libcrt_common.a(lib_a-makebuf.o)
                0x00000000000771e0                __smakebuf_r
 .text          0x0000000000077440      0xd20 /home/jfb/nacl_sdk/pepper_42/toolchain/linux_x86_newlib/bin/../lib/gcc/x86_64-nacl/4.4.3/../../../../x86_64-nacl/lib/../lib32/libcrt_common.a(lib_a-mbtowc_r.o)
                0x0000000000077440                __ascii_mbtowc
                0x00000000000774c0                __utf8_mbtowc
                0x0000000000077a60                __sjis_mbtowc
                0x0000000000077be0                __eucjp_mbtowc
                0x0000000000077e40                __jis_mbtowc
                0x00000000000780e0                _mbtowc_r
 .text          0x0000000000078160     0x1840 /home/jfb/nacl_sdk/pepper_42/toolchain/linux_x86_newlib/bin/../lib/gcc/x86_64-nacl/4.4.3/../../../../x86_64-nacl/lib/../lib32/libcrt_common.a(lib_a-mprec.o)
                0x0000000000078160                _Bfree
                0x00000000000781a0                __hi0bits
                0x0000000000078260                __lo0bits
                0x00000000000783e0                __mcmp
                0x0000000000078480                __ulp
                0x0000000000078560                __b2d
                0x00000000000786e0                __ratio
                0x0000000000078780                _mprec_log10
                0x00000000000787e0                __copybits
                0x00000000000788a0                __any_on
                0x00000000000789c0                _Balloc
                0x0000000000078ae0                __d2b
                0x0000000000078cc0                __mdiff
                0x0000000000078f40                __lshift
                0x0000000000079100                __multiply
                0x0000000000079400                __i2b
                0x0000000000079440                __multadd
                0x0000000000079580                __pow5mult
                0x00000000000797c0                __s2b
 .text          0x00000000000799a0      0x140 /home/jfb/nacl_sdk/pepper_42/toolchain/linux_x86_newlib/bin/../lib/gcc/x86_64-nacl/4.4.3/../../../../x86_64-nacl/lib/../lib32/libcrt_common.a(lib_a-s_fpclassify.o)
                0x00000000000799a0                __fpclassifyd
 .text          0x0000000000079ae0       0xe0 /home/jfb/nacl_sdk/pepper_42/toolchain/linux_x86_newlib/bin/../lib/gcc/x86_64-nacl/4.4.3/../../../../x86_64-nacl/lib/../lib32/libcrt_common.a(lib_a-s_frexp.o)
                0x0000000000079ae0                frexp
 .text          0x0000000000079bc0      0x200 /home/jfb/nacl_sdk/pepper_42/toolchain/linux_x86_newlib/bin/../lib/gcc/x86_64-nacl/4.4.3/../../../../x86_64-nacl/lib/../lib32/libcrt_common.a(lib_a-stdio.o)
                0x0000000000079bc0                __seofread
                0x0000000000079be0                __sclose
                0x0000000000079c00                __sseek
                0x0000000000079c80                __swrite
                0x0000000000079d40                __sread
 .text          0x0000000000079dc0       0x80 /home/jfb/nacl_sdk/pepper_42/toolchain/linux_x86_newlib/bin/../lib/gcc/x86_64-nacl/4.4.3/../../../../x86_64-nacl/lib/../lib32/libcrt_common.a(lib_a-strcasecmp.o)
                0x0000000000079dc0                strcasecmp
 .text          0x0000000000079e40       0xe0 /home/jfb/nacl_sdk/pepper_42/toolchain/linux_x86_newlib/bin/../lib/gcc/x86_64-nacl/4.4.3/../../../../x86_64-nacl/lib/../lib32/libcrt_common.a(lib_a-strcat.o)
                0x0000000000079e40                strcat
 .text          0x0000000000079f20      0x120 /home/jfb/nacl_sdk/pepper_42/toolchain/linux_x86_newlib/bin/../lib/gcc/x86_64-nacl/4.4.3/../../../../x86_64-nacl/lib/../lib32/libcrt_common.a(lib_a-strchr.o)
                0x0000000000079f20                strchr
 .text          0x000000000007a040      0x100 /home/jfb/nacl_sdk/pepper_42/toolchain/linux_x86_newlib/bin/../lib/gcc/x86_64-nacl/4.4.3/../../../../x86_64-nacl/lib/../lib32/libcrt_common.a(lib_a-strcmp.o)
                0x000000000007a040                strcmp
 .text          0x000000000007a140       0xa0 /home/jfb/nacl_sdk/pepper_42/toolchain/linux_x86_newlib/bin/../lib/gcc/x86_64-nacl/4.4.3/../../../../x86_64-nacl/lib/../lib32/libcrt_common.a(lib_a-strlcpy.o)
                0x000000000007a140                strlcpy
 .text          0x000000000007a1e0       0xa0 /home/jfb/nacl_sdk/pepper_42/toolchain/linux_x86_newlib/bin/../lib/gcc/x86_64-nacl/4.4.3/../../../../x86_64-nacl/lib/../lib32/libcrt_common.a(lib_a-strncasecmp.o)
                0x000000000007a1e0                strncasecmp
 .text          0x000000000007a280      0x140 /home/jfb/nacl_sdk/pepper_42/toolchain/linux_x86_newlib/bin/../lib/gcc/x86_64-nacl/4.4.3/../../../../x86_64-nacl/lib/../lib32/libcrt_common.a(lib_a-strncpy.o)
                0x000000000007a280                strncpy
 .text          0x000000000007a3c0      0x360 /home/jfb/nacl_sdk/pepper_42/toolchain/linux_x86_newlib/bin/../lib/gcc/x86_64-nacl/4.4.3/../../../../x86_64-nacl/lib/../lib32/libcrt_common.a(lib_a-strtol.o)
                0x000000000007a3c0                _strtol_r
                0x000000000007a6c0                strtol
 .text          0x000000000007a720     0x27e0 /home/jfb/nacl_sdk/pepper_42/toolchain/linux_x86_newlib/bin/../lib/gcc/x86_64-nacl/4.4.3/../../../../x86_64-nacl/lib/../lib32/libcrt_common.a(lib_a-svfiprintf.o)
                0x000000000007a720                __ssprint_r
                0x000000000007a9c0                _svfiprintf_r
 .text          0x000000000007cf00     0x2a00 /home/jfb/nacl_sdk/pepper_42/toolchain/linux_x86_newlib/bin/../lib/gcc/x86_64-nacl/4.4.3/../../../../x86_64-nacl/lib/../lib32/libcrt_common.a(lib_a-vfiprintf.o)
                0x000000000007cf00                __sprint_r
                0x000000000007d080                _vfiprintf_r
                0x000000000007f8a0                vfiprintf
 .text          0x000000000007f900      0x300 /home/jfb/nacl_sdk/pepper_42/toolchain/linux_x86_newlib/bin/../lib/gcc/x86_64-nacl/4.4.3/../../../../x86_64-nacl/lib/../lib32/libcrt_common.a(lib_a-wcsnrtombs.o)
                0x000000000007f900                _wcsnrtombs_r
                0x000000000007fb80                wcsnrtombs
 .text          0x000000000007fc00       0x20 /home/jfb/nacl_sdk/pepper_42/toolchain/linux_x86_newlib/bin/../lib/gcc/x86_64-nacl/4.4.3/../../../../x86_64-nacl/lib/../lib32/libcrt_common.a(lib_a-ctype_.o)
                0x000000000007fc00                __set_ctype
 .text          0x000000000007fc20      0x340 /home/jfb/nacl_sdk/pepper_42/toolchain/linux_x86_newlib/bin/../lib/gcc/x86_64-nacl/4.4.3/../../../../x86_64-nacl/lib/../lib32/libcrt_common.a(lib_a-fclose.o)
                0x000000000007fc20                _fclose_r
                0x000000000007ff00                fclose
 .text          0x000000000007ff60      0x3a0 /home/jfb/nacl_sdk/pepper_42/toolchain/linux_x86_newlib/bin/../lib/gcc/x86_64-nacl/4.4.3/../../../../x86_64-nacl/lib/../lib32/libcrt_common.a(lib_a-fputwc.o)
                0x000000000007ff60                _fputwc_r
                0x0000000000080280                fputwc
 .text          0x0000000000080300       0xa0 /home/jfb/nacl_sdk/pepper_42/toolchain/linux_x86_newlib/bin/../lib/gcc/x86_64-nacl/4.4.3/../../../../x86_64-nacl/lib/../lib32/libnacl.a(close_e9b92fbd.o)
                0x0000000000080300                close
 .text          0x00000000000803a0       0xe0 /home/jfb/nacl_sdk/pepper_42/toolchain/linux_x86_newlib/bin/../lib/gcc/x86_64-nacl/4.4.3/../../../../x86_64-nacl/lib/../lib32/libnacl.a(isatty_02f56e94.o)
                0x00000000000803a0                isatty
 .text          0x0000000000080480       0xc0 /home/jfb/nacl_sdk/pepper_42/toolchain/linux_x86_newlib/bin/../lib/gcc/x86_64-nacl/4.4.3/../../../../x86_64-nacl/lib/../lib32/libnacl.a(nacl_irt_fdio_b571b5e7.o)
                0x0000000000080480                __libnacl_irt_dev_fdio_init
 .text          0x0000000000080540       0xa0 /home/jfb/nacl_sdk/pepper_42/toolchain/linux_x86_newlib/bin/../lib/gcc/x86_64-nacl/4.4.3/../../../../x86_64-nacl/lib/../lib32/libnacl.a(fstat_0540ff63.o)
                0x0000000000080540                fstat
 .text          0x00000000000805e0       0xc0 /home/jfb/nacl_sdk/pepper_42/toolchain/linux_x86_newlib/bin/../lib/gcc/x86_64-nacl/4.4.3/../../../../x86_64-nacl/lib/../lib32/libnacl.a(lseek_64d2d05c.o)
                0x00000000000805e0                lseek
 .text          0x00000000000806a0       0xc0 /home/jfb/nacl_sdk/pepper_42/toolchain/linux_x86_newlib/bin/../lib/gcc/x86_64-nacl/4.4.3/../../../../x86_64-nacl/lib/../lib32/libnacl.a(read_df872e10.o)
                0x00000000000806a0                read
 .text          0x0000000000080760      0x1e0 /home/jfb/nacl_sdk/pepper_42/toolchain/linux_x86_newlib/bin/../lib/gcc/x86_64-nacl/4.4.3/32/libgcc.a(_udivdi3.o)
                0x0000000000080760                __udivdi3
 .text          0x0000000000080940      0x240 /home/jfb/nacl_sdk/pepper_42/toolchain/linux_x86_newlib/bin/../lib/gcc/x86_64-nacl/4.4.3/32/libgcc.a(_umoddi3.o)
                0x0000000000080940                __umoddi3
 .text          0x0000000000080b80       0x80 /home/jfb/nacl_sdk/pepper_42/toolchain/linux_x86_newlib/bin/../lib/gcc/x86_64-nacl/4.4.3/32/crtend.o
 .text          0x0000000000080c00        0x0 /home/jfb/nacl_sdk/pepper_42/toolchain/linux_x86_newlib/bin/../lib/gcc/x86_64-nacl/4.4.3/../../../../x86_64-nacl/lib/../lib32/crtn.o
 *(.gnu.warning)

.fini           0x0000000000080c00       0x60
 *(SORT(.fini))
 .fini          0x0000000000080c00       0x20 /home/jfb/nacl_sdk/pepper_42/toolchain/linux_x86_newlib/bin/../lib/gcc/x86_64-nacl/4.4.3/../../../../x86_64-nacl/lib/../lib32/crti.o
                0x0000000000080c00                _fini
 .fini          0x0000000000080c20       0x20 /home/jfb/nacl_sdk/pepper_42/toolchain/linux_x86_newlib/bin/../lib/gcc/x86_64-nacl/4.4.3/32/crtbegin.o
 .fini          0x0000000000080c40       0x20 /home/jfb/nacl_sdk/pepper_42/toolchain/linux_x86_newlib/bin/../lib/gcc/x86_64-nacl/4.4.3/../../../../x86_64-nacl/lib/../lib32/crtn.o
                0x0000000000080c60                PROVIDE (__etext, .)
                0x0000000000080c60                PROVIDE (_etext, .)
                0x0000000000080c60                PROVIDE (etext, .)
                0x0000000010020114                . = (0x10020000 + SIZEOF_HEADERS)

.interp
 *(.interp)

.note.gnu.build-id
                0x0000000010020114       0x24
 *(.note.gnu.build-id)
 .note.gnu.build-id
                0x0000000010020114       0x24 /home/jfb/nacl_sdk/pepper_42/toolchain/linux_x86_newlib/bin/../lib/gcc/x86_64-nacl/4.4.3/../../../../x86_64-nacl/lib/../lib32/crti.o

.hash
 *(.hash)

.gnu.hash
 *(.gnu.hash)

.dynsym
 *(.dynsym)

.dynstr
 *(.dynstr)

.gnu.version
 *(.gnu.version)

.gnu.version_d
 *(.gnu.version_d)

.gnu.version_r
 *(.gnu.version_r)

.rel.dyn        0x0000000010020138        0x0
 *(.rel.init)
 *(.rel.text .rel.text.* .rel.gnu.linkonce.t.*)
 .rel.text      0x0000000000000000        0x0 /home/jfb/nacl_sdk/pepper_42/toolchain/linux_x86_newlib/bin/../lib/gcc/x86_64-nacl/4.4.3/32/crtbegin.o
 .rel.text._ZN6Module14CreateInstanceEi
                0x0000000000000000        0x0 /home/jfb/nacl_sdk/pepper_42/toolchain/linux_x86_newlib/bin/../lib/gcc/x86_64-nacl/4.4.3/32/crtbegin.o
 .rel.text._ZN8Instance4InitEjPPKcS2_
                0x0000000000000000        0x0 /home/jfb/nacl_sdk/pepper_42/toolchain/linux_x86_newlib/bin/../lib/gcc/x86_64-nacl/4.4.3/32/crtbegin.o
 .rel.text._ZN8InstanceD0Ev
                0x0000000000000000        0x0 /home/jfb/nacl_sdk/pepper_42/toolchain/linux_x86_newlib/bin/../lib/gcc/x86_64-nacl/4.4.3/32/crtbegin.o
 .rel.text._ZN8InstanceD1Ev
                0x0000000000000000        0x0 /home/jfb/nacl_sdk/pepper_42/toolchain/linux_x86_newlib/bin/../lib/gcc/x86_64-nacl/4.4.3/32/crtbegin.o
 .rel.text._ZN6ModuleD0Ev
                0x0000000000000000        0x0 /home/jfb/nacl_sdk/pepper_42/toolchain/linux_x86_newlib/bin/../lib/gcc/x86_64-nacl/4.4.3/32/crtbegin.o
 .rel.text._ZN6ModuleD1Ev
                0x0000000000000000        0x0 /home/jfb/nacl_sdk/pepper_42/toolchain/linux_x86_newlib/bin/../lib/gcc/x86_64-nacl/4.4.3/32/crtbegin.o
 .rel.text._ZNSt8_Rb_treeISsSt4pairIKSsPvESt10_Select1stIS3_ESt4lessISsESaIS3_EE8_M_eraseEPSt13_Rb_tree_nodeIS3_E
                0x0000000000000000        0x0 /home/jfb/nacl_sdk/pepper_42/toolchain/linux_x86_newlib/bin/../lib/gcc/x86_64-nacl/4.4.3/32/crtbegin.o
 .rel.text._ZNSt8_Rb_treeISsSt4pairIKSsPvESt10_Select1stIS3_ESt4lessISsESaIS3_EE10_M_insert_EPKSt18_Rb_tree_node_baseSC_RKS3_
                0x0000000000000000        0x0 /home/jfb/nacl_sdk/pepper_42/toolchain/linux_x86_newlib/bin/../lib/gcc/x86_64-nacl/4.4.3/32/crtbegin.o
 .rel.text._ZNSt8_Rb_treeISsSt4pairIKSsPvESt10_Select1stIS3_ESt4lessISsESaIS3_EE16_M_insert_uniqueERKS3_
                0x0000000000000000        0x0 /home/jfb/nacl_sdk/pepper_42/toolchain/linux_x86_newlib/bin/../lib/gcc/x86_64-nacl/4.4.3/32/crtbegin.o
 .rel.text._ZNSt8_Rb_treeISsSt4pairIKSsPvESt10_Select1stIS3_ESt4lessISsESaIS3_EE17_M_insert_unique_ESt23_Rb_tree_const_iteratorIS3_ERKS3_
                0x0000000000000000        0x0 /home/jfb/nacl_sdk/pepper_42/toolchain/linux_x86_newlib/bin/../lib/gcc/x86_64-nacl/4.4.3/32/crtbegin.o
 .rel.text._ZNSt8_Rb_treeIiSt4pairIKiPN2pp8InstanceEESt10_Select1stIS5_ESt4lessIiESaIS5_EE8_M_eraseEPSt13_Rb_tree_nodeIS5_E
                0x0000000000000000        0x0 /home/jfb/nacl_sdk/pepper_42/toolchain/linux_x86_newlib/bin/../lib/gcc/x86_64-nacl/4.4.3/32/crtbegin.o
 .rel.text._ZNSt8_Rb_treeIiSt4pairIKiPN2pp8InstanceEESt10_Select1stIS5_ESt4lessIiESaIS5_EE10_M_insert_EPKSt18_Rb_tree_node_baseSE_RKS5_
                0x0000000000000000        0x0 /home/jfb/nacl_sdk/pepper_42/toolchain/linux_x86_newlib/bin/../lib/gcc/x86_64-nacl/4.4.3/32/crtbegin.o
 .rel.text._ZNSt8_Rb_treeIiSt4pairIKiPN2pp8InstanceEESt10_Select1stIS5_ESt4lessIiESaIS5_EE16_M_insert_uniqueERKS5_
                0x0000000000000000        0x0 /home/jfb/nacl_sdk/pepper_42/toolchain/linux_x86_newlib/bin/../lib/gcc/x86_64-nacl/4.4.3/32/crtbegin.o
 .rel.text._ZNSt8_Rb_treeIiSt4pairIKiPN2pp8InstanceEESt10_Select1stIS5_ESt4lessIiESaIS5_EE17_M_insert_unique_ESt23_Rb_tree_const_iteratorIS5_ERKS5_
                0x0000000000000000        0x0 /home/jfb/nacl_sdk/pepper_42/toolchain/linux_x86_newlib/bin/../lib/gcc/x86_64-nacl/4.4.3/32/crtbegin.o
 .rel.text._ZN2pp9URLLoaderD1Ev
                0x0000000000000000        0x0 /home/jfb/nacl_sdk/pepper_42/toolchain/linux_x86_newlib/bin/../lib/gcc/x86_64-nacl/4.4.3/32/crtbegin.o
 .rel.text._ZN2pp9URLLoaderD0Ev
                0x0000000000000000        0x0 /home/jfb/nacl_sdk/pepper_42/toolchain/linux_x86_newlib/bin/../lib/gcc/x86_64-nacl/4.4.3/32/crtbegin.o
 .rel.text._ZN2pp4ViewD1Ev
                0x0000000000000000        0x0 /home/jfb/nacl_sdk/pepper_42/toolchain/linux_x86_newlib/bin/../lib/gcc/x86_64-nacl/4.4.3/32/crtbegin.o
 .rel.text._ZN2pp4ViewD0Ev
                0x0000000000000000        0x0 /home/jfb/nacl_sdk/pepper_42/toolchain/linux_x86_newlib/bin/../lib/gcc/x86_64-nacl/4.4.3/32/crtbegin.o
 .rel.text._ZNSt8_Rb_treeISsSt4pairIKSsPKvESt10_Select1stIS4_ESt4lessISsESaIS4_EE8_M_eraseEPSt13_Rb_tree_nodeIS4_E
                0x0000000000000000        0x0 /home/jfb/nacl_sdk/pepper_42/toolchain/linux_x86_newlib/bin/../lib/gcc/x86_64-nacl/4.4.3/32/crtbegin.o
 .rel.text._ZNSt8_Rb_treeISsSt4pairIKSsPKvESt10_Select1stIS4_ESt4lessISsESaIS4_EE10_M_insert_EPKSt18_Rb_tree_node_baseSD_RKS4_
                0x0000000000000000        0x0 /home/jfb/nacl_sdk/pepper_42/toolchain/linux_x86_newlib/bin/../lib/gcc/x86_64-nacl/4.4.3/32/crtbegin.o
 .rel.text._ZNSt8_Rb_treeISsSt4pairIKSsPKvESt10_Select1stIS4_ESt4lessISsESaIS4_EE16_M_insert_uniqueERKS4_
                0x0000000000000000        0x0 /home/jfb/nacl_sdk/pepper_42/toolchain/linux_x86_newlib/bin/../lib/gcc/x86_64-nacl/4.4.3/32/crtbegin.o
 .rel.text._ZNSt8_Rb_treeISsSt4pairIKSsPKvESt10_Select1stIS4_ESt4lessISsESaIS4_EE17_M_insert_unique_ESt23_Rb_tree_const_iteratorIS4_ERKS4_
                0x0000000000000000        0x0 /home/jfb/nacl_sdk/pepper_42/toolchain/linux_x86_newlib/bin/../lib/gcc/x86_64-nacl/4.4.3/32/crtbegin.o
 .rel.text._ZN2pp15URLResponseInfoD1Ev
                0x0000000000000000        0x0 /home/jfb/nacl_sdk/pepper_42/toolchain/linux_x86_newlib/bin/../lib/gcc/x86_64-nacl/4.4.3/32/crtbegin.o
 .rel.text._ZN2pp15URLResponseInfoD0Ev
                0x0000000000000000        0x0 /home/jfb/nacl_sdk/pepper_42/toolchain/linux_x86_newlib/bin/../lib/gcc/x86_64-nacl/4.4.3/32/crtbegin.o
 .rel.text._ZN2pp7FileRefD1Ev
                0x0000000000000000        0x0 /home/jfb/nacl_sdk/pepper_42/toolchain/linux_x86_newlib/bin/../lib/gcc/x86_64-nacl/4.4.3/32/crtbegin.o
 .rel.text._ZN2pp7FileRefD0Ev
                0x0000000000000000        0x0 /home/jfb/nacl_sdk/pepper_42/toolchain/linux_x86_newlib/bin/../lib/gcc/x86_64-nacl/4.4.3/32/crtbegin.o
 .rel.text._ZN2pp13IMEInputEventD0Ev
                0x0000000000000000        0x0 /home/jfb/nacl_sdk/pepper_42/toolchain/linux_x86_newlib/bin/../lib/gcc/x86_64-nacl/4.4.3/32/crtbegin.o
 .rel.text._ZN2pp13IMEInputEventD1Ev
                0x0000000000000000        0x0 /home/jfb/nacl_sdk/pepper_42/toolchain/linux_x86_newlib/bin/../lib/gcc/x86_64-nacl/4.4.3/32/crtbegin.o
 .rel.text._ZN2pp15TouchInputEventD0Ev
                0x0000000000000000        0x0 /home/jfb/nacl_sdk/pepper_42/toolchain/linux_x86_newlib/bin/../lib/gcc/x86_64-nacl/4.4.3/32/crtbegin.o
 .rel.text._ZN2pp15TouchInputEventD1Ev
                0x0000000000000000        0x0 /home/jfb/nacl_sdk/pepper_42/toolchain/linux_x86_newlib/bin/../lib/gcc/x86_64-nacl/4.4.3/32/crtbegin.o
 .rel.text._ZN2pp18KeyboardInputEventD0Ev
                0x0000000000000000        0x0 /home/jfb/nacl_sdk/pepper_42/toolchain/linux_x86_newlib/bin/../lib/gcc/x86_64-nacl/4.4.3/32/crtbegin.o
 .rel.text._ZN2pp18KeyboardInputEventD1Ev
                0x0000000000000000        0x0 /home/jfb/nacl_sdk/pepper_42/toolchain/linux_x86_newlib/bin/../lib/gcc/x86_64-nacl/4.4.3/32/crtbegin.o
 .rel.text._ZN2pp15WheelInputEventD0Ev
                0x0000000000000000        0x0 /home/jfb/nacl_sdk/pepper_42/toolchain/linux_x86_newlib/bin/../lib/gcc/x86_64-nacl/4.4.3/32/crtbegin.o
 .rel.text._ZN2pp15WheelInputEventD1Ev
                0x0000000000000000        0x0 /home/jfb/nacl_sdk/pepper_42/toolchain/linux_x86_newlib/bin/../lib/gcc/x86_64-nacl/4.4.3/32/crtbegin.o
 .rel.text._ZN2pp15MouseInputEventD0Ev
                0x0000000000000000        0x0 /home/jfb/nacl_sdk/pepper_42/toolchain/linux_x86_newlib/bin/../lib/gcc/x86_64-nacl/4.4.3/32/crtbegin.o
 .rel.text._ZN2pp15MouseInputEventD1Ev
                0x0000000000000000        0x0 /home/jfb/nacl_sdk/pepper_42/toolchain/linux_x86_newlib/bin/../lib/gcc/x86_64-nacl/4.4.3/32/crtbegin.o
 .rel.text._ZNSs12_S_empty_repEv
                0x0000000000000000        0x0 /home/jfb/nacl_sdk/pepper_42/toolchain/linux_x86_newlib/bin/../lib/gcc/x86_64-nacl/4.4.3/32/crtbegin.o
 .rel.text._ZNSsC2Ev
                0x0000000000000000        0x0 /home/jfb/nacl_sdk/pepper_42/toolchain/linux_x86_newlib/bin/../lib/gcc/x86_64-nacl/4.4.3/32/crtbegin.o
 .rel.text._ZNSsC1Ev
                0x0000000000000000        0x0 /home/jfb/nacl_sdk/pepper_42/toolchain/linux_x86_newlib/bin/../lib/gcc/x86_64-nacl/4.4.3/32/crtbegin.o
 .rel.text._ZNKSs12find_last_ofEcj
                0x0000000000000000        0x0 /home/jfb/nacl_sdk/pepper_42/toolchain/linux_x86_newlib/bin/../lib/gcc/x86_64-nacl/4.4.3/32/crtbegin.o
 .rel.text._ZNSs4_Rep12_S_empty_repEv
                0x0000000000000000        0x0 /home/jfb/nacl_sdk/pepper_42/toolchain/linux_x86_newlib/bin/../lib/gcc/x86_64-nacl/4.4.3/32/crtbegin.o
 .rel.text._ZNSs4_Rep10_M_refcopyEv
                0x0000000000000000        0x0 /home/jfb/nacl_sdk/pepper_42/toolchain/linux_x86_newlib/bin/../lib/gcc/x86_64-nacl/4.4.3/32/crtbegin.o
 .rel.text._ZNSs4_Rep10_M_destroyERKSaIcE
                0x0000000000000000        0x0 /home/jfb/nacl_sdk/pepper_42/toolchain/linux_x86_newlib/bin/../lib/gcc/x86_64-nacl/4.4.3/32/crtbegin.o
 .rel.text._ZNSs4_Rep10_M_disposeERKSaIcE
                0x0000000000000000        0x0 /home/jfb/nacl_sdk/pepper_42/toolchain/linux_x86_newlib/bin/../lib/gcc/x86_64-nacl/4.4.3/32/crtbegin.o
 .rel.text._ZNKSs15_M_check_lengthEjjPKc
                0x0000000000000000        0x0 /home/jfb/nacl_sdk/pepper_42/toolchain/linux_x86_newlib/bin/../lib/gcc/x86_64-nacl/4.4.3/32/crtbegin.o
 .rel.text._ZNSs4_Rep9_S_createEjjRKSaIcE
                0x0000000000000000        0x0 /home/jfb/nacl_sdk/pepper_42/toolchain/linux_x86_newlib/bin/../lib/gcc/x86_64-nacl/4.4.3/32/crtbegin.o
 .rel.text._ZNKSs4findERKSsj
                0x0000000000000000        0x0 /home/jfb/nacl_sdk/pepper_42/toolchain/linux_x86_newlib/bin/../lib/gcc/x86_64-nacl/4.4.3/32/crtbegin.o
 .rel.text._ZNKSs4findEcj
                0x0000000000000000        0x0 /home/jfb/nacl_sdk/pepper_42/toolchain/linux_x86_newlib/bin/../lib/gcc/x86_64-nacl/4.4.3/32/crtbegin.o
 .rel.text._ZNKSs13find_first_ofEcj
                0x0000000000000000        0x0 /home/jfb/nacl_sdk/pepper_42/toolchain/linux_x86_newlib/bin/../lib/gcc/x86_64-nacl/4.4.3/32/crtbegin.o
 .rel.text._ZNKSs2atEj
                0x0000000000000000        0x0 /home/jfb/nacl_sdk/pepper_42/toolchain/linux_x86_newlib/bin/../lib/gcc/x86_64-nacl/4.4.3/32/crtbegin.o
 .rel.text._ZNKSs8_M_checkEjPKc
                0x0000000000000000        0x0 /home/jfb/nacl_sdk/pepper_42/toolchain/linux_x86_newlib/bin/../lib/gcc/x86_64-nacl/4.4.3/32/crtbegin.o
 .rel.text._ZNSs9_M_assignEPcjc
                0x0000000000000000        0x0 /home/jfb/nacl_sdk/pepper_42/toolchain/linux_x86_newlib/bin/../lib/gcc/x86_64-nacl/4.4.3/32/crtbegin.o
 .rel.text._ZNSs7_M_moveEPcPKcj
                0x0000000000000000        0x0 /home/jfb/nacl_sdk/pepper_42/toolchain/linux_x86_newlib/bin/../lib/gcc/x86_64-nacl/4.4.3/32/crtbegin.o
 .rel.text._ZNSs7_M_copyEPcPKcj
                0x0000000000000000        0x0 /home/jfb/nacl_sdk/pepper_42/toolchain/linux_x86_newlib/bin/../lib/gcc/x86_64-nacl/4.4.3/32/crtbegin.o
 .rel.text._ZNKSs16find_last_not_ofEPKcjj
                0x0000000000000000        0x0 /home/jfb/nacl_sdk/pepper_42/toolchain/linux_x86_newlib/bin/../lib/gcc/x86_64-nacl/4.4.3/32/crtbegin.o
 .rel.text._ZNKSs16find_last_not_ofERKSsj
                0x0000000000000000        0x0 /home/jfb/nacl_sdk/pepper_42/toolchain/linux_x86_newlib/bin/../lib/gcc/x86_64-nacl/4.4.3/32/crtbegin.o
 .rel.text._ZNKSs17find_first_not_ofEPKcjj
                0x0000000000000000        0x0 /home/jfb/nacl_sdk/pepper_42/toolchain/linux_x86_newlib/bin/../lib/gcc/x86_64-nacl/4.4.3/32/crtbegin.o
 .rel.text._ZNKSs17find_first_not_ofERKSsj
                0x0000000000000000        0x0 /home/jfb/nacl_sdk/pepper_42/toolchain/linux_x86_newlib/bin/../lib/gcc/x86_64-nacl/4.4.3/32/crtbegin.o
 .rel.text._ZNKSs12find_last_ofEPKcjj
                0x0000000000000000        0x0 /home/jfb/nacl_sdk/pepper_42/toolchain/linux_x86_newlib/bin/../lib/gcc/x86_64-nacl/4.4.3/32/crtbegin.o
 .rel.text._ZNKSs12find_last_ofERKSsj
                0x0000000000000000        0x0 /home/jfb/nacl_sdk/pepper_42/toolchain/linux_x86_newlib/bin/../lib/gcc/x86_64-nacl/4.4.3/32/crtbegin.o
 .rel.text._ZNKSs13find_first_ofEPKcjj
                0x0000000000000000        0x0 /home/jfb/nacl_sdk/pepper_42/toolchain/linux_x86_newlib/bin/../lib/gcc/x86_64-nacl/4.4.3/32/crtbegin.o
 .rel.text._ZNKSs13find_first_ofERKSsj
                0x0000000000000000        0x0 /home/jfb/nacl_sdk/pepper_42/toolchain/linux_x86_newlib/bin/../lib/gcc/x86_64-nacl/4.4.3/32/crtbegin.o
 .rel.text._ZNKSs5rfindERKSsj
                0x0000000000000000        0x0 /home/jfb/nacl_sdk/pepper_42/toolchain/linux_x86_newlib/bin/../lib/gcc/x86_64-nacl/4.4.3/32/crtbegin.o
 .rel.text._ZNKSs7compareEjjPKcj
                0x0000000000000000        0x0 /home/jfb/nacl_sdk/pepper_42/toolchain/linux_x86_newlib/bin/../lib/gcc/x86_64-nacl/4.4.3/32/crtbegin.o
 .rel.text._ZNKSs7compareEjjRKSsjj
                0x0000000000000000        0x0 /home/jfb/nacl_sdk/pepper_42/toolchain/linux_x86_newlib/bin/../lib/gcc/x86_64-nacl/4.4.3/32/crtbegin.o
 .rel.text._ZNKSs7compareEjjRKSs
                0x0000000000000000        0x0 /home/jfb/nacl_sdk/pepper_42/toolchain/linux_x86_newlib/bin/../lib/gcc/x86_64-nacl/4.4.3/32/crtbegin.o
 .rel.text._ZNKSs7compareEPKc
                0x0000000000000000        0x0 /home/jfb/nacl_sdk/pepper_42/toolchain/linux_x86_newlib/bin/../lib/gcc/x86_64-nacl/4.4.3/32/crtbegin.o
 .rel.text._ZNKSs5rfindEPKcj
                0x0000000000000000        0x0 /home/jfb/nacl_sdk/pepper_42/toolchain/linux_x86_newlib/bin/../lib/gcc/x86_64-nacl/4.4.3/32/crtbegin.o
 .rel.text._ZNKSs4findEPKcj
                0x0000000000000000        0x0 /home/jfb/nacl_sdk/pepper_42/toolchain/linux_x86_newlib/bin/../lib/gcc/x86_64-nacl/4.4.3/32/crtbegin.o
 .rel.text._ZNKSs16find_last_not_ofEPKcj
                0x0000000000000000        0x0 /home/jfb/nacl_sdk/pepper_42/toolchain/linux_x86_newlib/bin/../lib/gcc/x86_64-nacl/4.4.3/32/crtbegin.o
 .rel.text._ZNKSs17find_first_not_ofEPKcj
                0x0000000000000000        0x0 /home/jfb/nacl_sdk/pepper_42/toolchain/linux_x86_newlib/bin/../lib/gcc/x86_64-nacl/4.4.3/32/crtbegin.o
 .rel.text._ZNKSs12find_last_ofEPKcj
                0x0000000000000000        0x0 /home/jfb/nacl_sdk/pepper_42/toolchain/linux_x86_newlib/bin/../lib/gcc/x86_64-nacl/4.4.3/32/crtbegin.o
 .rel.text._ZNKSs13find_first_ofEPKcj
                0x0000000000000000        0x0 /home/jfb/nacl_sdk/pepper_42/toolchain/linux_x86_newlib/bin/../lib/gcc/x86_64-nacl/4.4.3/32/crtbegin.o
 .rel.text._ZNKSs7compareEjjPKc
                0x0000000000000000        0x0 /home/jfb/nacl_sdk/pepper_42/toolchain/linux_x86_newlib/bin/../lib/gcc/x86_64-nacl/4.4.3/32/crtbegin.o
 .rel.text._ZNSs13_S_copy_charsEPcS_S_
                0x0000000000000000        0x0 /home/jfb/nacl_sdk/pepper_42/toolchain/linux_x86_newlib/bin/../lib/gcc/x86_64-nacl/4.4.3/32/crtbegin.o
 .rel.text._ZNSs13_S_copy_charsEPcPKcS1_
                0x0000000000000000        0x0 /home/jfb/nacl_sdk/pepper_42/toolchain/linux_x86_newlib/bin/../lib/gcc/x86_64-nacl/4.4.3/32/crtbegin.o
 .rel.text._ZNSs13_S_copy_charsEPcN9__gnu_cxx17__normal_iteratorIPKcSsEES4_
                0x0000000000000000        0x0 /home/jfb/nacl_sdk/pepper_42/toolchain/linux_x86_newlib/bin/../lib/gcc/x86_64-nacl/4.4.3/32/crtbegin.o
 .rel.text._ZNSs13_S_copy_charsEPcN9__gnu_cxx17__normal_iteratorIS_SsEES2_
                0x0000000000000000        0x0 /home/jfb/nacl_sdk/pepper_42/toolchain/linux_x86_newlib/bin/../lib/gcc/x86_64-nacl/4.4.3/32/crtbegin.o
 .rel.text._ZNSs4_Rep8_M_cloneERKSaIcEj
                0x0000000000000000        0x0 /home/jfb/nacl_sdk/pepper_42/toolchain/linux_x86_newlib/bin/../lib/gcc/x86_64-nacl/4.4.3/32/crtbegin.o
 .rel.text._ZNSs4_Rep7_M_grabERKSaIcES2_
                0x0000000000000000        0x0 /home/jfb/nacl_sdk/pepper_42/toolchain/linux_x86_newlib/bin/../lib/gcc/x86_64-nacl/4.4.3/32/crtbegin.o
 .rel.text._ZNSsC1ERKSs
                0x0000000000000000        0x0 /home/jfb/nacl_sdk/pepper_42/toolchain/linux_x86_newlib/bin/../lib/gcc/x86_64-nacl/4.4.3/32/crtbegin.o
 .rel.text._ZNSsC2ERKSs
                0x0000000000000000        0x0 /home/jfb/nacl_sdk/pepper_42/toolchain/linux_x86_newlib/bin/../lib/gcc/x86_64-nacl/4.4.3/32/crtbegin.o
 .rel.text._ZNKSs4copyEPcjj
                0x0000000000000000        0x0 /home/jfb/nacl_sdk/pepper_42/toolchain/linux_x86_newlib/bin/../lib/gcc/x86_64-nacl/4.4.3/32/crtbegin.o
 .rel.text._ZNSs12_S_constructIPKcEEPcT_S3_RKSaIcESt20forward_iterator_tag
                0x0000000000000000        0x0 /home/jfb/nacl_sdk/pepper_42/toolchain/linux_x86_newlib/bin/../lib/gcc/x86_64-nacl/4.4.3/32/crtbegin.o
 .rel.text._ZNSsC1IPKcEET_S2_RKSaIcE
                0x0000000000000000        0x0 /home/jfb/nacl_sdk/pepper_42/toolchain/linux_x86_newlib/bin/../lib/gcc/x86_64-nacl/4.4.3/32/crtbegin.o
 .rel.text._ZNSsC2IPKcEET_S2_RKSaIcE
                0x0000000000000000        0x0 /home/jfb/nacl_sdk/pepper_42/toolchain/linux_x86_newlib/bin/../lib/gcc/x86_64-nacl/4.4.3/32/crtbegin.o
 .rel.text._ZNSsC1ESt16initializer_listIcERKSaIcE
                0x0000000000000000        0x0 /home/jfb/nacl_sdk/pepper_42/toolchain/linux_x86_newlib/bin/../lib/gcc/x86_64-nacl/4.4.3/32/crtbegin.o
 .rel.text._ZNSsC2ESt16initializer_listIcERKSaIcE
                0x0000000000000000        0x0 /home/jfb/nacl_sdk/pepper_42/toolchain/linux_x86_newlib/bin/../lib/gcc/x86_64-nacl/4.4.3/32/crtbegin.o
 .rel.text._ZNSsC1EPKcRKSaIcE
                0x0000000000000000        0x0 /home/jfb/nacl_sdk/pepper_42/toolchain/linux_x86_newlib/bin/../lib/gcc/x86_64-nacl/4.4.3/32/crtbegin.o
 .rel.text._ZNSsC2EPKcRKSaIcE
                0x0000000000000000        0x0 /home/jfb/nacl_sdk/pepper_42/toolchain/linux_x86_newlib/bin/../lib/gcc/x86_64-nacl/4.4.3/32/crtbegin.o
 .rel.text._ZNSsC1EPKcjRKSaIcE
                0x0000000000000000        0x0 /home/jfb/nacl_sdk/pepper_42/toolchain/linux_x86_newlib/bin/../lib/gcc/x86_64-nacl/4.4.3/32/crtbegin.o
 .rel.text._ZNSsC2EPKcjRKSaIcE
                0x0000000000000000        0x0 /home/jfb/nacl_sdk/pepper_42/toolchain/linux_x86_newlib/bin/../lib/gcc/x86_64-nacl/4.4.3/32/crtbegin.o
 .rel.text._ZNSs12_S_constructIPcEES0_T_S1_RKSaIcESt20forward_iterator_tag
                0x0000000000000000        0x0 /home/jfb/nacl_sdk/pepper_42/toolchain/linux_x86_newlib/bin/../lib/gcc/x86_64-nacl/4.4.3/32/crtbegin.o
 .rel.text._ZNSsC1IPcEET_S1_RKSaIcE
                0x0000000000000000        0x0 /home/jfb/nacl_sdk/pepper_42/toolchain/linux_x86_newlib/bin/../lib/gcc/x86_64-nacl/4.4.3/32/crtbegin.o
 .rel.text._ZNSsC2IPcEET_S1_RKSaIcE
                0x0000000000000000        0x0 /home/jfb/nacl_sdk/pepper_42/toolchain/linux_x86_newlib/bin/../lib/gcc/x86_64-nacl/4.4.3/32/crtbegin.o
 .rel.text._ZNSsC1ERKSsjjRKSaIcE
                0x0000000000000000        0x0 /home/jfb/nacl_sdk/pepper_42/toolchain/linux_x86_newlib/bin/../lib/gcc/x86_64-nacl/4.4.3/32/crtbegin.o
 .rel.text._ZNSsC2ERKSsjjRKSaIcE
                0x0000000000000000        0x0 /home/jfb/nacl_sdk/pepper_42/toolchain/linux_x86_newlib/bin/../lib/gcc/x86_64-nacl/4.4.3/32/crtbegin.o
 .rel.text._ZNSsC1ERKSsjj
                0x0000000000000000        0x0 /home/jfb/nacl_sdk/pepper_42/toolchain/linux_x86_newlib/bin/../lib/gcc/x86_64-nacl/4.4.3/32/crtbegin.o
 .rel.text._ZNKSs6substrEjj
                0x0000000000000000        0x0 /home/jfb/nacl_sdk/pepper_42/toolchain/linux_x86_newlib/bin/../lib/gcc/x86_64-nacl/4.4.3/32/crtbegin.o
 .rel.text._ZNSsC2ERKSsjj
                0x0000000000000000        0x0 /home/jfb/nacl_sdk/pepper_42/toolchain/linux_x86_newlib/bin/../lib/gcc/x86_64-nacl/4.4.3/32/crtbegin.o
 .rel.text._ZNSs12_S_constructEjcRKSaIcE
                0x0000000000000000        0x0 /home/jfb/nacl_sdk/pepper_42/toolchain/linux_x86_newlib/bin/../lib/gcc/x86_64-nacl/4.4.3/32/crtbegin.o
 .rel.text._ZNSsC1EjcRKSaIcE
                0x0000000000000000        0x0 /home/jfb/nacl_sdk/pepper_42/toolchain/linux_x86_newlib/bin/../lib/gcc/x86_64-nacl/4.4.3/32/crtbegin.o
 .rel.text._ZNSsC2EjcRKSaIcE
                0x0000000000000000        0x0 /home/jfb/nacl_sdk/pepper_42/toolchain/linux_x86_newlib/bin/../lib/gcc/x86_64-nacl/4.4.3/32/crtbegin.o
 .rel.text._ZNSsC1ERKSaIcE
                0x0000000000000000        0x0 /home/jfb/nacl_sdk/pepper_42/toolchain/linux_x86_newlib/bin/../lib/gcc/x86_64-nacl/4.4.3/32/crtbegin.o
 .rel.text._ZNSsC2ERKSaIcE
                0x0000000000000000        0x0 /home/jfb/nacl_sdk/pepper_42/toolchain/linux_x86_newlib/bin/../lib/gcc/x86_64-nacl/4.4.3/32/crtbegin.o
 .rel.text._ZNSs12_S_constructIN9__gnu_cxx17__normal_iteratorIPcSsEEEES2_T_S4_RKSaIcESt20forward_iterator_tag
                0x0000000000000000        0x0 /home/jfb/nacl_sdk/pepper_42/toolchain/linux_x86_newlib/bin/../lib/gcc/x86_64-nacl/4.4.3/32/crtbegin.o
 .rel.text._ZNSsC1IN9__gnu_cxx17__normal_iteratorIPcSsEEEET_S4_RKSaIcE
                0x0000000000000000        0x0 /home/jfb/nacl_sdk/pepper_42/toolchain/linux_x86_newlib/bin/../lib/gcc/x86_64-nacl/4.4.3/32/crtbegin.o
 .rel.text._ZNSsC2IN9__gnu_cxx17__normal_iteratorIPcSsEEEET_S4_RKSaIcE
                0x0000000000000000        0x0 /home/jfb/nacl_sdk/pepper_42/toolchain/linux_x86_newlib/bin/../lib/gcc/x86_64-nacl/4.4.3/32/crtbegin.o
 .rel.text._ZNSsD1Ev
                0x0000000000000000        0x0 /home/jfb/nacl_sdk/pepper_42/toolchain/linux_x86_newlib/bin/../lib/gcc/x86_64-nacl/4.4.3/32/crtbegin.o
 .rel.text._ZNSsD2Ev
                0x0000000000000000        0x0 /home/jfb/nacl_sdk/pepper_42/toolchain/linux_x86_newlib/bin/../lib/gcc/x86_64-nacl/4.4.3/32/crtbegin.o
 .rel.text._ZNSs6assignERKSs
                0x0000000000000000        0x0 /home/jfb/nacl_sdk/pepper_42/toolchain/linux_x86_newlib/bin/../lib/gcc/x86_64-nacl/4.4.3/32/crtbegin.o
 .rel.text._ZNSsaSERKSs
                0x0000000000000000        0x0 /home/jfb/nacl_sdk/pepper_42/toolchain/linux_x86_newlib/bin/../lib/gcc/x86_64-nacl/4.4.3/32/crtbegin.o
 .rel.text._ZNSs7reserveEj
                0x0000000000000000        0x0 /home/jfb/nacl_sdk/pepper_42/toolchain/linux_x86_newlib/bin/../lib/gcc/x86_64-nacl/4.4.3/32/crtbegin.o
 .rel.text._ZNSs9push_backEc
                0x0000000000000000        0x0 /home/jfb/nacl_sdk/pepper_42/toolchain/linux_x86_newlib/bin/../lib/gcc/x86_64-nacl/4.4.3/32/crtbegin.o
 .rel.text._ZNSs6appendEjc
                0x0000000000000000        0x0 /home/jfb/nacl_sdk/pepper_42/toolchain/linux_x86_newlib/bin/../lib/gcc/x86_64-nacl/4.4.3/32/crtbegin.o
 .rel.text._ZNSs6appendEPKcj
                0x0000000000000000        0x0 /home/jfb/nacl_sdk/pepper_42/toolchain/linux_x86_newlib/bin/../lib/gcc/x86_64-nacl/4.4.3/32/crtbegin.o
 .rel.text._ZNSs6appendEPKc
                0x0000000000000000        0x0 /home/jfb/nacl_sdk/pepper_42/toolchain/linux_x86_newlib/bin/../lib/gcc/x86_64-nacl/4.4.3/32/crtbegin.o
 .rel.text._ZNSspLEPKc
                0x0000000000000000        0x0 /home/jfb/nacl_sdk/pepper_42/toolchain/linux_x86_newlib/bin/../lib/gcc/x86_64-nacl/4.4.3/32/crtbegin.o
 .rel.text._ZNSs6appendERKSsjj
                0x0000000000000000        0x0 /home/jfb/nacl_sdk/pepper_42/toolchain/linux_x86_newlib/bin/../lib/gcc/x86_64-nacl/4.4.3/32/crtbegin.o
 .rel.text._ZNSs6appendERKSs
                0x0000000000000000        0x0 /home/jfb/nacl_sdk/pepper_42/toolchain/linux_x86_newlib/bin/../lib/gcc/x86_64-nacl/4.4.3/32/crtbegin.o
 .rel.text._ZStplIcSt11char_traitsIcESaIcEESbIT_T0_T1_ERKS6_S8_
                0x0000000000000000        0x0 /home/jfb/nacl_sdk/pepper_42/toolchain/linux_x86_newlib/bin/../lib/gcc/x86_64-nacl/4.4.3/32/crtbegin.o
 .rel.text._ZNSspLERKSs
                0x0000000000000000        0x0 /home/jfb/nacl_sdk/pepper_42/toolchain/linux_x86_newlib/bin/../lib/gcc/x86_64-nacl/4.4.3/32/crtbegin.o
 .rel.text._ZStplIcSt11char_traitsIcESaIcEESbIT_T0_T1_ES3_RKS6_
                0x0000000000000000        0x0 /home/jfb/nacl_sdk/pepper_42/toolchain/linux_x86_newlib/bin/../lib/gcc/x86_64-nacl/4.4.3/32/crtbegin.o
 .rel.text._ZStplIcSt11char_traitsIcESaIcEESbIT_T0_T1_EPKS3_RKS6_
                0x0000000000000000        0x0 /home/jfb/nacl_sdk/pepper_42/toolchain/linux_x86_newlib/bin/../lib/gcc/x86_64-nacl/4.4.3/32/crtbegin.o
 .rel.text._ZNSspLEc
                0x0000000000000000        0x0 /home/jfb/nacl_sdk/pepper_42/toolchain/linux_x86_newlib/bin/../lib/gcc/x86_64-nacl/4.4.3/32/crtbegin.o
 .rel.text._ZNSs9_M_mutateEjjj
                0x0000000000000000        0x0 /home/jfb/nacl_sdk/pepper_42/toolchain/linux_x86_newlib/bin/../lib/gcc/x86_64-nacl/4.4.3/32/crtbegin.o
 .rel.text._ZNSs15_M_replace_safeEjjPKcj
                0x0000000000000000        0x0 /home/jfb/nacl_sdk/pepper_42/toolchain/linux_x86_newlib/bin/../lib/gcc/x86_64-nacl/4.4.3/32/crtbegin.o
 .rel.text._ZNSs6assignEPKcj
                0x0000000000000000        0x0 /home/jfb/nacl_sdk/pepper_42/toolchain/linux_x86_newlib/bin/../lib/gcc/x86_64-nacl/4.4.3/32/crtbegin.o
 .rel.text._ZNSs6assignEPKc
                0x0000000000000000        0x0 /home/jfb/nacl_sdk/pepper_42/toolchain/linux_x86_newlib/bin/../lib/gcc/x86_64-nacl/4.4.3/32/crtbegin.o
 .rel.text._ZNSs6assignERKSsjj
                0x0000000000000000        0x0 /home/jfb/nacl_sdk/pepper_42/toolchain/linux_x86_newlib/bin/../lib/gcc/x86_64-nacl/4.4.3/32/crtbegin.o
 .rel.text._ZNSsaSEPKc
                0x0000000000000000        0x0 /home/jfb/nacl_sdk/pepper_42/toolchain/linux_x86_newlib/bin/../lib/gcc/x86_64-nacl/4.4.3/32/crtbegin.o
 .rel.text._ZNSs14_M_replace_auxEjjjc
                0x0000000000000000        0x0 /home/jfb/nacl_sdk/pepper_42/toolchain/linux_x86_newlib/bin/../lib/gcc/x86_64-nacl/4.4.3/32/crtbegin.o
 .rel.text._ZNSs7replaceEN9__gnu_cxx17__normal_iteratorIPcSsEES2_jc
                0x0000000000000000        0x0 /home/jfb/nacl_sdk/pepper_42/toolchain/linux_x86_newlib/bin/../lib/gcc/x86_64-nacl/4.4.3/32/crtbegin.o
 .rel.text._ZNSs7replaceEjjjc
                0x0000000000000000        0x0 /home/jfb/nacl_sdk/pepper_42/toolchain/linux_x86_newlib/bin/../lib/gcc/x86_64-nacl/4.4.3/32/crtbegin.o
 .rel.text._ZNSs6insertEN9__gnu_cxx17__normal_iteratorIPcSsEEc
                0x0000000000000000        0x0 /home/jfb/nacl_sdk/pepper_42/toolchain/linux_x86_newlib/bin/../lib/gcc/x86_64-nacl/4.4.3/32/crtbegin.o
 .rel.text._ZNSs6insertEjjc
                0x0000000000000000        0x0 /home/jfb/nacl_sdk/pepper_42/toolchain/linux_x86_newlib/bin/../lib/gcc/x86_64-nacl/4.4.3/32/crtbegin.o
 .rel.text._ZNSs6assignEjc
                0x0000000000000000        0x0 /home/jfb/nacl_sdk/pepper_42/toolchain/linux_x86_newlib/bin/../lib/gcc/x86_64-nacl/4.4.3/32/crtbegin.o
 .rel.text._ZNSs6insertEN9__gnu_cxx17__normal_iteratorIPcSsEEjc
                0x0000000000000000        0x0 /home/jfb/nacl_sdk/pepper_42/toolchain/linux_x86_newlib/bin/../lib/gcc/x86_64-nacl/4.4.3/32/crtbegin.o
 .rel.text._ZNSsaSEc
                0x0000000000000000        0x0 /home/jfb/nacl_sdk/pepper_42/toolchain/linux_x86_newlib/bin/../lib/gcc/x86_64-nacl/4.4.3/32/crtbegin.o
 .rel.text._ZNSs5eraseEN9__gnu_cxx17__normal_iteratorIPcSsEES2_
                0x0000000000000000        0x0 /home/jfb/nacl_sdk/pepper_42/toolchain/linux_x86_newlib/bin/../lib/gcc/x86_64-nacl/4.4.3/32/crtbegin.o
 .rel.text._ZNSs5eraseEN9__gnu_cxx17__normal_iteratorIPcSsEE
                0x0000000000000000        0x0 /home/jfb/nacl_sdk/pepper_42/toolchain/linux_x86_newlib/bin/../lib/gcc/x86_64-nacl/4.4.3/32/crtbegin.o
 .rel.text._ZNSs5eraseEjj
                0x0000000000000000        0x0 /home/jfb/nacl_sdk/pepper_42/toolchain/linux_x86_newlib/bin/../lib/gcc/x86_64-nacl/4.4.3/32/crtbegin.o
 .rel.text._ZNSs6insertEjPKcj
                0x0000000000000000        0x0 /home/jfb/nacl_sdk/pepper_42/toolchain/linux_x86_newlib/bin/../lib/gcc/x86_64-nacl/4.4.3/32/crtbegin.o
 .rel.text._ZNSs6insertEjPKc
                0x0000000000000000        0x0 /home/jfb/nacl_sdk/pepper_42/toolchain/linux_x86_newlib/bin/../lib/gcc/x86_64-nacl/4.4.3/32/crtbegin.o
 .rel.text._ZNSs6insertEjRKSsjj
                0x0000000000000000        0x0 /home/jfb/nacl_sdk/pepper_42/toolchain/linux_x86_newlib/bin/../lib/gcc/x86_64-nacl/4.4.3/32/crtbegin.o
 .rel.text._ZNSs6insertEjRKSs
                0x0000000000000000        0x0 /home/jfb/nacl_sdk/pepper_42/toolchain/linux_x86_newlib/bin/../lib/gcc/x86_64-nacl/4.4.3/32/crtbegin.o
 .rel.text._ZNSs5clearEv
                0x0000000000000000        0x0 /home/jfb/nacl_sdk/pepper_42/toolchain/linux_x86_newlib/bin/../lib/gcc/x86_64-nacl/4.4.3/32/crtbegin.o
 .rel.text._ZNSs12_M_leak_hardEv
                0x0000000000000000        0x0 /home/jfb/nacl_sdk/pepper_42/toolchain/linux_x86_newlib/bin/../lib/gcc/x86_64-nacl/4.4.3/32/crtbegin.o
 .rel.text._ZNSs7_M_leakEv
                0x0000000000000000        0x0 /home/jfb/nacl_sdk/pepper_42/toolchain/linux_x86_newlib/bin/../lib/gcc/x86_64-nacl/4.4.3/32/crtbegin.o
 .rel.text._ZNSs2atEj
                0x0000000000000000        0x0 /home/jfb/nacl_sdk/pepper_42/toolchain/linux_x86_newlib/bin/../lib/gcc/x86_64-nacl/4.4.3/32/crtbegin.o
 .rel.text._ZNSsixEj
                0x0000000000000000        0x0 /home/jfb/nacl_sdk/pepper_42/toolchain/linux_x86_newlib/bin/../lib/gcc/x86_64-nacl/4.4.3/32/crtbegin.o
 .rel.text._ZNSs3endEv
                0x0000000000000000        0x0 /home/jfb/nacl_sdk/pepper_42/toolchain/linux_x86_newlib/bin/../lib/gcc/x86_64-nacl/4.4.3/32/crtbegin.o
 .rel.text._ZNSs5beginEv
                0x0000000000000000        0x0 /home/jfb/nacl_sdk/pepper_42/toolchain/linux_x86_newlib/bin/../lib/gcc/x86_64-nacl/4.4.3/32/crtbegin.o
 .rel.text._ZNSs4rendEv
                0x0000000000000000        0x0 /home/jfb/nacl_sdk/pepper_42/toolchain/linux_x86_newlib/bin/../lib/gcc/x86_64-nacl/4.4.3/32/crtbegin.o
 .rel.text._ZNSs6rbeginEv
                0x0000000000000000        0x0 /home/jfb/nacl_sdk/pepper_42/toolchain/linux_x86_newlib/bin/../lib/gcc/x86_64-nacl/4.4.3/32/crtbegin.o
 .rel.text._ZNSs6resizeEjc
                0x0000000000000000        0x0 /home/jfb/nacl_sdk/pepper_42/toolchain/linux_x86_newlib/bin/../lib/gcc/x86_64-nacl/4.4.3/32/crtbegin.o
 .rel.text._ZNSs6resizeEj
                0x0000000000000000        0x0 /home/jfb/nacl_sdk/pepper_42/toolchain/linux_x86_newlib/bin/../lib/gcc/x86_64-nacl/4.4.3/32/crtbegin.o
 .rel.text._ZNSs7replaceEjjPKcj
                0x0000000000000000        0x0 /home/jfb/nacl_sdk/pepper_42/toolchain/linux_x86_newlib/bin/../lib/gcc/x86_64-nacl/4.4.3/32/crtbegin.o
 .rel.text._ZNSs7replaceEN9__gnu_cxx17__normal_iteratorIPcSsEES2_NS0_IPKcSsEES5_
                0x0000000000000000        0x0 /home/jfb/nacl_sdk/pepper_42/toolchain/linux_x86_newlib/bin/../lib/gcc/x86_64-nacl/4.4.3/32/crtbegin.o
 .rel.text._ZNSs7replaceEN9__gnu_cxx17__normal_iteratorIPcSsEES2_S2_S2_
                0x0000000000000000        0x0 /home/jfb/nacl_sdk/pepper_42/toolchain/linux_x86_newlib/bin/../lib/gcc/x86_64-nacl/4.4.3/32/crtbegin.o
 .rel.text._ZNSs7replaceEN9__gnu_cxx17__normal_iteratorIPcSsEES2_PKcS4_
                0x0000000000000000        0x0 /home/jfb/nacl_sdk/pepper_42/toolchain/linux_x86_newlib/bin/../lib/gcc/x86_64-nacl/4.4.3/32/crtbegin.o
 .rel.text._ZNSs7replaceEN9__gnu_cxx17__normal_iteratorIPcSsEES2_S1_S1_
                0x0000000000000000        0x0 /home/jfb/nacl_sdk/pepper_42/toolchain/linux_x86_newlib/bin/../lib/gcc/x86_64-nacl/4.4.3/32/crtbegin.o
 .rel.text._ZNSs7replaceEN9__gnu_cxx17__normal_iteratorIPcSsEES2_PKcj
                0x0000000000000000        0x0 /home/jfb/nacl_sdk/pepper_42/toolchain/linux_x86_newlib/bin/../lib/gcc/x86_64-nacl/4.4.3/32/crtbegin.o
 .rel.text._ZNSs7replaceEjjPKc
                0x0000000000000000        0x0 /home/jfb/nacl_sdk/pepper_42/toolchain/linux_x86_newlib/bin/../lib/gcc/x86_64-nacl/4.4.3/32/crtbegin.o
 .rel.text._ZNSs7replaceEjjRKSsjj
                0x0000000000000000        0x0 /home/jfb/nacl_sdk/pepper_42/toolchain/linux_x86_newlib/bin/../lib/gcc/x86_64-nacl/4.4.3/32/crtbegin.o
 .rel.text._ZNSs7replaceEjjRKSs
                0x0000000000000000        0x0 /home/jfb/nacl_sdk/pepper_42/toolchain/linux_x86_newlib/bin/../lib/gcc/x86_64-nacl/4.4.3/32/crtbegin.o
 .rel.text._ZNSs7replaceEN9__gnu_cxx17__normal_iteratorIPcSsEES2_PKc
                0x0000000000000000        0x0 /home/jfb/nacl_sdk/pepper_42/toolchain/linux_x86_newlib/bin/../lib/gcc/x86_64-nacl/4.4.3/32/crtbegin.o
 .rel.text._ZNSs7replaceEN9__gnu_cxx17__normal_iteratorIPcSsEES2_RKSs
                0x0000000000000000        0x0 /home/jfb/nacl_sdk/pepper_42/toolchain/linux_x86_newlib/bin/../lib/gcc/x86_64-nacl/4.4.3/32/crtbegin.o
 .rel.text._ZNSs6assignESt16initializer_listIcE
                0x0000000000000000        0x0 /home/jfb/nacl_sdk/pepper_42/toolchain/linux_x86_newlib/bin/../lib/gcc/x86_64-nacl/4.4.3/32/crtbegin.o
 .rel.text._ZNSsaSESt16initializer_listIcE
                0x0000000000000000        0x0 /home/jfb/nacl_sdk/pepper_42/toolchain/linux_x86_newlib/bin/../lib/gcc/x86_64-nacl/4.4.3/32/crtbegin.o
 .rel.text._ZNSs6appendESt16initializer_listIcE
                0x0000000000000000        0x0 /home/jfb/nacl_sdk/pepper_42/toolchain/linux_x86_newlib/bin/../lib/gcc/x86_64-nacl/4.4.3/32/crtbegin.o
 .rel.text._ZNSspLESt16initializer_listIcE
                0x0000000000000000        0x0 /home/jfb/nacl_sdk/pepper_42/toolchain/linux_x86_newlib/bin/../lib/gcc/x86_64-nacl/4.4.3/32/crtbegin.o
 .rel.text._ZNSs7replaceEN9__gnu_cxx17__normal_iteratorIPcSsEES2_St16initializer_listIcE
                0x0000000000000000        0x0 /home/jfb/nacl_sdk/pepper_42/toolchain/linux_x86_newlib/bin/../lib/gcc/x86_64-nacl/4.4.3/32/crtbegin.o
 .rel.text._ZNSs6insertEN9__gnu_cxx17__normal_iteratorIPcSsEESt16initializer_listIcE
                0x0000000000000000        0x0 /home/jfb/nacl_sdk/pepper_42/toolchain/linux_x86_newlib/bin/../lib/gcc/x86_64-nacl/4.4.3/32/crtbegin.o
 .rel.text._ZL21base_of_encoded_valuehP15_Unwind_Context
                0x0000000000000000        0x0 /home/jfb/nacl_sdk/pepper_42/toolchain/linux_x86_newlib/bin/../lib/gcc/x86_64-nacl/4.4.3/32/crtbegin.o
 .rel.text._ZL28read_encoded_value_with_basehjPKhPj
                0x0000000000000000        0x0 /home/jfb/nacl_sdk/pepper_42/toolchain/linux_x86_newlib/bin/../lib/gcc/x86_64-nacl/4.4.3/32/crtbegin.o
 .rel.text._ZL17parse_lsda_headerP15_Unwind_ContextPKhP16lsda_header_info
                0x0000000000000000        0x0 /home/jfb/nacl_sdk/pepper_42/toolchain/linux_x86_newlib/bin/../lib/gcc/x86_64-nacl/4.4.3/32/crtbegin.o
 .rel.text._ZL15get_ttype_entryP16lsda_header_infom
                0x0000000000000000        0x0 /home/jfb/nacl_sdk/pepper_42/toolchain/linux_x86_newlib/bin/../lib/gcc/x86_64-nacl/4.4.3/32/crtbegin.o
 .rel.text.__cxa_call_unexpected
                0x0000000000000000        0x0 /home/jfb/nacl_sdk/pepper_42/toolchain/linux_x86_newlib/bin/../lib/gcc/x86_64-nacl/4.4.3/32/crtbegin.o
 .rel.text.__gxx_personality_v0
                0x0000000000000000        0x0 /home/jfb/nacl_sdk/pepper_42/toolchain/linux_x86_newlib/bin/../lib/gcc/x86_64-nacl/4.4.3/32/crtbegin.o
 .rel.text._GLOBAL__I___cxa_get_globals_fast
                0x0000000000000000        0x0 /home/jfb/nacl_sdk/pepper_42/toolchain/linux_x86_newlib/bin/../lib/gcc/x86_64-nacl/4.4.3/32/crtbegin.o
 .rel.text._ZL15eh_globals_dtorPv
                0x0000000000000000        0x0 /home/jfb/nacl_sdk/pepper_42/toolchain/linux_x86_newlib/bin/../lib/gcc/x86_64-nacl/4.4.3/32/crtbegin.o
 .rel.text.__cxa_get_globals
                0x0000000000000000        0x0 /home/jfb/nacl_sdk/pepper_42/toolchain/linux_x86_newlib/bin/../lib/gcc/x86_64-nacl/4.4.3/32/crtbegin.o
 .rel.text.__cxa_get_globals_fast
                0x0000000000000000        0x0 /home/jfb/nacl_sdk/pepper_42/toolchain/linux_x86_newlib/bin/../lib/gcc/x86_64-nacl/4.4.3/32/crtbegin.o
 .rel.text.__cxa_rethrow
                0x0000000000000000        0x0 /home/jfb/nacl_sdk/pepper_42/toolchain/linux_x86_newlib/bin/../lib/gcc/x86_64-nacl/4.4.3/32/crtbegin.o
 .rel.text.__cxa_throw
                0x0000000000000000        0x0 /home/jfb/nacl_sdk/pepper_42/toolchain/linux_x86_newlib/bin/../lib/gcc/x86_64-nacl/4.4.3/32/crtbegin.o
 .rel.text._ZL23__gxx_exception_cleanup19_Unwind_Reason_CodeP17_Unwind_Exception
                0x0000000000000000        0x0 /home/jfb/nacl_sdk/pepper_42/toolchain/linux_x86_newlib/bin/../lib/gcc/x86_64-nacl/4.4.3/32/crtbegin.o
 .rel.text._ZdlPv
                0x0000000000000000        0x0 /home/jfb/nacl_sdk/pepper_42/toolchain/linux_x86_newlib/bin/../lib/gcc/x86_64-nacl/4.4.3/32/crtbegin.o
 .rel.text.__cxa_call_terminate
                0x0000000000000000        0x0 /home/jfb/nacl_sdk/pepper_42/toolchain/linux_x86_newlib/bin/../lib/gcc/x86_64-nacl/4.4.3/32/crtbegin.o
 .rel.text._ZN10__cxxabiv1L7acquireEPx
                0x0000000000000000        0x0 /home/jfb/nacl_sdk/pepper_42/toolchain/linux_x86_newlib/bin/../lib/gcc/x86_64-nacl/4.4.3/32/crtbegin.o
 .rel.text._ZN9__gnu_cxx26__concurrence_unlock_errorD1Ev
                0x0000000000000000        0x0 /home/jfb/nacl_sdk/pepper_42/toolchain/linux_x86_newlib/bin/../lib/gcc/x86_64-nacl/4.4.3/32/crtbegin.o
 .rel.text._ZN9__gnu_cxx24__concurrence_lock_errorD1Ev
                0x0000000000000000        0x0 /home/jfb/nacl_sdk/pepper_42/toolchain/linux_x86_newlib/bin/../lib/gcc/x86_64-nacl/4.4.3/32/crtbegin.o
 .rel.text._ZN9__gnu_cxx20recursive_init_errorD1Ev
                0x0000000000000000        0x0 /home/jfb/nacl_sdk/pepper_42/toolchain/linux_x86_newlib/bin/../lib/gcc/x86_64-nacl/4.4.3/32/crtbegin.o
 .rel.text._ZN9__gnu_cxx20recursive_init_errorD2Ev
                0x0000000000000000        0x0 /home/jfb/nacl_sdk/pepper_42/toolchain/linux_x86_newlib/bin/../lib/gcc/x86_64-nacl/4.4.3/32/crtbegin.o
 .rel.text._ZN9__gnu_cxx26__concurrence_unlock_errorD0Ev
                0x0000000000000000        0x0 /home/jfb/nacl_sdk/pepper_42/toolchain/linux_x86_newlib/bin/../lib/gcc/x86_64-nacl/4.4.3/32/crtbegin.o
 .rel.text._ZN9__gnu_cxx24__concurrence_lock_errorD0Ev
                0x0000000000000000        0x0 /home/jfb/nacl_sdk/pepper_42/toolchain/linux_x86_newlib/bin/../lib/gcc/x86_64-nacl/4.4.3/32/crtbegin.o
 .rel.text._ZN9__gnu_cxx20recursive_init_errorD0Ev
                0x0000000000000000        0x0 /home/jfb/nacl_sdk/pepper_42/toolchain/linux_x86_newlib/bin/../lib/gcc/x86_64-nacl/4.4.3/32/crtbegin.o
 .rel.text.__cxa_guard_release
                0x0000000000000000        0x0 /home/jfb/nacl_sdk/pepper_42/toolchain/linux_x86_newlib/bin/../lib/gcc/x86_64-nacl/4.4.3/32/crtbegin.o
 .rel.text.__cxa_guard_abort
                0x0000000000000000        0x0 /home/jfb/nacl_sdk/pepper_42/toolchain/linux_x86_newlib/bin/../lib/gcc/x86_64-nacl/4.4.3/32/crtbegin.o
 .rel.text.__cxa_guard_acquire
                0x0000000000000000        0x0 /home/jfb/nacl_sdk/pepper_42/toolchain/linux_x86_newlib/bin/../lib/gcc/x86_64-nacl/4.4.3/32/crtbegin.o
 .rel.text._ZNK10__cxxabiv120__si_class_type_info11__do_upcastEPKNS_17__class_type_infoEPKvRNS1_15__upcast_resultE
                0x0000000000000000        0x0 /home/jfb/nacl_sdk/pepper_42/toolchain/linux_x86_newlib/bin/../lib/gcc/x86_64-nacl/4.4.3/32/crtbegin.o
 .rel.text._ZN10__cxxabiv120__si_class_type_infoD1Ev
                0x0000000000000000        0x0 /home/jfb/nacl_sdk/pepper_42/toolchain/linux_x86_newlib/bin/../lib/gcc/x86_64-nacl/4.4.3/32/crtbegin.o
 .rel.text._ZN10__cxxabiv120__si_class_type_infoD2Ev
                0x0000000000000000        0x0 /home/jfb/nacl_sdk/pepper_42/toolchain/linux_x86_newlib/bin/../lib/gcc/x86_64-nacl/4.4.3/32/crtbegin.o
 .rel.text._ZN10__cxxabiv120__si_class_type_infoD0Ev
                0x0000000000000000        0x0 /home/jfb/nacl_sdk/pepper_42/toolchain/linux_x86_newlib/bin/../lib/gcc/x86_64-nacl/4.4.3/32/crtbegin.o
 .rel.text._ZSt13set_terminatePFvvE
                0x0000000000000000        0x0 /home/jfb/nacl_sdk/pepper_42/toolchain/linux_x86_newlib/bin/../lib/gcc/x86_64-nacl/4.4.3/32/crtbegin.o
 .rel.text._ZSt14set_unexpectedPFvvE
                0x0000000000000000        0x0 /home/jfb/nacl_sdk/pepper_42/toolchain/linux_x86_newlib/bin/../lib/gcc/x86_64-nacl/4.4.3/32/crtbegin.o
 .rel.text._ZN10__cxxabiv111__terminateEPFvvE
                0x0000000000000000        0x0 /home/jfb/nacl_sdk/pepper_42/toolchain/linux_x86_newlib/bin/../lib/gcc/x86_64-nacl/4.4.3/32/crtbegin.o
 .rel.text._ZSt9terminatev
                0x0000000000000000        0x0 /home/jfb/nacl_sdk/pepper_42/toolchain/linux_x86_newlib/bin/../lib/gcc/x86_64-nacl/4.4.3/32/crtbegin.o
 .rel.text._ZSt10unexpectedv
                0x0000000000000000        0x0 /home/jfb/nacl_sdk/pepper_42/toolchain/linux_x86_newlib/bin/../lib/gcc/x86_64-nacl/4.4.3/32/crtbegin.o
 .rel.text._ZN10__cxxabiv117__class_type_infoD1Ev
                0x0000000000000000        0x0 /home/jfb/nacl_sdk/pepper_42/toolchain/linux_x86_newlib/bin/../lib/gcc/x86_64-nacl/4.4.3/32/crtbegin.o
 .rel.text._ZN10__cxxabiv117__class_type_infoD2Ev
                0x0000000000000000        0x0 /home/jfb/nacl_sdk/pepper_42/toolchain/linux_x86_newlib/bin/../lib/gcc/x86_64-nacl/4.4.3/32/crtbegin.o
 .rel.text._ZN10__cxxabiv117__class_type_infoD0Ev
                0x0000000000000000        0x0 /home/jfb/nacl_sdk/pepper_42/toolchain/linux_x86_newlib/bin/../lib/gcc/x86_64-nacl/4.4.3/32/crtbegin.o
 .rel.text._ZN9__gnu_cxx13__scoped_lockD1Ev
                0x0000000000000000        0x0 /home/jfb/nacl_sdk/pepper_42/toolchain/linux_x86_newlib/bin/../lib/gcc/x86_64-nacl/4.4.3/32/crtbegin.o
 .rel.text.__cxa_free_dependent_exception
                0x0000000000000000        0x0 /home/jfb/nacl_sdk/pepper_42/toolchain/linux_x86_newlib/bin/../lib/gcc/x86_64-nacl/4.4.3/32/crtbegin.o
 .rel.text.__cxa_free_exception
                0x0000000000000000        0x0 /home/jfb/nacl_sdk/pepper_42/toolchain/linux_x86_newlib/bin/../lib/gcc/x86_64-nacl/4.4.3/32/crtbegin.o
 .rel.text.__cxa_allocate_exception
                0x0000000000000000        0x0 /home/jfb/nacl_sdk/pepper_42/toolchain/linux_x86_newlib/bin/../lib/gcc/x86_64-nacl/4.4.3/32/crtbegin.o
 .rel.text.__cxa_allocate_dependent_exception
                0x0000000000000000        0x0 /home/jfb/nacl_sdk/pepper_42/toolchain/linux_x86_newlib/bin/../lib/gcc/x86_64-nacl/4.4.3/32/crtbegin.o
 .rel.text.__cxa_end_catch
                0x0000000000000000        0x0 /home/jfb/nacl_sdk/pepper_42/toolchain/linux_x86_newlib/bin/../lib/gcc/x86_64-nacl/4.4.3/32/crtbegin.o
 .rel.text.__cxa_begin_catch
                0x0000000000000000        0x0 /home/jfb/nacl_sdk/pepper_42/toolchain/linux_x86_newlib/bin/../lib/gcc/x86_64-nacl/4.4.3/32/crtbegin.o
 .rel.text._ZNSt9exceptionD2Ev
                0x0000000000000000        0x0 /home/jfb/nacl_sdk/pepper_42/toolchain/linux_x86_newlib/bin/../lib/gcc/x86_64-nacl/4.4.3/32/crtbegin.o
 .rel.text._ZNSt9exceptionD1Ev
                0x0000000000000000        0x0 /home/jfb/nacl_sdk/pepper_42/toolchain/linux_x86_newlib/bin/../lib/gcc/x86_64-nacl/4.4.3/32/crtbegin.o
 .rel.text._ZNSt13bad_exceptionD2Ev
                0x0000000000000000        0x0 /home/jfb/nacl_sdk/pepper_42/toolchain/linux_x86_newlib/bin/../lib/gcc/x86_64-nacl/4.4.3/32/crtbegin.o
 .rel.text._ZNSt13bad_exceptionD1Ev
                0x0000000000000000        0x0 /home/jfb/nacl_sdk/pepper_42/toolchain/linux_x86_newlib/bin/../lib/gcc/x86_64-nacl/4.4.3/32/crtbegin.o
 .rel.text._ZN10__cxxabiv115__forced_unwindD2Ev
                0x0000000000000000        0x0 /home/jfb/nacl_sdk/pepper_42/toolchain/linux_x86_newlib/bin/../lib/gcc/x86_64-nacl/4.4.3/32/crtbegin.o
 .rel.text._ZN10__cxxabiv115__forced_unwindD1Ev
                0x0000000000000000        0x0 /home/jfb/nacl_sdk/pepper_42/toolchain/linux_x86_newlib/bin/../lib/gcc/x86_64-nacl/4.4.3/32/crtbegin.o
 .rel.text._ZN10__cxxabiv119__foreign_exceptionD2Ev
                0x0000000000000000        0x0 /home/jfb/nacl_sdk/pepper_42/toolchain/linux_x86_newlib/bin/../lib/gcc/x86_64-nacl/4.4.3/32/crtbegin.o
 .rel.text._ZN10__cxxabiv119__foreign_exceptionD1Ev
                0x0000000000000000        0x0 /home/jfb/nacl_sdk/pepper_42/toolchain/linux_x86_newlib/bin/../lib/gcc/x86_64-nacl/4.4.3/32/crtbegin.o
 .rel.text._ZN10__cxxabiv119__foreign_exceptionD0Ev
                0x0000000000000000        0x0 /home/jfb/nacl_sdk/pepper_42/toolchain/linux_x86_newlib/bin/../lib/gcc/x86_64-nacl/4.4.3/32/crtbegin.o
 .rel.text._ZN10__cxxabiv115__forced_unwindD0Ev
                0x0000000000000000        0x0 /home/jfb/nacl_sdk/pepper_42/toolchain/linux_x86_newlib/bin/../lib/gcc/x86_64-nacl/4.4.3/32/crtbegin.o
 .rel.text._ZNSt9exceptionD0Ev
                0x0000000000000000        0x0 /home/jfb/nacl_sdk/pepper_42/toolchain/linux_x86_newlib/bin/../lib/gcc/x86_64-nacl/4.4.3/32/crtbegin.o
 .rel.text._ZNSt13bad_exceptionD0Ev
                0x0000000000000000        0x0 /home/jfb/nacl_sdk/pepper_42/toolchain/linux_x86_newlib/bin/../lib/gcc/x86_64-nacl/4.4.3/32/crtbegin.o
 .rel.text.__cxa_pure_virtual
                0x0000000000000000        0x0 /home/jfb/nacl_sdk/pepper_42/toolchain/linux_x86_newlib/bin/../lib/gcc/x86_64-nacl/4.4.3/32/crtbegin.o
 .rel.text._Znwj
                0x0000000000000000        0x0 /home/jfb/nacl_sdk/pepper_42/toolchain/linux_x86_newlib/bin/../lib/gcc/x86_64-nacl/4.4.3/32/crtbegin.o
 .rel.text._ZNSt9type_infoD2Ev
                0x0000000000000000        0x0 /home/jfb/nacl_sdk/pepper_42/toolchain/linux_x86_newlib/bin/../lib/gcc/x86_64-nacl/4.4.3/32/crtbegin.o
 .rel.text._ZNSt9type_infoD1Ev
                0x0000000000000000        0x0 /home/jfb/nacl_sdk/pepper_42/toolchain/linux_x86_newlib/bin/../lib/gcc/x86_64-nacl/4.4.3/32/crtbegin.o
 .rel.text._ZNSt9type_infoD0Ev
                0x0000000000000000        0x0 /home/jfb/nacl_sdk/pepper_42/toolchain/linux_x86_newlib/bin/../lib/gcc/x86_64-nacl/4.4.3/32/crtbegin.o
 .rel.text._ZSt18__throw_bad_typeidv
                0x0000000000000000        0x0 /home/jfb/nacl_sdk/pepper_42/toolchain/linux_x86_newlib/bin/../lib/gcc/x86_64-nacl/4.4.3/32/crtbegin.o
 .rel.text._ZSt16__throw_bad_castv
                0x0000000000000000        0x0 /home/jfb/nacl_sdk/pepper_42/toolchain/linux_x86_newlib/bin/../lib/gcc/x86_64-nacl/4.4.3/32/crtbegin.o
 .rel.text._ZSt17__throw_bad_allocv
                0x0000000000000000        0x0 /home/jfb/nacl_sdk/pepper_42/toolchain/linux_x86_newlib/bin/../lib/gcc/x86_64-nacl/4.4.3/32/crtbegin.o
 .rel.text._ZSt21__throw_bad_exceptionv
                0x0000000000000000        0x0 /home/jfb/nacl_sdk/pepper_42/toolchain/linux_x86_newlib/bin/../lib/gcc/x86_64-nacl/4.4.3/32/crtbegin.o
 .rel.text._ZNSt15underflow_errorD1Ev
                0x0000000000000000        0x0 /home/jfb/nacl_sdk/pepper_42/toolchain/linux_x86_newlib/bin/../lib/gcc/x86_64-nacl/4.4.3/32/crtbegin.o
 .rel.text._ZNSt14overflow_errorD1Ev
                0x0000000000000000        0x0 /home/jfb/nacl_sdk/pepper_42/toolchain/linux_x86_newlib/bin/../lib/gcc/x86_64-nacl/4.4.3/32/crtbegin.o
 .rel.text._ZNSt11range_errorD1Ev
                0x0000000000000000        0x0 /home/jfb/nacl_sdk/pepper_42/toolchain/linux_x86_newlib/bin/../lib/gcc/x86_64-nacl/4.4.3/32/crtbegin.o
 .rel.text._ZNSt15underflow_errorD0Ev
                0x0000000000000000        0x0 /home/jfb/nacl_sdk/pepper_42/toolchain/linux_x86_newlib/bin/../lib/gcc/x86_64-nacl/4.4.3/32/crtbegin.o
 .rel.text._ZNSt14overflow_errorD0Ev
                0x0000000000000000        0x0 /home/jfb/nacl_sdk/pepper_42/toolchain/linux_x86_newlib/bin/../lib/gcc/x86_64-nacl/4.4.3/32/crtbegin.o
 .rel.text._ZNSt11range_errorD0Ev
                0x0000000000000000        0x0 /home/jfb/nacl_sdk/pepper_42/toolchain/linux_x86_newlib/bin/../lib/gcc/x86_64-nacl/4.4.3/32/crtbegin.o
 .rel.text._ZNSt12out_of_rangeD1Ev
                0x0000000000000000        0x0 /home/jfb/nacl_sdk/pepper_42/toolchain/linux_x86_newlib/bin/../lib/gcc/x86_64-nacl/4.4.3/32/crtbegin.o
 .rel.text._ZNSt12out_of_rangeD0Ev
                0x0000000000000000        0x0 /home/jfb/nacl_sdk/pepper_42/toolchain/linux_x86_newlib/bin/../lib/gcc/x86_64-nacl/4.4.3/32/crtbegin.o
 .rel.text._ZNSt12length_errorD1Ev
                0x0000000000000000        0x0 /home/jfb/nacl_sdk/pepper_42/toolchain/linux_x86_newlib/bin/../lib/gcc/x86_64-nacl/4.4.3/32/crtbegin.o
 .rel.text._ZNSt12length_errorD0Ev
                0x0000000000000000        0x0 /home/jfb/nacl_sdk/pepper_42/toolchain/linux_x86_newlib/bin/../lib/gcc/x86_64-nacl/4.4.3/32/crtbegin.o
 .rel.text._ZNSt16invalid_argumentD1Ev
                0x0000000000000000        0x0 /home/jfb/nacl_sdk/pepper_42/toolchain/linux_x86_newlib/bin/../lib/gcc/x86_64-nacl/4.4.3/32/crtbegin.o
 .rel.text._ZNSt16invalid_argumentD0Ev
                0x0000000000000000        0x0 /home/jfb/nacl_sdk/pepper_42/toolchain/linux_x86_newlib/bin/../lib/gcc/x86_64-nacl/4.4.3/32/crtbegin.o
 .rel.text._ZNSt12domain_errorD1Ev
                0x0000000000000000        0x0 /home/jfb/nacl_sdk/pepper_42/toolchain/linux_x86_newlib/bin/../lib/gcc/x86_64-nacl/4.4.3/32/crtbegin.o
 .rel.text._ZNSt12domain_errorD0Ev
                0x0000000000000000        0x0 /home/jfb/nacl_sdk/pepper_42/toolchain/linux_x86_newlib/bin/../lib/gcc/x86_64-nacl/4.4.3/32/crtbegin.o
 .rel.text._ZSt20__throw_system_errori
                0x0000000000000000        0x0 /home/jfb/nacl_sdk/pepper_42/toolchain/linux_x86_newlib/bin/../lib/gcc/x86_64-nacl/4.4.3/32/crtbegin.o
 .rel.text._ZSt19__throw_ios_failurePKc
                0x0000000000000000        0x0 /home/jfb/nacl_sdk/pepper_42/toolchain/linux_x86_newlib/bin/../lib/gcc/x86_64-nacl/4.4.3/32/crtbegin.o
 .rel.text._ZSt23__throw_underflow_errorPKc
                0x0000000000000000        0x0 /home/jfb/nacl_sdk/pepper_42/toolchain/linux_x86_newlib/bin/../lib/gcc/x86_64-nacl/4.4.3/32/crtbegin.o
 .rel.text._ZSt22__throw_overflow_errorPKc
                0x0000000000000000        0x0 /home/jfb/nacl_sdk/pepper_42/toolchain/linux_x86_newlib/bin/../lib/gcc/x86_64-nacl/4.4.3/32/crtbegin.o
 .rel.text._ZSt19__throw_range_errorPKc
                0x0000000000000000        0x0 /home/jfb/nacl_sdk/pepper_42/toolchain/linux_x86_newlib/bin/../lib/gcc/x86_64-nacl/4.4.3/32/crtbegin.o
 .rel.text._ZSt21__throw_runtime_errorPKc
                0x0000000000000000        0x0 /home/jfb/nacl_sdk/pepper_42/toolchain/linux_x86_newlib/bin/../lib/gcc/x86_64-nacl/4.4.3/32/crtbegin.o
 .rel.text._ZSt20__throw_out_of_rangePKc
                0x0000000000000000        0x0 /home/jfb/nacl_sdk/pepper_42/toolchain/linux_x86_newlib/bin/../lib/gcc/x86_64-nacl/4.4.3/32/crtbegin.o
 .rel.text._ZSt20__throw_length_errorPKc
                0x0000000000000000        0x0 /home/jfb/nacl_sdk/pepper_42/toolchain/linux_x86_newlib/bin/../lib/gcc/x86_64-nacl/4.4.3/32/crtbegin.o
 .rel.text._ZSt24__throw_invalid_argumentPKc
                0x0000000000000000        0x0 /home/jfb/nacl_sdk/pepper_42/toolchain/linux_x86_newlib/bin/../lib/gcc/x86_64-nacl/4.4.3/32/crtbegin.o
 .rel.text._ZSt20__throw_domain_errorPKc
                0x0000000000000000        0x0 /home/jfb/nacl_sdk/pepper_42/toolchain/linux_x86_newlib/bin/../lib/gcc/x86_64-nacl/4.4.3/32/crtbegin.o
 .rel.text._ZSt19__throw_logic_errorPKc
                0x0000000000000000        0x0 /home/jfb/nacl_sdk/pepper_42/toolchain/linux_x86_newlib/bin/../lib/gcc/x86_64-nacl/4.4.3/32/crtbegin.o
 .rel.text._ZNSt8ios_base7failureC1ERKSs
                0x0000000000000000        0x0 /home/jfb/nacl_sdk/pepper_42/toolchain/linux_x86_newlib/bin/../lib/gcc/x86_64-nacl/4.4.3/32/crtbegin.o
 .rel.text._ZNSt8ios_base7failureC2ERKSs
                0x0000000000000000        0x0 /home/jfb/nacl_sdk/pepper_42/toolchain/linux_x86_newlib/bin/../lib/gcc/x86_64-nacl/4.4.3/32/crtbegin.o
 .rel.text._ZNSt8ios_base7failureD0Ev
                0x0000000000000000        0x0 /home/jfb/nacl_sdk/pepper_42/toolchain/linux_x86_newlib/bin/../lib/gcc/x86_64-nacl/4.4.3/32/crtbegin.o
 .rel.text._ZNSt8ios_base7failureD1Ev
                0x0000000000000000        0x0 /home/jfb/nacl_sdk/pepper_42/toolchain/linux_x86_newlib/bin/../lib/gcc/x86_64-nacl/4.4.3/32/crtbegin.o
 .rel.text._ZNSt8ios_base7failureD2Ev
                0x0000000000000000        0x0 /home/jfb/nacl_sdk/pepper_42/toolchain/linux_x86_newlib/bin/../lib/gcc/x86_64-nacl/4.4.3/32/crtbegin.o
 .rel.text._ZNSt13runtime_errorC1ERKSs
                0x0000000000000000        0x0 /home/jfb/nacl_sdk/pepper_42/toolchain/linux_x86_newlib/bin/../lib/gcc/x86_64-nacl/4.4.3/32/crtbegin.o
 .rel.text._ZNSt13runtime_errorC2ERKSs
                0x0000000000000000        0x0 /home/jfb/nacl_sdk/pepper_42/toolchain/linux_x86_newlib/bin/../lib/gcc/x86_64-nacl/4.4.3/32/crtbegin.o
 .rel.text._ZNSt15underflow_errorC1ERKSs
                0x0000000000000000        0x0 /home/jfb/nacl_sdk/pepper_42/toolchain/linux_x86_newlib/bin/../lib/gcc/x86_64-nacl/4.4.3/32/crtbegin.o
 .rel.text._ZNSt15underflow_errorC2ERKSs
                0x0000000000000000        0x0 /home/jfb/nacl_sdk/pepper_42/toolchain/linux_x86_newlib/bin/../lib/gcc/x86_64-nacl/4.4.3/32/crtbegin.o
 .rel.text._ZNSt14overflow_errorC1ERKSs
                0x0000000000000000        0x0 /home/jfb/nacl_sdk/pepper_42/toolchain/linux_x86_newlib/bin/../lib/gcc/x86_64-nacl/4.4.3/32/crtbegin.o
 .rel.text._ZNSt14overflow_errorC2ERKSs
                0x0000000000000000        0x0 /home/jfb/nacl_sdk/pepper_42/toolchain/linux_x86_newlib/bin/../lib/gcc/x86_64-nacl/4.4.3/32/crtbegin.o
 .rel.text._ZNSt11range_errorC1ERKSs
                0x0000000000000000        0x0 /home/jfb/nacl_sdk/pepper_42/toolchain/linux_x86_newlib/bin/../lib/gcc/x86_64-nacl/4.4.3/32/crtbegin.o
 .rel.text._ZNSt11range_errorC2ERKSs
                0x0000000000000000        0x0 /home/jfb/nacl_sdk/pepper_42/toolchain/linux_x86_newlib/bin/../lib/gcc/x86_64-nacl/4.4.3/32/crtbegin.o
 .rel.text._ZNSt11logic_errorC1ERKSs
                0x0000000000000000        0x0 /home/jfb/nacl_sdk/pepper_42/toolchain/linux_x86_newlib/bin/../lib/gcc/x86_64-nacl/4.4.3/32/crtbegin.o
 .rel.text._ZNSt11logic_errorC2ERKSs
                0x0000000000000000        0x0 /home/jfb/nacl_sdk/pepper_42/toolchain/linux_x86_newlib/bin/../lib/gcc/x86_64-nacl/4.4.3/32/crtbegin.o
 .rel.text._ZNSt12out_of_rangeC1ERKSs
                0x0000000000000000        0x0 /home/jfb/nacl_sdk/pepper_42/toolchain/linux_x86_newlib/bin/../lib/gcc/x86_64-nacl/4.4.3/32/crtbegin.o
 .rel.text._ZNSt12out_of_rangeC2ERKSs
                0x0000000000000000        0x0 /home/jfb/nacl_sdk/pepper_42/toolchain/linux_x86_newlib/bin/../lib/gcc/x86_64-nacl/4.4.3/32/crtbegin.o
 .rel.text._ZNSt12length_errorC1ERKSs
                0x0000000000000000        0x0 /home/jfb/nacl_sdk/pepper_42/toolchain/linux_x86_newlib/bin/../lib/gcc/x86_64-nacl/4.4.3/32/crtbegin.o
 .rel.text._ZNSt12length_errorC2ERKSs
                0x0000000000000000        0x0 /home/jfb/nacl_sdk/pepper_42/toolchain/linux_x86_newlib/bin/../lib/gcc/x86_64-nacl/4.4.3/32/crtbegin.o
 .rel.text._ZNSt16invalid_argumentC1ERKSs
                0x0000000000000000        0x0 /home/jfb/nacl_sdk/pepper_42/toolchain/linux_x86_newlib/bin/../lib/gcc/x86_64-nacl/4.4.3/32/crtbegin.o
 .rel.text._ZNSt16invalid_argumentC2ERKSs
                0x0000000000000000        0x0 /home/jfb/nacl_sdk/pepper_42/toolchain/linux_x86_newlib/bin/../lib/gcc/x86_64-nacl/4.4.3/32/crtbegin.o
 .rel.text._ZNSt12domain_errorC1ERKSs
                0x0000000000000000        0x0 /home/jfb/nacl_sdk/pepper_42/toolchain/linux_x86_newlib/bin/../lib/gcc/x86_64-nacl/4.4.3/32/crtbegin.o
 .rel.text._ZNSt12domain_errorC2ERKSs
                0x0000000000000000        0x0 /home/jfb/nacl_sdk/pepper_42/toolchain/linux_x86_newlib/bin/../lib/gcc/x86_64-nacl/4.4.3/32/crtbegin.o
 .rel.text._ZNSt13runtime_errorD2Ev
                0x0000000000000000        0x0 /home/jfb/nacl_sdk/pepper_42/toolchain/linux_x86_newlib/bin/../lib/gcc/x86_64-nacl/4.4.3/32/crtbegin.o
 .rel.text._ZNSt11logic_errorD1Ev
                0x0000000000000000        0x0 /home/jfb/nacl_sdk/pepper_42/toolchain/linux_x86_newlib/bin/../lib/gcc/x86_64-nacl/4.4.3/32/crtbegin.o
 .rel.text._ZNSt11logic_errorD2Ev
                0x0000000000000000        0x0 /home/jfb/nacl_sdk/pepper_42/toolchain/linux_x86_newlib/bin/../lib/gcc/x86_64-nacl/4.4.3/32/crtbegin.o
 .rel.text._ZNSt13runtime_errorD0Ev
                0x0000000000000000        0x0 /home/jfb/nacl_sdk/pepper_42/toolchain/linux_x86_newlib/bin/../lib/gcc/x86_64-nacl/4.4.3/32/crtbegin.o
 .rel.text._ZNSt13runtime_errorD1Ev
                0x0000000000000000        0x0 /home/jfb/nacl_sdk/pepper_42/toolchain/linux_x86_newlib/bin/../lib/gcc/x86_64-nacl/4.4.3/32/crtbegin.o
 .rel.text._ZNSt11logic_errorD0Ev
                0x0000000000000000        0x0 /home/jfb/nacl_sdk/pepper_42/toolchain/linux_x86_newlib/bin/../lib/gcc/x86_64-nacl/4.4.3/32/crtbegin.o
 .rel.text._ZNSt14error_categoryD1Ev
                0x0000000000000000        0x0 /home/jfb/nacl_sdk/pepper_42/toolchain/linux_x86_newlib/bin/../lib/gcc/x86_64-nacl/4.4.3/32/crtbegin.o
 .rel.text._ZN12_GLOBAL__N_122generic_error_categoryD1Ev
                0x0000000000000000        0x0 /home/jfb/nacl_sdk/pepper_42/toolchain/linux_x86_newlib/bin/../lib/gcc/x86_64-nacl/4.4.3/32/crtbegin.o
 .rel.text._ZN12_GLOBAL__N_121system_error_categoryD1Ev
                0x0000000000000000        0x0 /home/jfb/nacl_sdk/pepper_42/toolchain/linux_x86_newlib/bin/../lib/gcc/x86_64-nacl/4.4.3/32/crtbegin.o
 .rel.text._ZNSt14error_categoryD0Ev
                0x0000000000000000        0x0 /home/jfb/nacl_sdk/pepper_42/toolchain/linux_x86_newlib/bin/../lib/gcc/x86_64-nacl/4.4.3/32/crtbegin.o
 .rel.text._ZN12_GLOBAL__N_122generic_error_categoryD0Ev
                0x0000000000000000        0x0 /home/jfb/nacl_sdk/pepper_42/toolchain/linux_x86_newlib/bin/../lib/gcc/x86_64-nacl/4.4.3/32/crtbegin.o
 .rel.text._ZN12_GLOBAL__N_121system_error_categoryD0Ev
                0x0000000000000000        0x0 /home/jfb/nacl_sdk/pepper_42/toolchain/linux_x86_newlib/bin/../lib/gcc/x86_64-nacl/4.4.3/32/crtbegin.o
 .rel.text._GLOBAL__I__ZSt15system_categoryv
                0x0000000000000000        0x0 /home/jfb/nacl_sdk/pepper_42/toolchain/linux_x86_newlib/bin/../lib/gcc/x86_64-nacl/4.4.3/32/crtbegin.o
 .rel.text._ZNK12_GLOBAL__N_122generic_error_category7messageEi
                0x0000000000000000        0x0 /home/jfb/nacl_sdk/pepper_42/toolchain/linux_x86_newlib/bin/../lib/gcc/x86_64-nacl/4.4.3/32/crtbegin.o
 .rel.text._ZNK12_GLOBAL__N_121system_error_category7messageEi
                0x0000000000000000        0x0 /home/jfb/nacl_sdk/pepper_42/toolchain/linux_x86_newlib/bin/../lib/gcc/x86_64-nacl/4.4.3/32/crtbegin.o
 .rel.text._ZNSt12system_errorD0Ev
                0x0000000000000000        0x0 /home/jfb/nacl_sdk/pepper_42/toolchain/linux_x86_newlib/bin/../lib/gcc/x86_64-nacl/4.4.3/32/crtbegin.o
 .rel.text._ZNSt12system_errorD1Ev
                0x0000000000000000        0x0 /home/jfb/nacl_sdk/pepper_42/toolchain/linux_x86_newlib/bin/../lib/gcc/x86_64-nacl/4.4.3/32/crtbegin.o
 .rel.text._ZNSt12system_errorD2Ev
                0x0000000000000000        0x0 /home/jfb/nacl_sdk/pepper_42/toolchain/linux_x86_newlib/bin/../lib/gcc/x86_64-nacl/4.4.3/32/crtbegin.o
 .rel.text._ZNSt10bad_typeidD1Ev
                0x0000000000000000        0x0 /home/jfb/nacl_sdk/pepper_42/toolchain/linux_x86_newlib/bin/../lib/gcc/x86_64-nacl/4.4.3/32/crtbegin.o
 .rel.text._ZNSt10bad_typeidD2Ev
                0x0000000000000000        0x0 /home/jfb/nacl_sdk/pepper_42/toolchain/linux_x86_newlib/bin/../lib/gcc/x86_64-nacl/4.4.3/32/crtbegin.o
 .rel.text._ZNSt10bad_typeidD0Ev
                0x0000000000000000        0x0 /home/jfb/nacl_sdk/pepper_42/toolchain/linux_x86_newlib/bin/../lib/gcc/x86_64-nacl/4.4.3/32/crtbegin.o
 .rel.text._ZNSt9bad_allocD1Ev
                0x0000000000000000        0x0 /home/jfb/nacl_sdk/pepper_42/toolchain/linux_x86_newlib/bin/../lib/gcc/x86_64-nacl/4.4.3/32/crtbegin.o
 .rel.text._ZNSt9bad_allocD2Ev
                0x0000000000000000        0x0 /home/jfb/nacl_sdk/pepper_42/toolchain/linux_x86_newlib/bin/../lib/gcc/x86_64-nacl/4.4.3/32/crtbegin.o
 .rel.text._ZNSt9bad_allocD0Ev
                0x0000000000000000        0x0 /home/jfb/nacl_sdk/pepper_42/toolchain/linux_x86_newlib/bin/../lib/gcc/x86_64-nacl/4.4.3/32/crtbegin.o
 .rel.text._ZNSt8bad_castD1Ev
                0x0000000000000000        0x0 /home/jfb/nacl_sdk/pepper_42/toolchain/linux_x86_newlib/bin/../lib/gcc/x86_64-nacl/4.4.3/32/crtbegin.o
 .rel.text._ZNSt8bad_castD2Ev
                0x0000000000000000        0x0 /home/jfb/nacl_sdk/pepper_42/toolchain/linux_x86_newlib/bin/../lib/gcc/x86_64-nacl/4.4.3/32/crtbegin.o
 .rel.text._ZNSt8bad_castD0Ev
                0x0000000000000000        0x0 /home/jfb/nacl_sdk/pepper_42/toolchain/linux_x86_newlib/bin/../lib/gcc/x86_64-nacl/4.4.3/32/crtbegin.o
 .rel.text._ZN9__gnu_cxx27__verbose_terminate_handlerEv
                0x0000000000000000        0x0 /home/jfb/nacl_sdk/pepper_42/toolchain/linux_x86_newlib/bin/../lib/gcc/x86_64-nacl/4.4.3/32/crtbegin.o
 *(.rel.fini)
 *(.rel.rodata .rel.rodata.* .rel.gnu.linkonce.r.*)
 .rel.rodata._ZTV6Module
                0x0000000000000000        0x0 /home/jfb/nacl_sdk/pepper_42/toolchain/linux_x86_newlib/bin/../lib/gcc/x86_64-nacl/4.4.3/32/crtbegin.o
 .rel.rodata._ZTI6Module
                0x0000000000000000        0x0 /home/jfb/nacl_sdk/pepper_42/toolchain/linux_x86_newlib/bin/../lib/gcc/x86_64-nacl/4.4.3/32/crtbegin.o
 .rel.rodata._ZTV8Instance
                0x0000000000000000        0x0 /home/jfb/nacl_sdk/pepper_42/toolchain/linux_x86_newlib/bin/../lib/gcc/x86_64-nacl/4.4.3/32/crtbegin.o
 .rel.rodata._ZTI8Instance
                0x0000000000000000        0x0 /home/jfb/nacl_sdk/pepper_42/toolchain/linux_x86_newlib/bin/../lib/gcc/x86_64-nacl/4.4.3/32/crtbegin.o
 .rel.rodata._ZTVN2pp8InstanceE
                0x0000000000000000        0x0 /home/jfb/nacl_sdk/pepper_42/toolchain/linux_x86_newlib/bin/../lib/gcc/x86_64-nacl/4.4.3/32/crtbegin.o
 .rel.rodata._ZTIN2pp8InstanceE
                0x0000000000000000        0x0 /home/jfb/nacl_sdk/pepper_42/toolchain/linux_x86_newlib/bin/../lib/gcc/x86_64-nacl/4.4.3/32/crtbegin.o
 .rel.rodata._ZTVN2pp6ModuleE
                0x0000000000000000        0x0 /home/jfb/nacl_sdk/pepper_42/toolchain/linux_x86_newlib/bin/../lib/gcc/x86_64-nacl/4.4.3/32/crtbegin.o
 .rel.rodata._ZTIN2pp6ModuleE
                0x0000000000000000        0x0 /home/jfb/nacl_sdk/pepper_42/toolchain/linux_x86_newlib/bin/../lib/gcc/x86_64-nacl/4.4.3/32/crtbegin.o
 .rel.rodata._ZTVN2pp9URLLoaderE
                0x0000000000000000        0x0 /home/jfb/nacl_sdk/pepper_42/toolchain/linux_x86_newlib/bin/../lib/gcc/x86_64-nacl/4.4.3/32/crtbegin.o
 .rel.rodata._ZTIN2pp9URLLoaderE
                0x0000000000000000        0x0 /home/jfb/nacl_sdk/pepper_42/toolchain/linux_x86_newlib/bin/../lib/gcc/x86_64-nacl/4.4.3/32/crtbegin.o
 .rel.rodata._ZTVN2pp4ViewE
                0x0000000000000000        0x0 /home/jfb/nacl_sdk/pepper_42/toolchain/linux_x86_newlib/bin/../lib/gcc/x86_64-nacl/4.4.3/32/crtbegin.o
 .rel.rodata._ZTIN2pp4ViewE
                0x0000000000000000        0x0 /home/jfb/nacl_sdk/pepper_42/toolchain/linux_x86_newlib/bin/../lib/gcc/x86_64-nacl/4.4.3/32/crtbegin.o
 .rel.rodata._ZTVN2pp8ResourceE
                0x0000000000000000        0x0 /home/jfb/nacl_sdk/pepper_42/toolchain/linux_x86_newlib/bin/../lib/gcc/x86_64-nacl/4.4.3/32/crtbegin.o
 .rel.rodata._ZTIN2pp8ResourceE
                0x0000000000000000        0x0 /home/jfb/nacl_sdk/pepper_42/toolchain/linux_x86_newlib/bin/../lib/gcc/x86_64-nacl/4.4.3/32/crtbegin.o
 .rel.rodata._ZTVN2pp15URLResponseInfoE
                0x0000000000000000        0x0 /home/jfb/nacl_sdk/pepper_42/toolchain/linux_x86_newlib/bin/../lib/gcc/x86_64-nacl/4.4.3/32/crtbegin.o
 .rel.rodata._ZTIN2pp15URLResponseInfoE
                0x0000000000000000        0x0 /home/jfb/nacl_sdk/pepper_42/toolchain/linux_x86_newlib/bin/../lib/gcc/x86_64-nacl/4.4.3/32/crtbegin.o
 .rel.rodata._ZTVN2pp7FileRefE
                0x0000000000000000        0x0 /home/jfb/nacl_sdk/pepper_42/toolchain/linux_x86_newlib/bin/../lib/gcc/x86_64-nacl/4.4.3/32/crtbegin.o
 .rel.rodata._ZTIN2pp7FileRefE
                0x0000000000000000        0x0 /home/jfb/nacl_sdk/pepper_42/toolchain/linux_x86_newlib/bin/../lib/gcc/x86_64-nacl/4.4.3/32/crtbegin.o
 .rel.rodata._ZTVN2pp3VarE
                0x0000000000000000        0x0 /home/jfb/nacl_sdk/pepper_42/toolchain/linux_x86_newlib/bin/../lib/gcc/x86_64-nacl/4.4.3/32/crtbegin.o
 .rel.rodata._ZTIN2pp3VarE
                0x0000000000000000        0x0 /home/jfb/nacl_sdk/pepper_42/toolchain/linux_x86_newlib/bin/../lib/gcc/x86_64-nacl/4.4.3/32/crtbegin.o
 .rel.rodata._ZTVN2pp10InputEventE
                0x0000000000000000        0x0 /home/jfb/nacl_sdk/pepper_42/toolchain/linux_x86_newlib/bin/../lib/gcc/x86_64-nacl/4.4.3/32/crtbegin.o
 .rel.rodata._ZTIN2pp10InputEventE
                0x0000000000000000        0x0 /home/jfb/nacl_sdk/pepper_42/toolchain/linux_x86_newlib/bin/../lib/gcc/x86_64-nacl/4.4.3/32/crtbegin.o
 .rel.rodata._ZTVN2pp13IMEInputEventE
                0x0000000000000000        0x0 /home/jfb/nacl_sdk/pepper_42/toolchain/linux_x86_newlib/bin/../lib/gcc/x86_64-nacl/4.4.3/32/crtbegin.o
 .rel.rodata._ZTIN2pp13IMEInputEventE
                0x0000000000000000        0x0 /home/jfb/nacl_sdk/pepper_42/toolchain/linux_x86_newlib/bin/../lib/gcc/x86_64-nacl/4.4.3/32/crtbegin.o
 .rel.rodata._ZTVN2pp15TouchInputEventE
                0x0000000000000000        0x0 /home/jfb/nacl_sdk/pepper_42/toolchain/linux_x86_newlib/bin/../lib/gcc/x86_64-nacl/4.4.3/32/crtbegin.o
 .rel.rodata._ZTIN2pp15TouchInputEventE
                0x0000000000000000        0x0 /home/jfb/nacl_sdk/pepper_42/toolchain/linux_x86_newlib/bin/../lib/gcc/x86_64-nacl/4.4.3/32/crtbegin.o
 .rel.rodata._ZTVN2pp18KeyboardInputEventE
                0x0000000000000000        0x0 /home/jfb/nacl_sdk/pepper_42/toolchain/linux_x86_newlib/bin/../lib/gcc/x86_64-nacl/4.4.3/32/crtbegin.o
 .rel.rodata._ZTIN2pp18KeyboardInputEventE
                0x0000000000000000        0x0 /home/jfb/nacl_sdk/pepper_42/toolchain/linux_x86_newlib/bin/../lib/gcc/x86_64-nacl/4.4.3/32/crtbegin.o
 .rel.rodata._ZTVN2pp15WheelInputEventE
                0x0000000000000000        0x0 /home/jfb/nacl_sdk/pepper_42/toolchain/linux_x86_newlib/bin/../lib/gcc/x86_64-nacl/4.4.3/32/crtbegin.o
 .rel.rodata._ZTIN2pp15WheelInputEventE
                0x0000000000000000        0x0 /home/jfb/nacl_sdk/pepper_42/toolchain/linux_x86_newlib/bin/../lib/gcc/x86_64-nacl/4.4.3/32/crtbegin.o
 .rel.rodata._ZTVN2pp15MouseInputEventE
                0x0000000000000000        0x0 /home/jfb/nacl_sdk/pepper_42/toolchain/linux_x86_newlib/bin/../lib/gcc/x86_64-nacl/4.4.3/32/crtbegin.o
 .rel.rodata._ZTIN2pp15MouseInputEventE
                0x0000000000000000        0x0 /home/jfb/nacl_sdk/pepper_42/toolchain/linux_x86_newlib/bin/../lib/gcc/x86_64-nacl/4.4.3/32/crtbegin.o
 .rel.rodata._ZTVN9__gnu_cxx20recursive_init_errorE
                0x0000000000000000        0x0 /home/jfb/nacl_sdk/pepper_42/toolchain/linux_x86_newlib/bin/../lib/gcc/x86_64-nacl/4.4.3/32/crtbegin.o
 .rel.rodata._ZTIN9__gnu_cxx20recursive_init_errorE
                0x0000000000000000        0x0 /home/jfb/nacl_sdk/pepper_42/toolchain/linux_x86_newlib/bin/../lib/gcc/x86_64-nacl/4.4.3/32/crtbegin.o
 .rel.rodata._ZTIN9__gnu_cxx26__concurrence_unlock_errorE
                0x0000000000000000        0x0 /home/jfb/nacl_sdk/pepper_42/toolchain/linux_x86_newlib/bin/../lib/gcc/x86_64-nacl/4.4.3/32/crtbegin.o
 .rel.rodata._ZTVN9__gnu_cxx26__concurrence_unlock_errorE
                0x0000000000000000        0x0 /home/jfb/nacl_sdk/pepper_42/toolchain/linux_x86_newlib/bin/../lib/gcc/x86_64-nacl/4.4.3/32/crtbegin.o
 .rel.rodata._ZTIN9__gnu_cxx24__concurrence_lock_errorE
                0x0000000000000000        0x0 /home/jfb/nacl_sdk/pepper_42/toolchain/linux_x86_newlib/bin/../lib/gcc/x86_64-nacl/4.4.3/32/crtbegin.o
 .rel.rodata._ZTVN9__gnu_cxx24__concurrence_lock_errorE
                0x0000000000000000        0x0 /home/jfb/nacl_sdk/pepper_42/toolchain/linux_x86_newlib/bin/../lib/gcc/x86_64-nacl/4.4.3/32/crtbegin.o
 .rel.rodata._ZTVN10__cxxabiv120__si_class_type_infoE
                0x0000000000000000        0x0 /home/jfb/nacl_sdk/pepper_42/toolchain/linux_x86_newlib/bin/../lib/gcc/x86_64-nacl/4.4.3/32/crtbegin.o
 .rel.rodata._ZTIN10__cxxabiv120__si_class_type_infoE
                0x0000000000000000        0x0 /home/jfb/nacl_sdk/pepper_42/toolchain/linux_x86_newlib/bin/../lib/gcc/x86_64-nacl/4.4.3/32/crtbegin.o
 .rel.rodata._ZTVN10__cxxabiv117__class_type_infoE
                0x0000000000000000        0x0 /home/jfb/nacl_sdk/pepper_42/toolchain/linux_x86_newlib/bin/../lib/gcc/x86_64-nacl/4.4.3/32/crtbegin.o
 .rel.rodata._ZTIN10__cxxabiv117__class_type_infoE
                0x0000000000000000        0x0 /home/jfb/nacl_sdk/pepper_42/toolchain/linux_x86_newlib/bin/../lib/gcc/x86_64-nacl/4.4.3/32/crtbegin.o
 .rel.rodata._ZTVN10__cxxabiv119__foreign_exceptionE
                0x0000000000000000        0x0 /home/jfb/nacl_sdk/pepper_42/toolchain/linux_x86_newlib/bin/../lib/gcc/x86_64-nacl/4.4.3/32/crtbegin.o
 .rel.rodata._ZTVN10__cxxabiv115__forced_unwindE
                0x0000000000000000        0x0 /home/jfb/nacl_sdk/pepper_42/toolchain/linux_x86_newlib/bin/../lib/gcc/x86_64-nacl/4.4.3/32/crtbegin.o
 .rel.rodata._ZTVSt13bad_exception
                0x0000000000000000        0x0 /home/jfb/nacl_sdk/pepper_42/toolchain/linux_x86_newlib/bin/../lib/gcc/x86_64-nacl/4.4.3/32/crtbegin.o
 .rel.rodata._ZTVSt9exception
                0x0000000000000000        0x0 /home/jfb/nacl_sdk/pepper_42/toolchain/linux_x86_newlib/bin/../lib/gcc/x86_64-nacl/4.4.3/32/crtbegin.o
 .rel.rodata._ZTIN10__cxxabiv119__foreign_exceptionE
                0x0000000000000000        0x0 /home/jfb/nacl_sdk/pepper_42/toolchain/linux_x86_newlib/bin/../lib/gcc/x86_64-nacl/4.4.3/32/crtbegin.o
 .rel.rodata._ZTIN10__cxxabiv115__forced_unwindE
                0x0000000000000000        0x0 /home/jfb/nacl_sdk/pepper_42/toolchain/linux_x86_newlib/bin/../lib/gcc/x86_64-nacl/4.4.3/32/crtbegin.o
 .rel.rodata._ZTISt13bad_exception
                0x0000000000000000        0x0 /home/jfb/nacl_sdk/pepper_42/toolchain/linux_x86_newlib/bin/../lib/gcc/x86_64-nacl/4.4.3/32/crtbegin.o
 .rel.rodata._ZTISt9exception
                0x0000000000000000        0x0 /home/jfb/nacl_sdk/pepper_42/toolchain/linux_x86_newlib/bin/../lib/gcc/x86_64-nacl/4.4.3/32/crtbegin.o
 .rel.rodata._ZTVSt9type_info
                0x0000000000000000        0x0 /home/jfb/nacl_sdk/pepper_42/toolchain/linux_x86_newlib/bin/../lib/gcc/x86_64-nacl/4.4.3/32/crtbegin.o
 .rel.rodata._ZTISt9type_info
                0x0000000000000000        0x0 /home/jfb/nacl_sdk/pepper_42/toolchain/linux_x86_newlib/bin/../lib/gcc/x86_64-nacl/4.4.3/32/crtbegin.o
 .rel.rodata._ZTISt15underflow_error
                0x0000000000000000        0x0 /home/jfb/nacl_sdk/pepper_42/toolchain/linux_x86_newlib/bin/../lib/gcc/x86_64-nacl/4.4.3/32/crtbegin.o
 .rel.rodata._ZTVSt15underflow_error
                0x0000000000000000        0x0 /home/jfb/nacl_sdk/pepper_42/toolchain/linux_x86_newlib/bin/../lib/gcc/x86_64-nacl/4.4.3/32/crtbegin.o
 .rel.rodata._ZTISt14overflow_error
                0x0000000000000000        0x0 /home/jfb/nacl_sdk/pepper_42/toolchain/linux_x86_newlib/bin/../lib/gcc/x86_64-nacl/4.4.3/32/crtbegin.o
 .rel.rodata._ZTVSt14overflow_error
                0x0000000000000000        0x0 /home/jfb/nacl_sdk/pepper_42/toolchain/linux_x86_newlib/bin/../lib/gcc/x86_64-nacl/4.4.3/32/crtbegin.o
 .rel.rodata._ZTISt11range_error
                0x0000000000000000        0x0 /home/jfb/nacl_sdk/pepper_42/toolchain/linux_x86_newlib/bin/../lib/gcc/x86_64-nacl/4.4.3/32/crtbegin.o
 .rel.rodata._ZTVSt11range_error
                0x0000000000000000        0x0 /home/jfb/nacl_sdk/pepper_42/toolchain/linux_x86_newlib/bin/../lib/gcc/x86_64-nacl/4.4.3/32/crtbegin.o
 .rel.rodata._ZTISt12out_of_range
                0x0000000000000000        0x0 /home/jfb/nacl_sdk/pepper_42/toolchain/linux_x86_newlib/bin/../lib/gcc/x86_64-nacl/4.4.3/32/crtbegin.o
 .rel.rodata._ZTVSt12out_of_range
                0x0000000000000000        0x0 /home/jfb/nacl_sdk/pepper_42/toolchain/linux_x86_newlib/bin/../lib/gcc/x86_64-nacl/4.4.3/32/crtbegin.o
 .rel.rodata._ZTISt12length_error
                0x0000000000000000        0x0 /home/jfb/nacl_sdk/pepper_42/toolchain/linux_x86_newlib/bin/../lib/gcc/x86_64-nacl/4.4.3/32/crtbegin.o
 .rel.rodata._ZTVSt12length_error
                0x0000000000000000        0x0 /home/jfb/nacl_sdk/pepper_42/toolchain/linux_x86_newlib/bin/../lib/gcc/x86_64-nacl/4.4.3/32/crtbegin.o
 .rel.rodata._ZTISt16invalid_argument
                0x0000000000000000        0x0 /home/jfb/nacl_sdk/pepper_42/toolchain/linux_x86_newlib/bin/../lib/gcc/x86_64-nacl/4.4.3/32/crtbegin.o
 .rel.rodata._ZTVSt16invalid_argument
                0x0000000000000000        0x0 /home/jfb/nacl_sdk/pepper_42/toolchain/linux_x86_newlib/bin/../lib/gcc/x86_64-nacl/4.4.3/32/crtbegin.o
 .rel.rodata._ZTISt12domain_error
                0x0000000000000000        0x0 /home/jfb/nacl_sdk/pepper_42/toolchain/linux_x86_newlib/bin/../lib/gcc/x86_64-nacl/4.4.3/32/crtbegin.o
 .rel.rodata._ZTVSt12domain_error
                0x0000000000000000        0x0 /home/jfb/nacl_sdk/pepper_42/toolchain/linux_x86_newlib/bin/../lib/gcc/x86_64-nacl/4.4.3/32/crtbegin.o
 .rel.rodata._ZTVNSt8ios_base7failureE
                0x0000000000000000        0x0 /home/jfb/nacl_sdk/pepper_42/toolchain/linux_x86_newlib/bin/../lib/gcc/x86_64-nacl/4.4.3/32/crtbegin.o
 .rel.rodata._ZTINSt8ios_base7failureE
                0x0000000000000000        0x0 /home/jfb/nacl_sdk/pepper_42/toolchain/linux_x86_newlib/bin/../lib/gcc/x86_64-nacl/4.4.3/32/crtbegin.o
 .rel.rodata._ZTVSt13runtime_error
                0x0000000000000000        0x0 /home/jfb/nacl_sdk/pepper_42/toolchain/linux_x86_newlib/bin/../lib/gcc/x86_64-nacl/4.4.3/32/crtbegin.o
 .rel.rodata._ZTVSt11logic_error
                0x0000000000000000        0x0 /home/jfb/nacl_sdk/pepper_42/toolchain/linux_x86_newlib/bin/../lib/gcc/x86_64-nacl/4.4.3/32/crtbegin.o
 .rel.rodata._ZTISt13runtime_error
                0x0000000000000000        0x0 /home/jfb/nacl_sdk/pepper_42/toolchain/linux_x86_newlib/bin/../lib/gcc/x86_64-nacl/4.4.3/32/crtbegin.o
 .rel.rodata._ZTISt11logic_error
                0x0000000000000000        0x0 /home/jfb/nacl_sdk/pepper_42/toolchain/linux_x86_newlib/bin/../lib/gcc/x86_64-nacl/4.4.3/32/crtbegin.o
 .rel.rodata._ZTVSt14error_category
                0x0000000000000000        0x0 /home/jfb/nacl_sdk/pepper_42/toolchain/linux_x86_newlib/bin/../lib/gcc/x86_64-nacl/4.4.3/32/crtbegin.o
 .rel.rodata._ZTVSt12system_error
                0x0000000000000000        0x0 /home/jfb/nacl_sdk/pepper_42/toolchain/linux_x86_newlib/bin/../lib/gcc/x86_64-nacl/4.4.3/32/crtbegin.o
 .rel.rodata._ZTISt12system_error
                0x0000000000000000        0x0 /home/jfb/nacl_sdk/pepper_42/toolchain/linux_x86_newlib/bin/../lib/gcc/x86_64-nacl/4.4.3/32/crtbegin.o
 .rel.rodata._ZTISt14error_category
                0x0000000000000000        0x0 /home/jfb/nacl_sdk/pepper_42/toolchain/linux_x86_newlib/bin/../lib/gcc/x86_64-nacl/4.4.3/32/crtbegin.o
 .rel.rodata._ZTIN12_GLOBAL__N_122generic_error_categoryE
                0x0000000000000000        0x0 /home/jfb/nacl_sdk/pepper_42/toolchain/linux_x86_newlib/bin/../lib/gcc/x86_64-nacl/4.4.3/32/crtbegin.o
 .rel.rodata._ZTIN12_GLOBAL__N_121system_error_categoryE
                0x0000000000000000        0x0 /home/jfb/nacl_sdk/pepper_42/toolchain/linux_x86_newlib/bin/../lib/gcc/x86_64-nacl/4.4.3/32/crtbegin.o
 .rel.rodata._ZTVSt10bad_typeid
                0x0000000000000000        0x0 /home/jfb/nacl_sdk/pepper_42/toolchain/linux_x86_newlib/bin/../lib/gcc/x86_64-nacl/4.4.3/32/crtbegin.o
 .rel.rodata._ZTISt10bad_typeid
                0x0000000000000000        0x0 /home/jfb/nacl_sdk/pepper_42/toolchain/linux_x86_newlib/bin/../lib/gcc/x86_64-nacl/4.4.3/32/crtbegin.o
 .rel.rodata._ZTVSt9bad_alloc
                0x0000000000000000        0x0 /home/jfb/nacl_sdk/pepper_42/toolchain/linux_x86_newlib/bin/../lib/gcc/x86_64-nacl/4.4.3/32/crtbegin.o
 .rel.rodata._ZTISt9bad_alloc
                0x0000000000000000        0x0 /home/jfb/nacl_sdk/pepper_42/toolchain/linux_x86_newlib/bin/../lib/gcc/x86_64-nacl/4.4.3/32/crtbegin.o
 .rel.rodata._ZTVSt8bad_cast
                0x0000000000000000        0x0 /home/jfb/nacl_sdk/pepper_42/toolchain/linux_x86_newlib/bin/../lib/gcc/x86_64-nacl/4.4.3/32/crtbegin.o
 .rel.rodata._ZTISt8bad_cast
                0x0000000000000000        0x0 /home/jfb/nacl_sdk/pepper_42/toolchain/linux_x86_newlib/bin/../lib/gcc/x86_64-nacl/4.4.3/32/crtbegin.o
 *(.rel.data.rel.ro .rel.data.rel.ro.* .rel.gnu.linkonce.d.rel.ro.*)
 *(.rel.data .rel.data.* .rel.gnu.linkonce.d.*)
 .rel.data._ZN10__cxxabiv119__terminate_handlerE
                0x0000000000000000        0x0 /home/jfb/nacl_sdk/pepper_42/toolchain/linux_x86_newlib/bin/../lib/gcc/x86_64-nacl/4.4.3/32/crtbegin.o
 *(.rel.tdata .rel.tdata.* .rel.gnu.linkonce.td.*)
 *(.rel.tbss .rel.tbss.* .rel.gnu.linkonce.tb.*)
 *(.rel.ctors)
 *(.rel.dtors)
 *(.rel.got)
 .rel.got       0x0000000000000000        0x0 /home/jfb/nacl_sdk/pepper_42/toolchain/linux_x86_newlib/bin/../lib/gcc/x86_64-nacl/4.4.3/32/crtbegin.o
 *(.rel.bss .rel.bss.* .rel.gnu.linkonce.b.*)
 *(.rel.ifunc)
 .rel.eh_frame  0x0000000000000000        0x0 /home/jfb/nacl_sdk/pepper_42/toolchain/linux_x86_newlib/bin/../lib/gcc/x86_64-nacl/4.4.3/32/crtbegin.o
 .rel.gcc_except_table._Znwj
                0x0000000000000000        0x0 /home/jfb/nacl_sdk/pepper_42/toolchain/linux_x86_newlib/bin/../lib/gcc/x86_64-nacl/4.4.3/32/crtbegin.o
 .rel.gcc_except_table._ZN9__gnu_cxx27__verbose_terminate_handlerEv
                0x0000000000000000        0x0 /home/jfb/nacl_sdk/pepper_42/toolchain/linux_x86_newlib/bin/../lib/gcc/x86_64-nacl/4.4.3/32/crtbegin.o

.rel.plt        0x0000000010020138        0x0
 *(.rel.plt)
                0x0000000010020138                PROVIDE (__rel_iplt_start, .)
 *(.rel.iplt)
 .rel.iplt      0x0000000000000000        0x0 /home/jfb/nacl_sdk/pepper_42/toolchain/linux_x86_newlib/bin/../lib/gcc/x86_64-nacl/4.4.3/32/crtbegin.o
                0x0000000010020138                PROVIDE (__rel_iplt_end, .)

.rodata         0x0000000010020140     0x41b6
 *(.rodata .rodata.* .gnu.linkonce.r.*)
 .rodata.str1.1
                0x0000000010020140       0x17 newlib/Release/multi_platform_x86_32.o
 *fill*         0x0000000010020157        0x1 
 .rodata._ZTV6Module
                0x0000000010020158       0x18 newlib/Release/multi_platform_x86_32.o
                0x0000000010020158                _ZTV6Module
 .rodata._ZTI6Module
                0x0000000010020170        0xc newlib/Release/multi_platform_x86_32.o
                0x0000000010020170                _ZTI6Module
 .rodata._ZTS6Module
                0x000000001002017c        0x8 newlib/Release/multi_platform_x86_32.o
                0x000000001002017c                _ZTS6Module
 *fill*         0x0000000010020184       0x1c 
 .rodata._ZTV8Instance
                0x00000000100201a0       0x2c newlib/Release/multi_platform_x86_32.o
                0x00000000100201a0                _ZTV8Instance
 .rodata._ZTI8Instance
                0x00000000100201cc        0xc newlib/Release/multi_platform_x86_32.o
                0x00000000100201cc                _ZTI8Instance
 .rodata._ZTS8Instance
                0x00000000100201d8        0xa newlib/Release/multi_platform_x86_32.o
                0x00000000100201d8                _ZTS8Instance
 .rodata.str1.1
                0x00000000100201e2       0x58 /home/jfb/nacl_sdk/pepper_42//lib/newlib_x86_32/Release/libppapi_cpp.a(instance_x86_32.o)
 *fill*         0x000000001002023a        0x6 
 .rodata._ZTVN2pp8InstanceE
                0x0000000010020240       0x2c /home/jfb/nacl_sdk/pepper_42//lib/newlib_x86_32/Release/libppapi_cpp.a(instance_x86_32.o)
                0x0000000010020240                _ZTVN2pp8InstanceE
 .rodata._ZTSN2pp8InstanceE
                0x000000001002026c        0xf /home/jfb/nacl_sdk/pepper_42//lib/newlib_x86_32/Release/libppapi_cpp.a(instance_x86_32.o)
                0x000000001002026c                _ZTSN2pp8InstanceE
 *fill*         0x000000001002027b        0x1 
 .rodata._ZTIN2pp8InstanceE
                0x000000001002027c        0x8 /home/jfb/nacl_sdk/pepper_42//lib/newlib_x86_32/Release/libppapi_cpp.a(instance_x86_32.o)
                0x000000001002027c                _ZTIN2pp8InstanceE
 .rodata.str1.1
                0x0000000010020284       0x43 /home/jfb/nacl_sdk/pepper_42//lib/newlib_x86_32/Release/libppapi_cpp.a(module_x86_32.o)
 *fill*         0x00000000100202c7        0x1 
 .rodata._ZTVN2pp6ModuleE
                0x00000000100202c8       0x18 /home/jfb/nacl_sdk/pepper_42//lib/newlib_x86_32/Release/libppapi_cpp.a(module_x86_32.o)
                0x00000000100202c8                _ZTVN2pp6ModuleE
 .rodata._ZTSN2pp6ModuleE
                0x00000000100202e0        0xd /home/jfb/nacl_sdk/pepper_42//lib/newlib_x86_32/Release/libppapi_cpp.a(module_x86_32.o)
                0x00000000100202e0                _ZTSN2pp6ModuleE
 *fill*         0x00000000100202ed        0x3 
 .rodata._ZTIN2pp6ModuleE
                0x00000000100202f0        0x8 /home/jfb/nacl_sdk/pepper_42//lib/newlib_x86_32/Release/libppapi_cpp.a(module_x86_32.o)
                0x00000000100202f0                _ZTIN2pp6ModuleE
 .rodata        0x00000000100202f8        0x4 /home/jfb/nacl_sdk/pepper_42//lib/newlib_x86_32/Release/libppapi_cpp.a(module_x86_32.o)
 *fill*         0x00000000100202fc        0x4 
 .rodata._ZTVN2pp9URLLoaderE
                0x0000000010020300       0x10 /home/jfb/nacl_sdk/pepper_42//lib/newlib_x86_32/Release/libppapi_cpp.a(module_x86_32.o)
                0x0000000010020300                _ZTVN2pp9URLLoaderE
 .rodata._ZTIN2pp9URLLoaderE
                0x0000000010020310        0xc /home/jfb/nacl_sdk/pepper_42//lib/newlib_x86_32/Release/libppapi_cpp.a(module_x86_32.o)
                0x0000000010020310                _ZTIN2pp9URLLoaderE
 .rodata._ZTSN2pp9URLLoaderE
                0x000000001002031c       0x10 /home/jfb/nacl_sdk/pepper_42//lib/newlib_x86_32/Release/libppapi_cpp.a(module_x86_32.o)
                0x000000001002031c                _ZTSN2pp9URLLoaderE
 *fill*         0x000000001002032c        0x4 
 .rodata._ZTVN2pp4ViewE
                0x0000000010020330       0x10 /home/jfb/nacl_sdk/pepper_42//lib/newlib_x86_32/Release/libppapi_cpp.a(module_x86_32.o)
                0x0000000010020330                _ZTVN2pp4ViewE
 .rodata._ZTIN2pp4ViewE
                0x0000000010020340        0xc /home/jfb/nacl_sdk/pepper_42//lib/newlib_x86_32/Release/libppapi_cpp.a(module_x86_32.o)
                0x0000000010020340                _ZTIN2pp4ViewE
 .rodata._ZTSN2pp4ViewE
                0x000000001002034c        0xb /home/jfb/nacl_sdk/pepper_42//lib/newlib_x86_32/Release/libppapi_cpp.a(module_x86_32.o)
                0x000000001002034c                _ZTSN2pp4ViewE
 *fill*         0x0000000010020357        0x1 
 .rodata._ZTVN2pp8ResourceE
                0x0000000010020358       0x10 /home/jfb/nacl_sdk/pepper_42//lib/newlib_x86_32/Release/libppapi_cpp.a(resource_x86_32.o)
                0x0000000010020358                _ZTVN2pp8ResourceE
 .rodata._ZTSN2pp8ResourceE
                0x0000000010020368        0xf /home/jfb/nacl_sdk/pepper_42//lib/newlib_x86_32/Release/libppapi_cpp.a(resource_x86_32.o)
                0x0000000010020368                _ZTSN2pp8ResourceE
 *fill*         0x0000000010020377        0x1 
 .rodata._ZTIN2pp8ResourceE
                0x0000000010020378        0x8 /home/jfb/nacl_sdk/pepper_42//lib/newlib_x86_32/Release/libppapi_cpp.a(resource_x86_32.o)
                0x0000000010020378                _ZTIN2pp8ResourceE
 .rodata.str1.1
                0x0000000010020380       0x12 /home/jfb/nacl_sdk/pepper_42//lib/newlib_x86_32/Release/libppapi_cpp.a(url_loader_x86_32.o)
 *fill*         0x0000000010020392        0x6 
 .rodata._ZTVN2pp15URLResponseInfoE
                0x0000000010020398       0x10 /home/jfb/nacl_sdk/pepper_42//lib/newlib_x86_32/Release/libppapi_cpp.a(url_loader_x86_32.o)
                0x0000000010020398                _ZTVN2pp15URLResponseInfoE
 .rodata._ZTIN2pp15URLResponseInfoE
                0x00000000100203a8        0xc /home/jfb/nacl_sdk/pepper_42//lib/newlib_x86_32/Release/libppapi_cpp.a(url_loader_x86_32.o)
                0x00000000100203a8                _ZTIN2pp15URLResponseInfoE
 .rodata._ZTSN2pp15URLResponseInfoE
                0x00000000100203b4       0x17 /home/jfb/nacl_sdk/pepper_42//lib/newlib_x86_32/Release/libppapi_cpp.a(url_loader_x86_32.o)
                0x00000000100203b4                _ZTSN2pp15URLResponseInfoE
 .rodata.str1.1
                0x00000000100203cb       0x18 /home/jfb/nacl_sdk/pepper_42//lib/newlib_x86_32/Release/libppapi_cpp.a(url_response_info_x86_32.o)
 *fill*         0x00000000100203e3        0x5 
 .rodata._ZTVN2pp7FileRefE
                0x00000000100203e8       0x10 /home/jfb/nacl_sdk/pepper_42//lib/newlib_x86_32/Release/libppapi_cpp.a(url_response_info_x86_32.o)
                0x00000000100203e8                _ZTVN2pp7FileRefE
 .rodata._ZTIN2pp7FileRefE
                0x00000000100203f8        0xc /home/jfb/nacl_sdk/pepper_42//lib/newlib_x86_32/Release/libppapi_cpp.a(url_response_info_x86_32.o)
                0x00000000100203f8                _ZTIN2pp7FileRefE
 .rodata._ZTSN2pp7FileRefE
                0x0000000010020404        0xe /home/jfb/nacl_sdk/pepper_42//lib/newlib_x86_32/Release/libppapi_cpp.a(url_response_info_x86_32.o)
                0x0000000010020404                _ZTSN2pp7FileRefE
 .rodata.str1.1
                0x0000000010020412       0xad /home/jfb/nacl_sdk/pepper_42//lib/newlib_x86_32/Release/libppapi_cpp.a(var_x86_32.o)
 *fill*         0x00000000100204bf        0x1 
 .rodata        0x00000000100204c0       0x18 /home/jfb/nacl_sdk/pepper_42//lib/newlib_x86_32/Release/libppapi_cpp.a(var_x86_32.o)
 .rodata._ZTVN2pp3VarE
                0x00000000100204d8       0x14 /home/jfb/nacl_sdk/pepper_42//lib/newlib_x86_32/Release/libppapi_cpp.a(var_x86_32.o)
                0x00000000100204d8                _ZTVN2pp3VarE
 .rodata._ZTSN2pp3VarE
                0x00000000100204ec        0xa /home/jfb/nacl_sdk/pepper_42//lib/newlib_x86_32/Release/libppapi_cpp.a(var_x86_32.o)
                0x00000000100204ec                _ZTSN2pp3VarE
 *fill*         0x00000000100204f6        0x2 
 .rodata._ZTIN2pp3VarE
                0x00000000100204f8        0x8 /home/jfb/nacl_sdk/pepper_42//lib/newlib_x86_32/Release/libppapi_cpp.a(var_x86_32.o)
                0x00000000100204f8                _ZTIN2pp3VarE
 .rodata.str1.1
                0x0000000010020500       0x27 /home/jfb/nacl_sdk/pepper_42//lib/newlib_x86_32/Release/libppapi_cpp.a(view_x86_32.o)
 .rodata.str1.1
                0x0000000010020527       0x30 /home/jfb/nacl_sdk/pepper_42//lib/newlib_x86_32/Release/libppapi_cpp.a(file_ref_x86_32.o)
 .rodata.str1.1
                0x0000000010020557       0x94 /home/jfb/nacl_sdk/pepper_42//lib/newlib_x86_32/Release/libppapi_cpp.a(input_event_x86_32.o)
                                         0xa7 (size before relaxing)
 *fill*         0x00000000100205eb        0x5 
 .rodata._ZTVN2pp10InputEventE
                0x00000000100205f0       0x10 /home/jfb/nacl_sdk/pepper_42//lib/newlib_x86_32/Release/libppapi_cpp.a(input_event_x86_32.o)
                0x00000000100205f0                _ZTVN2pp10InputEventE
 .rodata._ZTSN2pp10InputEventE
                0x0000000010020600       0x12 /home/jfb/nacl_sdk/pepper_42//lib/newlib_x86_32/Release/libppapi_cpp.a(input_event_x86_32.o)
                0x0000000010020600                _ZTSN2pp10InputEventE
 *fill*         0x0000000010020612        0x2 
 .rodata._ZTIN2pp10InputEventE
                0x0000000010020614        0xc /home/jfb/nacl_sdk/pepper_42//lib/newlib_x86_32/Release/libppapi_cpp.a(input_event_x86_32.o)
                0x0000000010020614                _ZTIN2pp10InputEventE
 .rodata._ZTVN2pp13IMEInputEventE
                0x0000000010020620       0x10 /home/jfb/nacl_sdk/pepper_42//lib/newlib_x86_32/Release/libppapi_cpp.a(input_event_x86_32.o)
                0x0000000010020620                _ZTVN2pp13IMEInputEventE
 .rodata._ZTIN2pp13IMEInputEventE
                0x0000000010020630        0xc /home/jfb/nacl_sdk/pepper_42//lib/newlib_x86_32/Release/libppapi_cpp.a(input_event_x86_32.o)
                0x0000000010020630                _ZTIN2pp13IMEInputEventE
 .rodata._ZTSN2pp13IMEInputEventE
                0x000000001002063c       0x15 /home/jfb/nacl_sdk/pepper_42//lib/newlib_x86_32/Release/libppapi_cpp.a(input_event_x86_32.o)
                0x000000001002063c                _ZTSN2pp13IMEInputEventE
 *fill*         0x0000000010020651        0x7 
 .rodata._ZTVN2pp15TouchInputEventE
                0x0000000010020658       0x10 /home/jfb/nacl_sdk/pepper_42//lib/newlib_x86_32/Release/libppapi_cpp.a(input_event_x86_32.o)
                0x0000000010020658                _ZTVN2pp15TouchInputEventE
 .rodata._ZTIN2pp15TouchInputEventE
                0x0000000010020668        0xc /home/jfb/nacl_sdk/pepper_42//lib/newlib_x86_32/Release/libppapi_cpp.a(input_event_x86_32.o)
                0x0000000010020668                _ZTIN2pp15TouchInputEventE
 .rodata._ZTSN2pp15TouchInputEventE
                0x0000000010020674       0x17 /home/jfb/nacl_sdk/pepper_42//lib/newlib_x86_32/Release/libppapi_cpp.a(input_event_x86_32.o)
                0x0000000010020674                _ZTSN2pp15TouchInputEventE
 *fill*         0x000000001002068b        0x5 
 .rodata._ZTVN2pp18KeyboardInputEventE
                0x0000000010020690       0x10 /home/jfb/nacl_sdk/pepper_42//lib/newlib_x86_32/Release/libppapi_cpp.a(input_event_x86_32.o)
                0x0000000010020690                _ZTVN2pp18KeyboardInputEventE
 .rodata._ZTIN2pp18KeyboardInputEventE
                0x00000000100206a0        0xc /home/jfb/nacl_sdk/pepper_42//lib/newlib_x86_32/Release/libppapi_cpp.a(input_event_x86_32.o)
                0x00000000100206a0                _ZTIN2pp18KeyboardInputEventE
 .rodata._ZTSN2pp18KeyboardInputEventE
                0x00000000100206ac       0x1a /home/jfb/nacl_sdk/pepper_42//lib/newlib_x86_32/Release/libppapi_cpp.a(input_event_x86_32.o)
                0x00000000100206ac                _ZTSN2pp18KeyboardInputEventE
 *fill*         0x00000000100206c6        0x2 
 .rodata._ZTVN2pp15WheelInputEventE
                0x00000000100206c8       0x10 /home/jfb/nacl_sdk/pepper_42//lib/newlib_x86_32/Release/libppapi_cpp.a(input_event_x86_32.o)
                0x00000000100206c8                _ZTVN2pp15WheelInputEventE
 .rodata._ZTIN2pp15WheelInputEventE
                0x00000000100206d8        0xc /home/jfb/nacl_sdk/pepper_42//lib/newlib_x86_32/Release/libppapi_cpp.a(input_event_x86_32.o)
                0x00000000100206d8                _ZTIN2pp15WheelInputEventE
 .rodata._ZTSN2pp15WheelInputEventE
                0x00000000100206e4       0x17 /home/jfb/nacl_sdk/pepper_42//lib/newlib_x86_32/Release/libppapi_cpp.a(input_event_x86_32.o)
                0x00000000100206e4                _ZTSN2pp15WheelInputEventE
 *fill*         0x00000000100206fb        0x5 
 .rodata._ZTVN2pp15MouseInputEventE
                0x0000000010020700       0x10 /home/jfb/nacl_sdk/pepper_42//lib/newlib_x86_32/Release/libppapi_cpp.a(input_event_x86_32.o)
                0x0000000010020700                _ZTVN2pp15MouseInputEventE
 .rodata._ZTIN2pp15MouseInputEventE
                0x0000000010020710        0xc /home/jfb/nacl_sdk/pepper_42//lib/newlib_x86_32/Release/libppapi_cpp.a(input_event_x86_32.o)
                0x0000000010020710                _ZTIN2pp15MouseInputEventE
 .rodata._ZTSN2pp15MouseInputEventE
                0x000000001002071c       0x17 /home/jfb/nacl_sdk/pepper_42//lib/newlib_x86_32/Release/libppapi_cpp.a(input_event_x86_32.o)
                0x000000001002071c                _ZTSN2pp15MouseInputEventE
 *fill*         0x0000000010020733        0x1 
 .rodata        0x0000000010020734        0xc /home/jfb/nacl_sdk/pepper_42/toolchain/linux_x86_newlib/bin/../lib/gcc/x86_64-nacl/4.4.3/../../../../x86_64-nacl/lib/../lib32/libppapi_stub.a(ppapi_plugin_main_399d0cf7.o)
 .rodata.str1.4
                0x0000000010020740       0x99 /home/jfb/nacl_sdk/pepper_42/toolchain/linux_x86_newlib/bin/../lib/gcc/x86_64-nacl/4.4.3/../../../../x86_64-nacl/lib/../lib32/libppapi_stub.a(ppapi_plugin_start_8da67623.o)
 .rodata.str1.1
                0x00000000100207d9       0x17 /home/jfb/nacl_sdk/pepper_42/toolchain/linux_x86_newlib/bin/../lib/gcc/x86_64-nacl/4.4.3/../../../../x86_64-nacl/lib/../lib32/libppapi_stub.a(ppapi_plugin_start_8da67623.o)
 .rodata        0x00000000100207f0        0x8 /home/jfb/nacl_sdk/pepper_42/toolchain/linux_x86_newlib/bin/../lib/gcc/x86_64-nacl/4.4.3/../../../../x86_64-nacl/lib/../lib32/libppapi_stub.a(thread_creator_ccf263e1.o)
 .rodata.str1.1
                0x00000000100207f8        0xc /home/jfb/nacl_sdk/pepper_42/toolchain/linux_x86_newlib/bin/../lib/gcc/x86_64-nacl/4.4.3/../../../../x86_64-nacl/lib/../lib32/libpthread.a(nc_thread_7e478b15.o)
 .rodata        0x0000000010020804        0x4 /home/jfb/nacl_sdk/pepper_42/toolchain/linux_x86_newlib/bin/../lib/gcc/x86_64-nacl/4.4.3/../../../../x86_64-nacl/lib/../lib32/libpthread.a(nc_thread_7e478b15.o)
                0x0000000010020804                __nc_kMaxCachedMemoryBlocks
 .rodata.str1.1
                0x0000000010020808       0x14 /home/jfb/nacl_sdk/pepper_42/toolchain/linux_x86_newlib/bin/../lib/gcc/x86_64-nacl/4.4.3/../../../../x86_64-nacl/lib/../lib32/libpthread.a(dynamic_annotations_33ba59cc.o)
                                         0x16 (size before relaxing)
 .rodata.str1.1
                0x000000001002081c       0x27 /home/jfb/nacl_sdk/pepper_42/toolchain/linux_x86_newlib/bin/../lib/gcc/x86_64-nacl/4.4.3/../../../../x86_64-nacl/lib/../lib32/libpthread.a(nc_init_irt_d3daafc0.o)
 .rodata.str1.1
                0x0000000010020843      0x11d /home/jfb/nacl_sdk/pepper_42/toolchain/linux_x86_newlib/bin/../lib/gcc/x86_64-nacl/4.4.3/../../../../x86_64-nacl/lib/../lib32/libstdc++.a(string-inst.o)
 .rodata.str1.4
                0x0000000010020960       0x2a /home/jfb/nacl_sdk/pepper_42/toolchain/linux_x86_newlib/bin/../lib/gcc/x86_64-nacl/4.4.3/../../../../x86_64-nacl/lib/../lib32/libstdc++.a(string-inst.o)
 *fill*         0x000000001002098a        0x2 
 .rodata._ZNSs4nposE
                0x000000001002098c        0x4 /home/jfb/nacl_sdk/pepper_42/toolchain/linux_x86_newlib/bin/../lib/gcc/x86_64-nacl/4.4.3/../../../../x86_64-nacl/lib/../lib32/libstdc++.a(string-inst.o)
                0x000000001002098c                _ZNSs4nposE
 .rodata._ZNSs4_Rep11_S_max_sizeE
                0x0000000010020990        0x4 /home/jfb/nacl_sdk/pepper_42/toolchain/linux_x86_newlib/bin/../lib/gcc/x86_64-nacl/4.4.3/../../../../x86_64-nacl/lib/../lib32/libstdc++.a(string-inst.o)
                0x0000000010020990                _ZNSs4_Rep11_S_max_sizeE
 .rodata._ZNSs4_Rep11_S_terminalE
                0x0000000010020994        0x1 /home/jfb/nacl_sdk/pepper_42/toolchain/linux_x86_newlib/bin/../lib/gcc/x86_64-nacl/4.4.3/../../../../x86_64-nacl/lib/../lib32/libstdc++.a(string-inst.o)
                0x0000000010020994                _ZNSs4_Rep11_S_terminalE
 *fill*         0x0000000010020995        0x3 
 .rodata._ZL28read_encoded_value_with_basehjPKhPj
                0x0000000010020998       0x34 /home/jfb/nacl_sdk/pepper_42/toolchain/linux_x86_newlib/bin/../lib/gcc/x86_64-nacl/4.4.3/../../../../x86_64-nacl/lib/../lib32/libstdc++.a(eh_personality.o)
 .rodata.str1.4
                0x00000000100209cc       0x4a /home/jfb/nacl_sdk/pepper_42/toolchain/linux_x86_newlib/bin/../lib/gcc/x86_64-nacl/4.4.3/../../../../x86_64-nacl/lib/../lib32/libstdc++.a(guard.o)
 *fill*         0x0000000010020a16        0x2 
 .rodata._ZTVN9__gnu_cxx20recursive_init_errorE
                0x0000000010020a18       0x14 /home/jfb/nacl_sdk/pepper_42/toolchain/linux_x86_newlib/bin/../lib/gcc/x86_64-nacl/4.4.3/../../../../x86_64-nacl/lib/../lib32/libstdc++.a(guard.o)
                0x0000000010020a18                _ZTVN9__gnu_cxx20recursive_init_errorE
 *fill*         0x0000000010020a2c       0x14 
 .rodata._ZTSN9__gnu_cxx20recursive_init_errorE
                0x0000000010020a40       0x23 /home/jfb/nacl_sdk/pepper_42/toolchain/linux_x86_newlib/bin/../lib/gcc/x86_64-nacl/4.4.3/../../../../x86_64-nacl/lib/../lib32/libstdc++.a(guard.o)
                0x0000000010020a40                _ZTSN9__gnu_cxx20recursive_init_errorE
 *fill*         0x0000000010020a63        0x1 
 .rodata._ZTIN9__gnu_cxx20recursive_init_errorE
                0x0000000010020a64        0xc /home/jfb/nacl_sdk/pepper_42/toolchain/linux_x86_newlib/bin/../lib/gcc/x86_64-nacl/4.4.3/../../../../x86_64-nacl/lib/../lib32/libstdc++.a(guard.o)
                0x0000000010020a64                _ZTIN9__gnu_cxx20recursive_init_errorE
 .rodata._ZTIN9__gnu_cxx26__concurrence_unlock_errorE
                0x0000000010020a70        0xc /home/jfb/nacl_sdk/pepper_42/toolchain/linux_x86_newlib/bin/../lib/gcc/x86_64-nacl/4.4.3/../../../../x86_64-nacl/lib/../lib32/libstdc++.a(guard.o)
                0x0000000010020a70                _ZTIN9__gnu_cxx26__concurrence_unlock_errorE
 *fill*         0x0000000010020a7c        0x4 
 .rodata._ZTSN9__gnu_cxx26__concurrence_unlock_errorE
                0x0000000010020a80       0x29 /home/jfb/nacl_sdk/pepper_42/toolchain/linux_x86_newlib/bin/../lib/gcc/x86_64-nacl/4.4.3/../../../../x86_64-nacl/lib/../lib32/libstdc++.a(guard.o)
                0x0000000010020a80                _ZTSN9__gnu_cxx26__concurrence_unlock_errorE
 *fill*         0x0000000010020aa9        0x7 
 .rodata._ZTVN9__gnu_cxx26__concurrence_unlock_errorE
                0x0000000010020ab0       0x14 /home/jfb/nacl_sdk/pepper_42/toolchain/linux_x86_newlib/bin/../lib/gcc/x86_64-nacl/4.4.3/../../../../x86_64-nacl/lib/../lib32/libstdc++.a(guard.o)
                0x0000000010020ab0                _ZTVN9__gnu_cxx26__concurrence_unlock_errorE
 .rodata._ZTIN9__gnu_cxx24__concurrence_lock_errorE
                0x0000000010020ac4        0xc /home/jfb/nacl_sdk/pepper_42/toolchain/linux_x86_newlib/bin/../lib/gcc/x86_64-nacl/4.4.3/../../../../x86_64-nacl/lib/../lib32/libstdc++.a(guard.o)
                0x0000000010020ac4                _ZTIN9__gnu_cxx24__concurrence_lock_errorE
 *fill*         0x0000000010020ad0       0x10 
 .rodata._ZTSN9__gnu_cxx24__concurrence_lock_errorE
                0x0000000010020ae0       0x27 /home/jfb/nacl_sdk/pepper_42/toolchain/linux_x86_newlib/bin/../lib/gcc/x86_64-nacl/4.4.3/../../../../x86_64-nacl/lib/../lib32/libstdc++.a(guard.o)
                0x0000000010020ae0                _ZTSN9__gnu_cxx24__concurrence_lock_errorE
 *fill*         0x0000000010020b07        0x1 
 .rodata._ZTVN9__gnu_cxx24__concurrence_lock_errorE
                0x0000000010020b08       0x14 /home/jfb/nacl_sdk/pepper_42/toolchain/linux_x86_newlib/bin/../lib/gcc/x86_64-nacl/4.4.3/../../../../x86_64-nacl/lib/../lib32/libstdc++.a(guard.o)
                0x0000000010020b08                _ZTVN9__gnu_cxx24__concurrence_lock_errorE
 *fill*         0x0000000010020b1c        0x4 
 .rodata._ZTVN10__cxxabiv120__si_class_type_infoE
                0x0000000010020b20       0x2c /home/jfb/nacl_sdk/pepper_42/toolchain/linux_x86_newlib/bin/../lib/gcc/x86_64-nacl/4.4.3/../../../../x86_64-nacl/lib/../lib32/libstdc++.a(si_class_type_info.o)
                0x0000000010020b20                _ZTVN10__cxxabiv120__si_class_type_infoE
 *fill*         0x0000000010020b4c       0x14 
 .rodata._ZTSN10__cxxabiv120__si_class_type_infoE
                0x0000000010020b60       0x25 /home/jfb/nacl_sdk/pepper_42/toolchain/linux_x86_newlib/bin/../lib/gcc/x86_64-nacl/4.4.3/../../../../x86_64-nacl/lib/../lib32/libstdc++.a(si_class_type_info.o)
                0x0000000010020b60                _ZTSN10__cxxabiv120__si_class_type_infoE
 *fill*         0x0000000010020b85        0x3 
 .rodata._ZTIN10__cxxabiv120__si_class_type_infoE
                0x0000000010020b88        0xc /home/jfb/nacl_sdk/pepper_42/toolchain/linux_x86_newlib/bin/../lib/gcc/x86_64-nacl/4.4.3/../../../../x86_64-nacl/lib/../lib32/libstdc++.a(si_class_type_info.o)
                0x0000000010020b88                _ZTIN10__cxxabiv120__si_class_type_infoE
 *fill*         0x0000000010020b94        0xc 
 .rodata._ZTVN10__cxxabiv117__class_type_infoE
                0x0000000010020ba0       0x2c /home/jfb/nacl_sdk/pepper_42/toolchain/linux_x86_newlib/bin/../lib/gcc/x86_64-nacl/4.4.3/../../../../x86_64-nacl/lib/../lib32/libstdc++.a(class_type_info.o)
                0x0000000010020ba0                _ZTVN10__cxxabiv117__class_type_infoE
 *fill*         0x0000000010020bcc       0x14 
 .rodata._ZTSN10__cxxabiv117__class_type_infoE
                0x0000000010020be0       0x22 /home/jfb/nacl_sdk/pepper_42/toolchain/linux_x86_newlib/bin/../lib/gcc/x86_64-nacl/4.4.3/../../../../x86_64-nacl/lib/../lib32/libstdc++.a(class_type_info.o)
                0x0000000010020be0                _ZTSN10__cxxabiv117__class_type_infoE
 *fill*         0x0000000010020c02        0x2 
 .rodata._ZTIN10__cxxabiv117__class_type_infoE
                0x0000000010020c04        0xc /home/jfb/nacl_sdk/pepper_42/toolchain/linux_x86_newlib/bin/../lib/gcc/x86_64-nacl/4.4.3/../../../../x86_64-nacl/lib/../lib32/libstdc++.a(class_type_info.o)
                0x0000000010020c04                _ZTIN10__cxxabiv117__class_type_infoE
 .rodata.str1.4
                0x0000000000000000       0x4a /home/jfb/nacl_sdk/pepper_42/toolchain/linux_x86_newlib/bin/../lib/gcc/x86_64-nacl/4.4.3/../../../../x86_64-nacl/lib/../lib32/libstdc++.a(eh_alloc.o)
 .rodata.str1.1
                0x0000000010020c10       0x22 /home/jfb/nacl_sdk/pepper_42/toolchain/linux_x86_newlib/bin/../lib/gcc/x86_64-nacl/4.4.3/../../../../x86_64-nacl/lib/../lib32/libstdc++.a(eh_exception.o)
 *fill*         0x0000000010020c32        0x6 
 .rodata._ZTVN10__cxxabiv119__foreign_exceptionE
                0x0000000010020c38       0x14 /home/jfb/nacl_sdk/pepper_42/toolchain/linux_x86_newlib/bin/../lib/gcc/x86_64-nacl/4.4.3/../../../../x86_64-nacl/lib/../lib32/libstdc++.a(eh_exception.o)
                0x0000000010020c38                _ZTVN10__cxxabiv119__foreign_exceptionE
 *fill*         0x0000000010020c4c        0x4 
 .rodata._ZTVN10__cxxabiv115__forced_unwindE
                0x0000000010020c50       0x14 /home/jfb/nacl_sdk/pepper_42/toolchain/linux_x86_newlib/bin/../lib/gcc/x86_64-nacl/4.4.3/../../../../x86_64-nacl/lib/../lib32/libstdc++.a(eh_exception.o)
                0x0000000010020c50                _ZTVN10__cxxabiv115__forced_unwindE
 *fill*         0x0000000010020c64        0x4 
 .rodata._ZTVSt13bad_exception
                0x0000000010020c68       0x14 /home/jfb/nacl_sdk/pepper_42/toolchain/linux_x86_newlib/bin/../lib/gcc/x86_64-nacl/4.4.3/../../../../x86_64-nacl/lib/../lib32/libstdc++.a(eh_exception.o)
                0x0000000010020c68                _ZTVSt13bad_exception
 *fill*         0x0000000010020c7c        0x4 
 .rodata._ZTVSt9exception
                0x0000000010020c80       0x14 /home/jfb/nacl_sdk/pepper_42/toolchain/linux_x86_newlib/bin/../lib/gcc/x86_64-nacl/4.4.3/../../../../x86_64-nacl/lib/../lib32/libstdc++.a(eh_exception.o)
                0x0000000010020c80                _ZTVSt9exception
 *fill*         0x0000000010020c94        0xc 
 .rodata._ZTSN10__cxxabiv119__foreign_exceptionE
                0x0000000010020ca0       0x24 /home/jfb/nacl_sdk/pepper_42/toolchain/linux_x86_newlib/bin/../lib/gcc/x86_64-nacl/4.4.3/../../../../x86_64-nacl/lib/../lib32/libstdc++.a(eh_exception.o)
                0x0000000010020ca0                _ZTSN10__cxxabiv119__foreign_exceptionE
 .rodata._ZTIN10__cxxabiv119__foreign_exceptionE
                0x0000000010020cc4        0x8 /home/jfb/nacl_sdk/pepper_42/toolchain/linux_x86_newlib/bin/../lib/gcc/x86_64-nacl/4.4.3/../../../../x86_64-nacl/lib/../lib32/libstdc++.a(eh_exception.o)
                0x0000000010020cc4                _ZTIN10__cxxabiv119__foreign_exceptionE
 *fill*         0x0000000010020ccc       0x14 
 .rodata._ZTSN10__cxxabiv115__forced_unwindE
                0x0000000010020ce0       0x20 /home/jfb/nacl_sdk/pepper_42/toolchain/linux_x86_newlib/bin/../lib/gcc/x86_64-nacl/4.4.3/../../../../x86_64-nacl/lib/../lib32/libstdc++.a(eh_exception.o)
                0x0000000010020ce0                _ZTSN10__cxxabiv115__forced_unwindE
 .rodata._ZTIN10__cxxabiv115__forced_unwindE
                0x0000000010020d00        0x8 /home/jfb/nacl_sdk/pepper_42/toolchain/linux_x86_newlib/bin/../lib/gcc/x86_64-nacl/4.4.3/../../../../x86_64-nacl/lib/../lib32/libstdc++.a(eh_exception.o)
                0x0000000010020d00                _ZTIN10__cxxabiv115__forced_unwindE
 .rodata._ZTSSt13bad_exception
                0x0000000010020d08       0x12 /home/jfb/nacl_sdk/pepper_42/toolchain/linux_x86_newlib/bin/../lib/gcc/x86_64-nacl/4.4.3/../../../../x86_64-nacl/lib/../lib32/libstdc++.a(eh_exception.o)
                0x0000000010020d08                _ZTSSt13bad_exception
 *fill*         0x0000000010020d1a        0x2 
 .rodata._ZTISt13bad_exception
                0x0000000010020d1c        0xc /home/jfb/nacl_sdk/pepper_42/toolchain/linux_x86_newlib/bin/../lib/gcc/x86_64-nacl/4.4.3/../../../../x86_64-nacl/lib/../lib32/libstdc++.a(eh_exception.o)
                0x0000000010020d1c                _ZTISt13bad_exception
 .rodata._ZTSSt9exception
                0x0000000010020d28        0xd /home/jfb/nacl_sdk/pepper_42/toolchain/linux_x86_newlib/bin/../lib/gcc/x86_64-nacl/4.4.3/../../../../x86_64-nacl/lib/../lib32/libstdc++.a(eh_exception.o)
                0x0000000010020d28                _ZTSSt9exception
 *fill*         0x0000000010020d35        0x3 
 .rodata._ZTISt9exception
                0x0000000010020d38        0x8 /home/jfb/nacl_sdk/pepper_42/toolchain/linux_x86_newlib/bin/../lib/gcc/x86_64-nacl/4.4.3/../../../../x86_64-nacl/lib/../lib32/libstdc++.a(eh_exception.o)
                0x0000000010020d38                _ZTISt9exception
 .rodata.str1.1
                0x0000000010020d40       0x1c /home/jfb/nacl_sdk/pepper_42/toolchain/linux_x86_newlib/bin/../lib/gcc/x86_64-nacl/4.4.3/../../../../x86_64-nacl/lib/../lib32/libstdc++.a(pure.o)
 *fill*         0x0000000010020d5c        0x4 
 .rodata._ZTVSt9type_info
                0x0000000010020d60       0x20 /home/jfb/nacl_sdk/pepper_42/toolchain/linux_x86_newlib/bin/../lib/gcc/x86_64-nacl/4.4.3/../../../../x86_64-nacl/lib/../lib32/libstdc++.a(tinfo.o)
                0x0000000010020d60                _ZTVSt9type_info
 .rodata._ZTSSt9type_info
                0x0000000010020d80        0xd /home/jfb/nacl_sdk/pepper_42/toolchain/linux_x86_newlib/bin/../lib/gcc/x86_64-nacl/4.4.3/../../../../x86_64-nacl/lib/../lib32/libstdc++.a(tinfo.o)
                0x0000000010020d80                _ZTSSt9type_info
 *fill*         0x0000000010020d8d        0x3 
 .rodata._ZTISt9type_info
                0x0000000010020d90        0x8 /home/jfb/nacl_sdk/pepper_42/toolchain/linux_x86_newlib/bin/../lib/gcc/x86_64-nacl/4.4.3/../../../../x86_64-nacl/lib/../lib32/libstdc++.a(tinfo.o)
                0x0000000010020d90                _ZTISt9type_info
 .rodata.str1.1
                0x0000000000000000       0x1c /home/jfb/nacl_sdk/pepper_42/toolchain/linux_x86_newlib/bin/../lib/gcc/x86_64-nacl/4.4.3/../../../../x86_64-nacl/lib/../lib32/libstdc++.a(functexcept.o)
                                          0x1 (size before relaxing)
 .rodata._ZTISt15underflow_error
                0x0000000010020d98        0xc /home/jfb/nacl_sdk/pepper_42/toolchain/linux_x86_newlib/bin/../lib/gcc/x86_64-nacl/4.4.3/../../../../x86_64-nacl/lib/../lib32/libstdc++.a(functexcept.o)
                0x0000000010020d98                _ZTISt15underflow_error
 .rodata._ZTSSt15underflow_error
                0x0000000010020da4       0x14 /home/jfb/nacl_sdk/pepper_42/toolchain/linux_x86_newlib/bin/../lib/gcc/x86_64-nacl/4.4.3/../../../../x86_64-nacl/lib/../lib32/libstdc++.a(functexcept.o)
                0x0000000010020da4                _ZTSSt15underflow_error
 .rodata._ZTVSt15underflow_error
                0x0000000010020db8       0x14 /home/jfb/nacl_sdk/pepper_42/toolchain/linux_x86_newlib/bin/../lib/gcc/x86_64-nacl/4.4.3/../../../../x86_64-nacl/lib/../lib32/libstdc++.a(functexcept.o)
                0x0000000010020db8                _ZTVSt15underflow_error
 .rodata._ZTISt14overflow_error
                0x0000000010020dcc        0xc /home/jfb/nacl_sdk/pepper_42/toolchain/linux_x86_newlib/bin/../lib/gcc/x86_64-nacl/4.4.3/../../../../x86_64-nacl/lib/../lib32/libstdc++.a(functexcept.o)
                0x0000000010020dcc                _ZTISt14overflow_error
 .rodata._ZTSSt14overflow_error
                0x0000000010020dd8       0x13 /home/jfb/nacl_sdk/pepper_42/toolchain/linux_x86_newlib/bin/../lib/gcc/x86_64-nacl/4.4.3/../../../../x86_64-nacl/lib/../lib32/libstdc++.a(functexcept.o)
                0x0000000010020dd8                _ZTSSt14overflow_error
 *fill*         0x0000000010020deb        0x5 
 .rodata._ZTVSt14overflow_error
                0x0000000010020df0       0x14 /home/jfb/nacl_sdk/pepper_42/toolchain/linux_x86_newlib/bin/../lib/gcc/x86_64-nacl/4.4.3/../../../../x86_64-nacl/lib/../lib32/libstdc++.a(functexcept.o)
                0x0000000010020df0                _ZTVSt14overflow_error
 .rodata._ZTISt11range_error
                0x0000000010020e04        0xc /home/jfb/nacl_sdk/pepper_42/toolchain/linux_x86_newlib/bin/../lib/gcc/x86_64-nacl/4.4.3/../../../../x86_64-nacl/lib/../lib32/libstdc++.a(functexcept.o)
                0x0000000010020e04                _ZTISt11range_error
 .rodata._ZTSSt11range_error
                0x0000000010020e10       0x10 /home/jfb/nacl_sdk/pepper_42/toolchain/linux_x86_newlib/bin/../lib/gcc/x86_64-nacl/4.4.3/../../../../x86_64-nacl/lib/../lib32/libstdc++.a(functexcept.o)
                0x0000000010020e10                _ZTSSt11range_error
 .rodata._ZTVSt11range_error
                0x0000000010020e20       0x14 /home/jfb/nacl_sdk/pepper_42/toolchain/linux_x86_newlib/bin/../lib/gcc/x86_64-nacl/4.4.3/../../../../x86_64-nacl/lib/../lib32/libstdc++.a(functexcept.o)
                0x0000000010020e20                _ZTVSt11range_error
 .rodata._ZTISt12out_of_range
                0x0000000010020e34        0xc /home/jfb/nacl_sdk/pepper_42/toolchain/linux_x86_newlib/bin/../lib/gcc/x86_64-nacl/4.4.3/../../../../x86_64-nacl/lib/../lib32/libstdc++.a(functexcept.o)
                0x0000000010020e34                _ZTISt12out_of_range
 .rodata._ZTSSt12out_of_range
                0x0000000010020e40       0x11 /home/jfb/nacl_sdk/pepper_42/toolchain/linux_x86_newlib/bin/../lib/gcc/x86_64-nacl/4.4.3/../../../../x86_64-nacl/lib/../lib32/libstdc++.a(functexcept.o)
                0x0000000010020e40                _ZTSSt12out_of_range
 *fill*         0x0000000010020e51        0x7 
 .rodata._ZTVSt12out_of_range
                0x0000000010020e58       0x14 /home/jfb/nacl_sdk/pepper_42/toolchain/linux_x86_newlib/bin/../lib/gcc/x86_64-nacl/4.4.3/../../../../x86_64-nacl/lib/../lib32/libstdc++.a(functexcept.o)
                0x0000000010020e58                _ZTVSt12out_of_range
 .rodata._ZTISt12length_error
                0x0000000010020e6c        0xc /home/jfb/nacl_sdk/pepper_42/toolchain/linux_x86_newlib/bin/../lib/gcc/x86_64-nacl/4.4.3/../../../../x86_64-nacl/lib/../lib32/libstdc++.a(functexcept.o)
                0x0000000010020e6c                _ZTISt12length_error
 .rodata._ZTSSt12length_error
                0x0000000010020e78       0x11 /home/jfb/nacl_sdk/pepper_42/toolchain/linux_x86_newlib/bin/../lib/gcc/x86_64-nacl/4.4.3/../../../../x86_64-nacl/lib/../lib32/libstdc++.a(functexcept.o)
                0x0000000010020e78                _ZTSSt12length_error
 *fill*         0x0000000010020e89        0x7 
 .rodata._ZTVSt12length_error
                0x0000000010020e90       0x14 /home/jfb/nacl_sdk/pepper_42/toolchain/linux_x86_newlib/bin/../lib/gcc/x86_64-nacl/4.4.3/../../../../x86_64-nacl/lib/../lib32/libstdc++.a(functexcept.o)
                0x0000000010020e90                _ZTVSt12length_error
 .rodata._ZTISt16invalid_argument
                0x0000000010020ea4        0xc /home/jfb/nacl_sdk/pepper_42/toolchain/linux_x86_newlib/bin/../lib/gcc/x86_64-nacl/4.4.3/../../../../x86_64-nacl/lib/../lib32/libstdc++.a(functexcept.o)
                0x0000000010020ea4                _ZTISt16invalid_argument
 .rodata._ZTSSt16invalid_argument
                0x0000000010020eb0       0x15 /home/jfb/nacl_sdk/pepper_42/toolchain/linux_x86_newlib/bin/../lib/gcc/x86_64-nacl/4.4.3/../../../../x86_64-nacl/lib/../lib32/libstdc++.a(functexcept.o)
                0x0000000010020eb0                _ZTSSt16invalid_argument
 *fill*         0x0000000010020ec5        0x3 
 .rodata._ZTVSt16invalid_argument
                0x0000000010020ec8       0x14 /home/jfb/nacl_sdk/pepper_42/toolchain/linux_x86_newlib/bin/../lib/gcc/x86_64-nacl/4.4.3/../../../../x86_64-nacl/lib/../lib32/libstdc++.a(functexcept.o)
                0x0000000010020ec8                _ZTVSt16invalid_argument
 .rodata._ZTISt12domain_error
                0x0000000010020edc        0xc /home/jfb/nacl_sdk/pepper_42/toolchain/linux_x86_newlib/bin/../lib/gcc/x86_64-nacl/4.4.3/../../../../x86_64-nacl/lib/../lib32/libstdc++.a(functexcept.o)
                0x0000000010020edc                _ZTISt12domain_error
 .rodata._ZTSSt12domain_error
                0x0000000010020ee8       0x11 /home/jfb/nacl_sdk/pepper_42/toolchain/linux_x86_newlib/bin/../lib/gcc/x86_64-nacl/4.4.3/../../../../x86_64-nacl/lib/../lib32/libstdc++.a(functexcept.o)
                0x0000000010020ee8                _ZTSSt12domain_error
 *fill*         0x0000000010020ef9        0x7 
 .rodata._ZTVSt12domain_error
                0x0000000010020f00       0x14 /home/jfb/nacl_sdk/pepper_42/toolchain/linux_x86_newlib/bin/../lib/gcc/x86_64-nacl/4.4.3/../../../../x86_64-nacl/lib/../lib32/libstdc++.a(functexcept.o)
                0x0000000010020f00                _ZTVSt12domain_error
 *fill*         0x0000000010020f14        0x4 
 .rodata._ZTVNSt8ios_base7failureE
                0x0000000010020f18       0x14 /home/jfb/nacl_sdk/pepper_42/toolchain/linux_x86_newlib/bin/../lib/gcc/x86_64-nacl/4.4.3/../../../../x86_64-nacl/lib/../lib32/libstdc++.a(ios_failure.o)
                0x0000000010020f18                _ZTVNSt8ios_base7failureE
 .rodata._ZTSNSt8ios_base7failureE
                0x0000000010020f2c       0x16 /home/jfb/nacl_sdk/pepper_42/toolchain/linux_x86_newlib/bin/../lib/gcc/x86_64-nacl/4.4.3/../../../../x86_64-nacl/lib/../lib32/libstdc++.a(ios_failure.o)
                0x0000000010020f2c                _ZTSNSt8ios_base7failureE
 *fill*         0x0000000010020f42        0x2 
 .rodata._ZTINSt8ios_base7failureE
                0x0000000010020f44        0xc /home/jfb/nacl_sdk/pepper_42/toolchain/linux_x86_newlib/bin/../lib/gcc/x86_64-nacl/4.4.3/../../../../x86_64-nacl/lib/../lib32/libstdc++.a(ios_failure.o)
                0x0000000010020f44                _ZTINSt8ios_base7failureE
 .rodata._ZTVSt13runtime_error
                0x0000000010020f50       0x14 /home/jfb/nacl_sdk/pepper_42/toolchain/linux_x86_newlib/bin/../lib/gcc/x86_64-nacl/4.4.3/../../../../x86_64-nacl/lib/../lib32/libstdc++.a(stdexcept.o)
                0x0000000010020f50                _ZTVSt13runtime_error
 *fill*         0x0000000010020f64        0x4 
 .rodata._ZTVSt11logic_error
                0x0000000010020f68       0x14 /home/jfb/nacl_sdk/pepper_42/toolchain/linux_x86_newlib/bin/../lib/gcc/x86_64-nacl/4.4.3/../../../../x86_64-nacl/lib/../lib32/libstdc++.a(stdexcept.o)
                0x0000000010020f68                _ZTVSt11logic_error
 .rodata._ZTSSt13runtime_error
                0x0000000010020f7c       0x12 /home/jfb/nacl_sdk/pepper_42/toolchain/linux_x86_newlib/bin/../lib/gcc/x86_64-nacl/4.4.3/../../../../x86_64-nacl/lib/../lib32/libstdc++.a(stdexcept.o)
                0x0000000010020f7c                _ZTSSt13runtime_error
 *fill*         0x0000000010020f8e        0x2 
 .rodata._ZTISt13runtime_error
                0x0000000010020f90        0xc /home/jfb/nacl_sdk/pepper_42/toolchain/linux_x86_newlib/bin/../lib/gcc/x86_64-nacl/4.4.3/../../../../x86_64-nacl/lib/../lib32/libstdc++.a(stdexcept.o)
                0x0000000010020f90                _ZTISt13runtime_error
 .rodata._ZTSSt11logic_error
                0x0000000010020f9c       0x10 /home/jfb/nacl_sdk/pepper_42/toolchain/linux_x86_newlib/bin/../lib/gcc/x86_64-nacl/4.4.3/../../../../x86_64-nacl/lib/../lib32/libstdc++.a(stdexcept.o)
                0x0000000010020f9c                _ZTSSt11logic_error
 .rodata._ZTISt11logic_error
                0x0000000010020fac        0xc /home/jfb/nacl_sdk/pepper_42/toolchain/linux_x86_newlib/bin/../lib/gcc/x86_64-nacl/4.4.3/../../../../x86_64-nacl/lib/../lib32/libstdc++.a(stdexcept.o)
                0x0000000010020fac                _ZTISt11logic_error
 .rodata.str1.1
                0x0000000010020fb8        0x8 /home/jfb/nacl_sdk/pepper_42/toolchain/linux_x86_newlib/bin/../lib/gcc/x86_64-nacl/4.4.3/../../../../x86_64-nacl/lib/../lib32/libstdc++.a(system_error.o)
                                          0xf (size before relaxing)
 .rodata._ZTVSt14error_category
                0x0000000010020fc0       0x24 /home/jfb/nacl_sdk/pepper_42/toolchain/linux_x86_newlib/bin/../lib/gcc/x86_64-nacl/4.4.3/../../../../x86_64-nacl/lib/../lib32/libstdc++.a(system_error.o)
                0x0000000010020fc0                _ZTVSt14error_category
 *fill*         0x0000000010020fe4        0x4 
 .rodata._ZTVSt12system_error
                0x0000000010020fe8       0x14 /home/jfb/nacl_sdk/pepper_42/toolchain/linux_x86_newlib/bin/../lib/gcc/x86_64-nacl/4.4.3/../../../../x86_64-nacl/lib/../lib32/libstdc++.a(system_error.o)
                0x0000000010020fe8                _ZTVSt12system_error
 .rodata._ZTSSt12system_error
                0x0000000010020ffc       0x11 /home/jfb/nacl_sdk/pepper_42/toolchain/linux_x86_newlib/bin/../lib/gcc/x86_64-nacl/4.4.3/../../../../x86_64-nacl/lib/../lib32/libstdc++.a(system_error.o)
                0x0000000010020ffc                _ZTSSt12system_error
 *fill*         0x000000001002100d        0x3 
 .rodata._ZTISt12system_error
                0x0000000010021010        0xc /home/jfb/nacl_sdk/pepper_42/toolchain/linux_x86_newlib/bin/../lib/gcc/x86_64-nacl/4.4.3/../../../../x86_64-nacl/lib/../lib32/libstdc++.a(system_error.o)
                0x0000000010021010                _ZTISt12system_error
 .rodata._ZTSSt14error_category
                0x000000001002101c       0x13 /home/jfb/nacl_sdk/pepper_42/toolchain/linux_x86_newlib/bin/../lib/gcc/x86_64-nacl/4.4.3/../../../../x86_64-nacl/lib/../lib32/libstdc++.a(system_error.o)
                0x000000001002101c                _ZTSSt14error_category
 *fill*         0x000000001002102f        0x1 
 .rodata._ZTISt14error_category
                0x0000000010021030        0x8 /home/jfb/nacl_sdk/pepper_42/toolchain/linux_x86_newlib/bin/../lib/gcc/x86_64-nacl/4.4.3/../../../../x86_64-nacl/lib/../lib32/libstdc++.a(system_error.o)
                0x0000000010021030                _ZTISt14error_category
 *fill*         0x0000000010021038        0x8 
 .rodata._ZTVN12_GLOBAL__N_122generic_error_categoryE
                0x0000000010021040       0x24 /home/jfb/nacl_sdk/pepper_42/toolchain/linux_x86_newlib/bin/../lib/gcc/x86_64-nacl/4.4.3/../../../../x86_64-nacl/lib/../lib32/libstdc++.a(system_error.o)
 *fill*         0x0000000010021064       0x1c 
 .rodata._ZTSN12_GLOBAL__N_122generic_error_categoryE
                0x0000000010021080       0x29 /home/jfb/nacl_sdk/pepper_42/toolchain/linux_x86_newlib/bin/../lib/gcc/x86_64-nacl/4.4.3/../../../../x86_64-nacl/lib/../lib32/libstdc++.a(system_error.o)
 *fill*         0x00000000100210a9       0x17 
 .rodata._ZTVN12_GLOBAL__N_121system_error_categoryE
                0x00000000100210c0       0x24 /home/jfb/nacl_sdk/pepper_42/toolchain/linux_x86_newlib/bin/../lib/gcc/x86_64-nacl/4.4.3/../../../../x86_64-nacl/lib/../lib32/libstdc++.a(system_error.o)
 *fill*         0x00000000100210e4       0x1c 
 .rodata._ZTSN12_GLOBAL__N_121system_error_categoryE
                0x0000000010021100       0x28 /home/jfb/nacl_sdk/pepper_42/toolchain/linux_x86_newlib/bin/../lib/gcc/x86_64-nacl/4.4.3/../../../../x86_64-nacl/lib/../lib32/libstdc++.a(system_error.o)
 .rodata._ZTIN12_GLOBAL__N_122generic_error_categoryE
                0x0000000010021128        0xc /home/jfb/nacl_sdk/pepper_42/toolchain/linux_x86_newlib/bin/../lib/gcc/x86_64-nacl/4.4.3/../../../../x86_64-nacl/lib/../lib32/libstdc++.a(system_error.o)
 .rodata._ZTIN12_GLOBAL__N_121system_error_categoryE
                0x0000000010021134        0xc /home/jfb/nacl_sdk/pepper_42/toolchain/linux_x86_newlib/bin/../lib/gcc/x86_64-nacl/4.4.3/../../../../x86_64-nacl/lib/../lib32/libstdc++.a(system_error.o)
 .rodata.str1.1
                0x0000000010021140       0x10 /home/jfb/nacl_sdk/pepper_42/toolchain/linux_x86_newlib/bin/../lib/gcc/x86_64-nacl/4.4.3/../../../../x86_64-nacl/lib/../lib32/libstdc++.a(bad_typeid.o)
 .rodata._ZTVSt10bad_typeid
                0x0000000010021150       0x14 /home/jfb/nacl_sdk/pepper_42/toolchain/linux_x86_newlib/bin/../lib/gcc/x86_64-nacl/4.4.3/../../../../x86_64-nacl/lib/../lib32/libstdc++.a(bad_typeid.o)
                0x0000000010021150                _ZTVSt10bad_typeid
 .rodata._ZTSSt10bad_typeid
                0x0000000010021164        0xf /home/jfb/nacl_sdk/pepper_42/toolchain/linux_x86_newlib/bin/../lib/gcc/x86_64-nacl/4.4.3/../../../../x86_64-nacl/lib/../lib32/libstdc++.a(bad_typeid.o)
                0x0000000010021164                _ZTSSt10bad_typeid
 *fill*         0x0000000010021173        0x1 
 .rodata._ZTISt10bad_typeid
                0x0000000010021174        0xc /home/jfb/nacl_sdk/pepper_42/toolchain/linux_x86_newlib/bin/../lib/gcc/x86_64-nacl/4.4.3/../../../../x86_64-nacl/lib/../lib32/libstdc++.a(bad_typeid.o)
                0x0000000010021174                _ZTISt10bad_typeid
 .rodata.str1.1
                0x0000000010021180        0xf /home/jfb/nacl_sdk/pepper_42/toolchain/linux_x86_newlib/bin/../lib/gcc/x86_64-nacl/4.4.3/../../../../x86_64-nacl/lib/../lib32/libstdc++.a(new_handler.o)
 .rodata._ZSt7nothrow
                0x000000001002118f        0x1 /home/jfb/nacl_sdk/pepper_42/toolchain/linux_x86_newlib/bin/../lib/gcc/x86_64-nacl/4.4.3/../../../../x86_64-nacl/lib/../lib32/libstdc++.a(new_handler.o)
                0x000000001002118f                _ZSt7nothrow
 .rodata._ZTVSt9bad_alloc
                0x0000000010021190       0x14 /home/jfb/nacl_sdk/pepper_42/toolchain/linux_x86_newlib/bin/../lib/gcc/x86_64-nacl/4.4.3/../../../../x86_64-nacl/lib/../lib32/libstdc++.a(new_handler.o)
                0x0000000010021190                _ZTVSt9bad_alloc
 .rodata._ZTSSt9bad_alloc
                0x00000000100211a4        0xd /home/jfb/nacl_sdk/pepper_42/toolchain/linux_x86_newlib/bin/../lib/gcc/x86_64-nacl/4.4.3/../../../../x86_64-nacl/lib/../lib32/libstdc++.a(new_handler.o)
                0x00000000100211a4                _ZTSSt9bad_alloc
 *fill*         0x00000000100211b1        0x3 
 .rodata._ZTISt9bad_alloc
                0x00000000100211b4        0xc /home/jfb/nacl_sdk/pepper_42/toolchain/linux_x86_newlib/bin/../lib/gcc/x86_64-nacl/4.4.3/../../../../x86_64-nacl/lib/../lib32/libstdc++.a(new_handler.o)
                0x00000000100211b4                _ZTISt9bad_alloc
 .rodata.str1.1
                0x00000000100211c0        0xe /home/jfb/nacl_sdk/pepper_42/toolchain/linux_x86_newlib/bin/../lib/gcc/x86_64-nacl/4.4.3/../../../../x86_64-nacl/lib/../lib32/libstdc++.a(bad_cast.o)
 *fill*         0x00000000100211ce        0x2 
 .rodata._ZTVSt8bad_cast
                0x00000000100211d0       0x14 /home/jfb/nacl_sdk/pepper_42/toolchain/linux_x86_newlib/bin/../lib/gcc/x86_64-nacl/4.4.3/../../../../x86_64-nacl/lib/../lib32/libstdc++.a(bad_cast.o)
                0x00000000100211d0                _ZTVSt8bad_cast
 .rodata._ZTSSt8bad_cast
                0x00000000100211e4        0xc /home/jfb/nacl_sdk/pepper_42/toolchain/linux_x86_newlib/bin/../lib/gcc/x86_64-nacl/4.4.3/../../../../x86_64-nacl/lib/../lib32/libstdc++.a(bad_cast.o)
                0x00000000100211e4                _ZTSSt8bad_cast
 .rodata._ZTISt8bad_cast
                0x00000000100211f0        0xc /home/jfb/nacl_sdk/pepper_42/toolchain/linux_x86_newlib/bin/../lib/gcc/x86_64-nacl/4.4.3/../../../../x86_64-nacl/lib/../lib32/libstdc++.a(bad_cast.o)
                0x00000000100211f0                _ZTISt8bad_cast
 .rodata.str1.1
                0x00000000100211fc       0x2d /home/jfb/nacl_sdk/pepper_42/toolchain/linux_x86_newlib/bin/../lib/gcc/x86_64-nacl/4.4.3/../../../../x86_64-nacl/lib/../lib32/libstdc++.a(vterminate.o)
 *fill*         0x0000000010021229        0x3 
 .rodata.str1.4
                0x000000001002122c       0x62 /home/jfb/nacl_sdk/pepper_42/toolchain/linux_x86_newlib/bin/../lib/gcc/x86_64-nacl/4.4.3/../../../../x86_64-nacl/lib/../lib32/libstdc++.a(vterminate.o)
 *fill*         0x000000001002128e       0x12 
 .rodata        0x00000000100212a0      0xdb0 /home/jfb/nacl_sdk/pepper_42/toolchain/linux_x86_newlib/bin/../lib/gcc/x86_64-nacl/4.4.3/../../../../x86_64-nacl/lib/../lib32/libstdc++.a(cp-demangle.o)
 .rodata.str1.1
                0x0000000010022050      0x436 /home/jfb/nacl_sdk/pepper_42/toolchain/linux_x86_newlib/bin/../lib/gcc/x86_64-nacl/4.4.3/../../../../x86_64-nacl/lib/../lib32/libstdc++.a(cp-demangle.o)
                                        0x4ea (size before relaxing)
 *fill*         0x0000000010022486        0x2 
 .rodata.str1.4
                0x0000000010022488       0xe3 /home/jfb/nacl_sdk/pepper_42/toolchain/linux_x86_newlib/bin/../lib/gcc/x86_64-nacl/4.4.3/../../../../x86_64-nacl/lib/../lib32/libstdc++.a(cp-demangle.o)
 *fill*         0x000000001002256b        0x1 
 .rodata        0x000000001002256c      0x5b8 /home/jfb/nacl_sdk/pepper_42/toolchain/linux_x86_newlib/bin/../lib/gcc/x86_64-nacl/4.4.3/32/libgcc.a(unwind-dw2.o)
 .rodata        0x0000000010022b24       0x34 /home/jfb/nacl_sdk/pepper_42/toolchain/linux_x86_newlib/bin/../lib/gcc/x86_64-nacl/4.4.3/32/libgcc.a(unwind-dw2-fde-glibc.o)
 .rodata        0x0000000010022b58       0x13 /home/jfb/nacl_sdk/pepper_42/toolchain/linux_x86_newlib/bin/../lib/gcc/x86_64-nacl/4.4.3/../../../../x86_64-nacl/lib/../lib32/libnacl.a(abort_9f6b5845.o)
 .rodata.str1.1
                0x0000000010022b6b       0x4e /home/jfb/nacl_sdk/pepper_42/toolchain/linux_x86_newlib/bin/../lib/gcc/x86_64-nacl/4.4.3/../../../../x86_64-nacl/lib/../lib32/libnacl.a(malloc_222c4a1e.o)
 *fill*         0x0000000010022bb9        0x3 
 .rodata.str1.4
                0x0000000010022bbc       0x58 /home/jfb/nacl_sdk/pepper_42/toolchain/linux_x86_newlib/bin/../lib/gcc/x86_64-nacl/4.4.3/../../../../x86_64-nacl/lib/../lib32/libnacl.a(nacl_irt_6de1d53f.o)
 .rodata.str1.1
                0x0000000010022c14       0x88 /home/jfb/nacl_sdk/pepper_42/toolchain/linux_x86_newlib/bin/../lib/gcc/x86_64-nacl/4.4.3/../../../../x86_64-nacl/lib/../lib32/libnacl.a(nacl_irt_init_7b4f826e.o)
 .rodata        0x0000000010022c9c        0x4 /home/jfb/nacl_sdk/pepper_42/toolchain/linux_x86_newlib/bin/../lib/gcc/x86_64-nacl/4.4.3/../../../../x86_64-nacl/lib/../lib32/libcrt_common.a(lib_a-impure.o)
                0x0000000010022c9c                _global_impure_ptr
 .rodata.str1.1
                0x0000000000000000       0x88 /home/jfb/nacl_sdk/pepper_42/toolchain/linux_x86_newlib/bin/../lib/gcc/x86_64-nacl/4.4.3/../../../../x86_64-nacl/lib/../lib32/libcrt_common.a(lib_a-impure.o)
                                          0x2 (size before relaxing)
 .rodata.str1.1
                0x0000000010022ca0      0x56b /home/jfb/nacl_sdk/pepper_42/toolchain/linux_x86_newlib/bin/../lib/gcc/x86_64-nacl/4.4.3/../../../../x86_64-nacl/lib/../lib32/libcrt_common.a(lib_a-strerror.o)
                                        0x56c (size before relaxing)
 *fill*         0x000000001002320b        0x1 
 .rodata.str1.4
                0x000000001002320c      0x1d4 /home/jfb/nacl_sdk/pepper_42/toolchain/linux_x86_newlib/bin/../lib/gcc/x86_64-nacl/4.4.3/../../../../x86_64-nacl/lib/../lib32/libcrt_common.a(lib_a-strerror.o)
                                        0x1d1 (size before relaxing)
 .rodata.str1.1
                0x00000000100233e0       0x39 /home/jfb/nacl_sdk/pepper_42/toolchain/linux_x86_newlib/bin/../lib/gcc/x86_64-nacl/4.4.3/../../../../x86_64-nacl/lib/../lib32/libcrt_common.a(lib_a-svfprintf.o)
                                         0x3b (size before relaxing)
 *fill*         0x0000000010023419        0x3 
 .rodata        0x000000001002341c      0x18c /home/jfb/nacl_sdk/pepper_42/toolchain/linux_x86_newlib/bin/../lib/gcc/x86_64-nacl/4.4.3/../../../../x86_64-nacl/lib/../lib32/libcrt_common.a(lib_a-svfprintf.o)
 .rodata.cst4   0x00000000100235a8        0xc /home/jfb/nacl_sdk/pepper_42/toolchain/linux_x86_newlib/bin/../lib/gcc/x86_64-nacl/4.4.3/../../../../x86_64-nacl/lib/../lib32/libcrt_common.a(lib_a-svfprintf.o)
 .rodata.str1.1
                0x0000000000000000       0x3b /home/jfb/nacl_sdk/pepper_42/toolchain/linux_x86_newlib/bin/../lib/gcc/x86_64-nacl/4.4.3/../../../../x86_64-nacl/lib/../lib32/libcrt_common.a(lib_a-vfprintf.o)
 .rodata        0x00000000100235b4      0x18c /home/jfb/nacl_sdk/pepper_42/toolchain/linux_x86_newlib/bin/../lib/gcc/x86_64-nacl/4.4.3/../../../../x86_64-nacl/lib/../lib32/libcrt_common.a(lib_a-vfprintf.o)
 .rodata.cst4   0x0000000000000000        0xc /home/jfb/nacl_sdk/pepper_42/toolchain/linux_x86_newlib/bin/../lib/gcc/x86_64-nacl/4.4.3/../../../../x86_64-nacl/lib/../lib32/libcrt_common.a(lib_a-vfprintf.o)
 .rodata.str1.1
                0x0000000010023740        0xd /home/jfb/nacl_sdk/pepper_42/toolchain/linux_x86_newlib/bin/../lib/gcc/x86_64-nacl/4.4.3/../../../../x86_64-nacl/lib/../lib32/libcrt_common.a(lib_a-dtoa.o)
                                          0xf (size before relaxing)
 *fill*         0x000000001002374d        0x3 
 .rodata.cst4   0x0000000010023750       0x14 /home/jfb/nacl_sdk/pepper_42/toolchain/linux_x86_newlib/bin/../lib/gcc/x86_64-nacl/4.4.3/../../../../x86_64-nacl/lib/../lib32/libcrt_common.a(lib_a-dtoa.o)
                                         0x18 (size before relaxing)
 *fill*         0x0000000010023764        0x4 
 .rodata.cst8   0x0000000010023768       0x18 /home/jfb/nacl_sdk/pepper_42/toolchain/linux_x86_newlib/bin/../lib/gcc/x86_64-nacl/4.4.3/../../../../x86_64-nacl/lib/../lib32/libcrt_common.a(lib_a-dtoa.o)
 .rodata.str1.1
                0x0000000010023780       0xe6 /home/jfb/nacl_sdk/pepper_42/toolchain/linux_x86_newlib/bin/../lib/gcc/x86_64-nacl/4.4.3/../../../../x86_64-nacl/lib/../lib32/libcrt_common.a(lib_a-locale.o)
                                         0xf4 (size before relaxing)
 *fill*         0x0000000010023866        0x2 
 .rodata        0x0000000010023868       0xf0 /home/jfb/nacl_sdk/pepper_42/toolchain/linux_x86_newlib/bin/../lib/gcc/x86_64-nacl/4.4.3/../../../../x86_64-nacl/lib/../lib32/libcrt_common.a(lib_a-locale.o)
 *fill*         0x0000000010023958        0x8 
 .rodata        0x0000000010023960      0x260 /home/jfb/nacl_sdk/pepper_42/toolchain/linux_x86_newlib/bin/../lib/gcc/x86_64-nacl/4.4.3/../../../../x86_64-nacl/lib/../lib32/libcrt_common.a(lib_a-mbtowc_r.o)
 .rodata        0x0000000010023bc0      0x154 /home/jfb/nacl_sdk/pepper_42/toolchain/linux_x86_newlib/bin/../lib/gcc/x86_64-nacl/4.4.3/../../../../x86_64-nacl/lib/../lib32/libcrt_common.a(lib_a-mprec.o)
                0x0000000010023bc0                __mprec_tens
                0x0000000010023ca0                __mprec_bigtens
                0x0000000010023ce0                __mprec_tinytens
 .rodata.cst4   0x0000000000000000        0x4 /home/jfb/nacl_sdk/pepper_42/toolchain/linux_x86_newlib/bin/../lib/gcc/x86_64-nacl/4.4.3/../../../../x86_64-nacl/lib/../lib32/libcrt_common.a(lib_a-mprec.o)
 .rodata.cst4   0x0000000010023d14        0x4 /home/jfb/nacl_sdk/pepper_42/toolchain/linux_x86_newlib/bin/../lib/gcc/x86_64-nacl/4.4.3/../../../../x86_64-nacl/lib/../lib32/libcrt_common.a(lib_a-s_frexp.o)
 .rodata.str1.1
                0x0000000000000000       0x29 /home/jfb/nacl_sdk/pepper_42/toolchain/linux_x86_newlib/bin/../lib/gcc/x86_64-nacl/4.4.3/../../../../x86_64-nacl/lib/../lib32/libcrt_common.a(lib_a-svfiprintf.o)
 .rodata        0x0000000010023d18      0x18c /home/jfb/nacl_sdk/pepper_42/toolchain/linux_x86_newlib/bin/../lib/gcc/x86_64-nacl/4.4.3/../../../../x86_64-nacl/lib/../lib32/libcrt_common.a(lib_a-svfiprintf.o)
 .rodata.str1.1
                0x0000000000000000       0x29 /home/jfb/nacl_sdk/pepper_42/toolchain/linux_x86_newlib/bin/../lib/gcc/x86_64-nacl/4.4.3/../../../../x86_64-nacl/lib/../lib32/libcrt_common.a(lib_a-vfiprintf.o)
 .rodata        0x0000000010023ea4      0x18c /home/jfb/nacl_sdk/pepper_42/toolchain/linux_x86_newlib/bin/../lib/gcc/x86_64-nacl/4.4.3/../../../../x86_64-nacl/lib/../lib32/libcrt_common.a(lib_a-vfiprintf.o)
 *fill*         0x0000000010024030       0x10 
 .rodata        0x0000000010024040      0x2a0 /home/jfb/nacl_sdk/pepper_42/toolchain/linux_x86_newlib/bin/../lib/gcc/x86_64-nacl/4.4.3/../../../../x86_64-nacl/lib/../lib32/libcrt_common.a(lib_a-ctype_.o)
                0x0000000010024040                _ctype_
 .rodata.str1.1
                0x00000000100242e0       0x16 /home/jfb/nacl_sdk/pepper_42/toolchain/linux_x86_newlib/bin/../lib/gcc/x86_64-nacl/4.4.3/../../../../x86_64-nacl/lib/../lib32/libnacl.a(nacl_irt_fdio_b571b5e7.o)
                                         0x3e (size before relaxing)

.rodata1
 *(.rodata1)

.eh_frame_hdr   0x00000000100242f8     0x1abc
 *(.eh_frame_hdr)
 .eh_frame_hdr  0x00000000100242f8     0x1abc newlib/Release/multi_platform_x86_32.o

.eh_frame       0x0000000010025db4     0x62d8
 *(.eh_frame)
 .eh_frame      0x0000000010025db4        0x0 /home/jfb/nacl_sdk/pepper_42/toolchain/linux_x86_newlib/bin/../lib/gcc/x86_64-nacl/4.4.3/32/crtbegin.o
 .eh_frame      0x0000000010025db4      0x10c newlib/Release/multi_platform_x86_32.o
 .eh_frame      0x0000000010025ec0      0x484 /home/jfb/nacl_sdk/pepper_42//lib/newlib_x86_32/Release/libppapi_cpp.a(instance_x86_32.o)
                                        0x4c0 (size before relaxing)
 .eh_frame      0x0000000010026344      0x3d8 /home/jfb/nacl_sdk/pepper_42//lib/newlib_x86_32/Release/libppapi_cpp.a(module_x86_32.o)
                                        0x414 (size before relaxing)
 .eh_frame      0x000000001002671c       0x8c /home/jfb/nacl_sdk/pepper_42//lib/newlib_x86_32/Release/libppapi_cpp.a(ppp_entrypoints_x86_32.o)
                                         0xa8 (size before relaxing)
 .eh_frame      0x00000000100267a8      0x1b4 /home/jfb/nacl_sdk/pepper_42//lib/newlib_x86_32/Release/libppapi_cpp.a(resource_x86_32.o)
                                        0x1d0 (size before relaxing)
 .eh_frame      0x000000001002695c      0x200 /home/jfb/nacl_sdk/pepper_42//lib/newlib_x86_32/Release/libppapi_cpp.a(url_loader_x86_32.o)
                                        0x274 (size before relaxing)
 .eh_frame      0x0000000010026b5c       0xe8 /home/jfb/nacl_sdk/pepper_42//lib/newlib_x86_32/Release/libppapi_cpp.a(url_response_info_x86_32.o)
                                        0x15c (size before relaxing)
 .eh_frame      0x0000000010026c44      0x440 /home/jfb/nacl_sdk/pepper_42//lib/newlib_x86_32/Release/libppapi_cpp.a(var_x86_32.o)
                                        0x47c (size before relaxing)
 .eh_frame      0x0000000010027084      0x198 /home/jfb/nacl_sdk/pepper_42//lib/newlib_x86_32/Release/libppapi_cpp.a(view_x86_32.o)
                                        0x20c (size before relaxing)
 .eh_frame      0x000000001002721c       0x3c /home/jfb/nacl_sdk/pepper_42//lib/newlib_x86_32/Release/libppapi_cpp.a(core_x86_32.o)
                                         0x58 (size before relaxing)
 .eh_frame      0x0000000010027258      0x2ac /home/jfb/nacl_sdk/pepper_42//lib/newlib_x86_32/Release/libppapi_cpp.a(file_ref_x86_32.o)
                                        0x320 (size before relaxing)
 .eh_frame      0x0000000010027504      0x980 /home/jfb/nacl_sdk/pepper_42//lib/newlib_x86_32/Release/libppapi_cpp.a(input_event_x86_32.o)
                                        0x9bc (size before relaxing)
 .eh_frame      0x0000000010027e84       0x34 /home/jfb/nacl_sdk/pepper_42/toolchain/linux_x86_newlib/bin/../lib/gcc/x86_64-nacl/4.4.3/../../../../x86_64-nacl/lib/../lib32/libppapi_stub.a(plugin_main_irt_21ce9d26.o)
 .eh_frame      0x0000000010027eb8       0x14 /home/jfb/nacl_sdk/pepper_42/toolchain/linux_x86_newlib/bin/../lib/gcc/x86_64-nacl/4.4.3/../../../../x86_64-nacl/lib/../lib32/libppapi_stub.a(ppapi_plugin_main_399d0cf7.o)
                                         0x2c (size before relaxing)
 .eh_frame      0x0000000010027ecc       0x38 /home/jfb/nacl_sdk/pepper_42/toolchain/linux_x86_newlib/bin/../lib/gcc/x86_64-nacl/4.4.3/../../../../x86_64-nacl/lib/../lib32/libppapi_stub.a(ppapi_plugin_start_8da67623.o)
                                         0x50 (size before relaxing)
 .eh_frame      0x0000000010027f04       0x3c /home/jfb/nacl_sdk/pepper_42/toolchain/linux_x86_newlib/bin/../lib/gcc/x86_64-nacl/4.4.3/../../../../x86_64-nacl/lib/../lib32/libppapi_stub.a(thread_creator_ccf263e1.o)
                                         0x54 (size before relaxing)
 .eh_frame      0x0000000010027f40      0x3c4 /home/jfb/nacl_sdk/pepper_42/toolchain/linux_x86_newlib/bin/../lib/gcc/x86_64-nacl/4.4.3/../../../../x86_64-nacl/lib/../lib32/libpthread.a(nc_thread_7e478b15.o)
                                        0x3dc (size before relaxing)
 .eh_frame      0x0000000010028304       0x98 /home/jfb/nacl_sdk/pepper_42/toolchain/linux_x86_newlib/bin/../lib/gcc/x86_64-nacl/4.4.3/../../../../x86_64-nacl/lib/../lib32/libpthread.a(nc_condvar_305aa45a.o)
                                         0xb0 (size before relaxing)
 .eh_frame      0x000000001002839c      0x300 /home/jfb/nacl_sdk/pepper_42/toolchain/linux_x86_newlib/bin/../lib/gcc/x86_64-nacl/4.4.3/../../../../x86_64-nacl/lib/../lib32/libpthread.a(dynamic_annotations_33ba59cc.o)
                                        0x318 (size before relaxing)
 .eh_frame      0x000000001002869c      0x128 /home/jfb/nacl_sdk/pepper_42/toolchain/linux_x86_newlib/bin/../lib/gcc/x86_64-nacl/4.4.3/../../../../x86_64-nacl/lib/../lib32/libpthread.a(nc_mutex_86341ae1.o)
                                        0x140 (size before relaxing)
 .eh_frame      0x00000000100287c4       0x14 /home/jfb/nacl_sdk/pepper_42/toolchain/linux_x86_newlib/bin/../lib/gcc/x86_64-nacl/4.4.3/../../../../x86_64-nacl/lib/../lib32/libpthread.a(nc_init_irt_d3daafc0.o)
                                         0x2c (size before relaxing)
 .eh_frame      0x00000000100287d8      0x104 /home/jfb/nacl_sdk/pepper_42/toolchain/linux_x86_newlib/bin/../lib/gcc/x86_64-nacl/4.4.3/../../../../x86_64-nacl/lib/../lib32/libstdc++.a(tree.o)
                                        0x120 (size before relaxing)
 .eh_frame      0x00000000100288dc     0x14bc /home/jfb/nacl_sdk/pepper_42/toolchain/linux_x86_newlib/bin/../lib/gcc/x86_64-nacl/4.4.3/../../../../x86_64-nacl/lib/../lib32/libstdc++.a(string-inst.o)
                                       0x14f8 (size before relaxing)
 .eh_frame      0x0000000010029d98      0x114 /home/jfb/nacl_sdk/pepper_42/toolchain/linux_x86_newlib/bin/../lib/gcc/x86_64-nacl/4.4.3/../../../../x86_64-nacl/lib/../lib32/libstdc++.a(eh_personality.o)
                                        0x150 (size before relaxing)
 .eh_frame      0x0000000010029eac       0x98 /home/jfb/nacl_sdk/pepper_42/toolchain/linux_x86_newlib/bin/../lib/gcc/x86_64-nacl/4.4.3/../../../../x86_64-nacl/lib/../lib32/libstdc++.a(eh_globals.o)
                                         0xd4 (size before relaxing)
 .eh_frame      0x0000000010029f44       0x54 /home/jfb/nacl_sdk/pepper_42/toolchain/linux_x86_newlib/bin/../lib/gcc/x86_64-nacl/4.4.3/../../../../x86_64-nacl/lib/../lib32/libstdc++.a(eh_throw.o)
                                         0x70 (size before relaxing)
 .eh_frame      0x0000000010029f98       0x1c /home/jfb/nacl_sdk/pepper_42/toolchain/linux_x86_newlib/bin/../lib/gcc/x86_64-nacl/4.4.3/../../../../x86_64-nacl/lib/../lib32/libstdc++.a(del_op.o)
                                         0x38 (size before relaxing)
 .eh_frame      0x0000000010029fb4       0x1c /home/jfb/nacl_sdk/pepper_42/toolchain/linux_x86_newlib/bin/../lib/gcc/x86_64-nacl/4.4.3/../../../../x86_64-nacl/lib/../lib32/libstdc++.a(eh_call.o)
                                         0x38 (size before relaxing)
 .eh_frame      0x0000000010029fd0      0x18c /home/jfb/nacl_sdk/pepper_42/toolchain/linux_x86_newlib/bin/../lib/gcc/x86_64-nacl/4.4.3/../../../../x86_64-nacl/lib/../lib32/libstdc++.a(guard.o)
                                        0x1c8 (size before relaxing)
 .eh_frame      0x000000001002a15c       0xc0 /home/jfb/nacl_sdk/pepper_42/toolchain/linux_x86_newlib/bin/../lib/gcc/x86_64-nacl/4.4.3/../../../../x86_64-nacl/lib/../lib32/libstdc++.a(si_class_type_info.o)
                                         0xdc (size before relaxing)
 .eh_frame      0x000000001002a21c       0xac /home/jfb/nacl_sdk/pepper_42/toolchain/linux_x86_newlib/bin/../lib/gcc/x86_64-nacl/4.4.3/../../../../x86_64-nacl/lib/../lib32/libstdc++.a(eh_terminate.o)
                                         0xe8 (size before relaxing)
 .eh_frame      0x000000001002a2c8       0xec /home/jfb/nacl_sdk/pepper_42/toolchain/linux_x86_newlib/bin/../lib/gcc/x86_64-nacl/4.4.3/../../../../x86_64-nacl/lib/../lib32/libstdc++.a(class_type_info.o)
                                        0x108 (size before relaxing)
 .eh_frame      0x000000001002a3b4       0xc4 /home/jfb/nacl_sdk/pepper_42/toolchain/linux_x86_newlib/bin/../lib/gcc/x86_64-nacl/4.4.3/../../../../x86_64-nacl/lib/../lib32/libstdc++.a(eh_alloc.o)
                                        0x1a8 (size before relaxing)
 .eh_frame      0x000000001002a478       0x78 /home/jfb/nacl_sdk/pepper_42/toolchain/linux_x86_newlib/bin/../lib/gcc/x86_64-nacl/4.4.3/../../../../x86_64-nacl/lib/../lib32/libstdc++.a(eh_catch.o)
                                         0xb4 (size before relaxing)
 .eh_frame      0x000000001002a4f0      0x188 /home/jfb/nacl_sdk/pepper_42/toolchain/linux_x86_newlib/bin/../lib/gcc/x86_64-nacl/4.4.3/../../../../x86_64-nacl/lib/../lib32/libstdc++.a(eh_exception.o)
                                        0x1a4 (size before relaxing)
 .eh_frame      0x000000001002a678       0x1c /home/jfb/nacl_sdk/pepper_42/toolchain/linux_x86_newlib/bin/../lib/gcc/x86_64-nacl/4.4.3/../../../../x86_64-nacl/lib/../lib32/libstdc++.a(pure.o)
                                         0x38 (size before relaxing)
 .eh_frame      0x000000001002a694       0x20 /home/jfb/nacl_sdk/pepper_42/toolchain/linux_x86_newlib/bin/../lib/gcc/x86_64-nacl/4.4.3/../../../../x86_64-nacl/lib/../lib32/libstdc++.a(new_op.o)
                                         0x40 (size before relaxing)
 .eh_frame      0x000000001002a6b4       0xc4 /home/jfb/nacl_sdk/pepper_42/toolchain/linux_x86_newlib/bin/../lib/gcc/x86_64-nacl/4.4.3/../../../../x86_64-nacl/lib/../lib32/libstdc++.a(tinfo.o)
                                         0xe0 (size before relaxing)
 .eh_frame      0x000000001002a778      0x3ac /home/jfb/nacl_sdk/pepper_42/toolchain/linux_x86_newlib/bin/../lib/gcc/x86_64-nacl/4.4.3/../../../../x86_64-nacl/lib/../lib32/libstdc++.a(functexcept.o)
                                        0x3e8 (size before relaxing)
 .eh_frame      0x000000001002ab24       0xb0 /home/jfb/nacl_sdk/pepper_42/toolchain/linux_x86_newlib/bin/../lib/gcc/x86_64-nacl/4.4.3/../../../../x86_64-nacl/lib/../lib32/libstdc++.a(ios_failure.o)
                                         0xec (size before relaxing)
 .eh_frame      0x000000001002abd4      0x2e8 /home/jfb/nacl_sdk/pepper_42/toolchain/linux_x86_newlib/bin/../lib/gcc/x86_64-nacl/4.4.3/../../../../x86_64-nacl/lib/../lib32/libstdc++.a(stdexcept.o)
                                        0x4ac (size before relaxing)
 .eh_frame      0x000000001002aebc      0x23c /home/jfb/nacl_sdk/pepper_42/toolchain/linux_x86_newlib/bin/../lib/gcc/x86_64-nacl/4.4.3/../../../../x86_64-nacl/lib/../lib32/libstdc++.a(system_error.o)
                                        0x278 (size before relaxing)
 .eh_frame      0x000000001002b0f8       0x70 /home/jfb/nacl_sdk/pepper_42/toolchain/linux_x86_newlib/bin/../lib/gcc/x86_64-nacl/4.4.3/../../../../x86_64-nacl/lib/../lib32/libstdc++.a(bad_typeid.o)
                                         0x8c (size before relaxing)
 .eh_frame      0x000000001002b168       0x8c /home/jfb/nacl_sdk/pepper_42/toolchain/linux_x86_newlib/bin/../lib/gcc/x86_64-nacl/4.4.3/../../../../x86_64-nacl/lib/../lib32/libstdc++.a(new_handler.o)
                                         0xa8 (size before relaxing)
 .eh_frame      0x000000001002b1f4       0x70 /home/jfb/nacl_sdk/pepper_42/toolchain/linux_x86_newlib/bin/../lib/gcc/x86_64-nacl/4.4.3/../../../../x86_64-nacl/lib/../lib32/libstdc++.a(bad_cast.o)
                                         0x8c (size before relaxing)
 .eh_frame      0x000000001002b264       0x24 /home/jfb/nacl_sdk/pepper_42/toolchain/linux_x86_newlib/bin/../lib/gcc/x86_64-nacl/4.4.3/../../../../x86_64-nacl/lib/../lib32/libstdc++.a(vterminate.o)
                                         0x44 (size before relaxing)
 .eh_frame      0x000000001002b288       0x1c /home/jfb/nacl_sdk/pepper_42/toolchain/linux_x86_newlib/bin/../lib/gcc/x86_64-nacl/4.4.3/../../../../x86_64-nacl/lib/../lib32/libstdc++.a(eh_type.o)
                                         0x38 (size before relaxing)
 .eh_frame      0x000000001002b2a4      0x3c8 /home/jfb/nacl_sdk/pepper_42/toolchain/linux_x86_newlib/bin/../lib/gcc/x86_64-nacl/4.4.3/32/libgcc.a(unwind-dw2.o)
                                        0x3e0 (size before relaxing)
 .eh_frame      0x000000001002b66c      0x2d4 /home/jfb/nacl_sdk/pepper_42/toolchain/linux_x86_newlib/bin/../lib/gcc/x86_64-nacl/4.4.3/32/libgcc.a(unwind-dw2-fde-glibc.o)
                                        0x2ec (size before relaxing)
 .eh_frame      0x000000001002b940       0x14 /home/jfb/nacl_sdk/pepper_42/toolchain/linux_x86_newlib/bin/../lib/gcc/x86_64-nacl/4.4.3/../../../../x86_64-nacl/lib/../lib32/libnacl.a(_exit_710c7d0d.o)
                                         0x2c (size before relaxing)
 .eh_frame      0x000000001002b954       0x14 /home/jfb/nacl_sdk/pepper_42/toolchain/linux_x86_newlib/bin/../lib/gcc/x86_64-nacl/4.4.3/../../../../x86_64-nacl/lib/../lib32/libnacl.a(abort_9f6b5845.o)
                                         0x2c (size before relaxing)
 .eh_frame      0x000000001002b968       0x20 /home/jfb/nacl_sdk/pepper_42/toolchain/linux_x86_newlib/bin/../lib/gcc/x86_64-nacl/4.4.3/../../../../x86_64-nacl/lib/../lib32/libnacl.a(start_fa9ef7de.o)
                                         0x38 (size before relaxing)
 .eh_frame      0x000000001002b988      0x3b0 /home/jfb/nacl_sdk/pepper_42/toolchain/linux_x86_newlib/bin/../lib/gcc/x86_64-nacl/4.4.3/../../../../x86_64-nacl/lib/../lib32/libnacl.a(malloc_222c4a1e.o)
                                        0x3c8 (size before relaxing)
 .eh_frame      0x000000001002bd38      0x108 /home/jfb/nacl_sdk/pepper_42/toolchain/linux_x86_newlib/bin/../lib/gcc/x86_64-nacl/4.4.3/../../../../x86_64-nacl/lib/../lib32/libnacl.a(nacl_irt_6de1d53f.o)
                                        0x120 (size before relaxing)
 .eh_frame      0x000000001002be40       0x1c /home/jfb/nacl_sdk/pepper_42/toolchain/linux_x86_newlib/bin/../lib/gcc/x86_64-nacl/4.4.3/../../../../x86_64-nacl/lib/../lib32/libnacl.a(pthread_initialize_minimal_4b6e776b.o)
                                         0x34 (size before relaxing)
 .eh_frame      0x000000001002be5c       0x14 /home/jfb/nacl_sdk/pepper_42/toolchain/linux_x86_newlib/bin/../lib/gcc/x86_64-nacl/4.4.3/../../../../x86_64-nacl/lib/../lib32/libnacl.a(nacl_read_tp_5748ac47.o)
                                         0x2c (size before relaxing)
 .eh_frame      0x000000001002be70       0x1c /home/jfb/nacl_sdk/pepper_42/toolchain/linux_x86_newlib/bin/../lib/gcc/x86_64-nacl/4.4.3/../../../../x86_64-nacl/lib/../lib32/libnacl.a(mmap_767fb080.o)
                                         0x34 (size before relaxing)
 .eh_frame      0x000000001002be8c       0x1c /home/jfb/nacl_sdk/pepper_42/toolchain/linux_x86_newlib/bin/../lib/gcc/x86_64-nacl/4.4.3/../../../../x86_64-nacl/lib/../lib32/libnacl.a(sched_yield_56c375be.o)
                                         0x34 (size before relaxing)
 .eh_frame      0x000000001002bea8       0x1c /home/jfb/nacl_sdk/pepper_42/toolchain/linux_x86_newlib/bin/../lib/gcc/x86_64-nacl/4.4.3/../../../../x86_64-nacl/lib/../lib32/libnacl.a(munmap_d4f09867.o)
                                         0x34 (size before relaxing)
 .eh_frame      0x000000001002bec4       0x54 /home/jfb/nacl_sdk/pepper_42/toolchain/linux_x86_newlib/bin/../lib/gcc/x86_64-nacl/4.4.3/../../../../x86_64-nacl/lib/../lib32/libnacl.a(tls_bba1975b.o)
                                         0x6c (size before relaxing)
 .eh_frame      0x000000001002bf18       0x1c /home/jfb/nacl_sdk/pepper_42/toolchain/linux_x86_newlib/bin/../lib/gcc/x86_64-nacl/4.4.3/../../../../x86_64-nacl/lib/../lib32/libnacl.a(write_fb49787f.o)
                                         0x34 (size before relaxing)
 .eh_frame      0x000000001002bf34       0x14 /home/jfb/nacl_sdk/pepper_42/toolchain/linux_x86_newlib/bin/../lib/gcc/x86_64-nacl/4.4.3/../../../../x86_64-nacl/lib/../lib32/libnacl.a(nacl_tls_get_d2f842b5.o)
                                         0x2c (size before relaxing)
 .eh_frame      0x000000001002bf48       0x30 /home/jfb/nacl_sdk/pepper_42/toolchain/linux_x86_newlib/bin/../lib/gcc/x86_64-nacl/4.4.3/../../../../x86_64-nacl/lib/../lib32/libnacl.a(nacl_irt_init_7b4f826e.o)
                                         0x48 (size before relaxing)
 .eh_frame      0x000000001002bf78       0x1c /home/jfb/nacl_sdk/pepper_42/toolchain/linux_x86_newlib/bin/../lib/gcc/x86_64-nacl/4.4.3/../../../../x86_64-nacl/lib/../lib32/libnacl.a(sysconf_ad295ea2.o)
                                         0x34 (size before relaxing)
 .eh_frame      0x000000001002bf94       0x14 /home/jfb/nacl_sdk/pepper_42/toolchain/linux_x86_newlib/bin/../lib/gcc/x86_64-nacl/4.4.3/../../../../x86_64-nacl/lib/../lib32/libnacl.a(nacl_tls_init_eb0cd232.o)
                                         0x2c (size before relaxing)
 .eh_frame      0x000000001002bfa8       0x1c /home/jfb/nacl_sdk/pepper_42/toolchain/linux_x86_newlib/bin/../lib/gcc/x86_64-nacl/4.4.3/../../../../x86_64-nacl/lib/../lib32/libnacl.a(close_e9b92fbd.o)
                                         0x34 (size before relaxing)
 .eh_frame      0x000000001002bfc4       0x1c /home/jfb/nacl_sdk/pepper_42/toolchain/linux_x86_newlib/bin/../lib/gcc/x86_64-nacl/4.4.3/../../../../x86_64-nacl/lib/../lib32/libnacl.a(isatty_02f56e94.o)
                                         0x34 (size before relaxing)
 .eh_frame      0x000000001002bfe0       0x14 /home/jfb/nacl_sdk/pepper_42/toolchain/linux_x86_newlib/bin/../lib/gcc/x86_64-nacl/4.4.3/../../../../x86_64-nacl/lib/../lib32/libnacl.a(nacl_irt_fdio_b571b5e7.o)
                                         0x2c (size before relaxing)
 .eh_frame      0x000000001002bff4       0x1c /home/jfb/nacl_sdk/pepper_42/toolchain/linux_x86_newlib/bin/../lib/gcc/x86_64-nacl/4.4.3/../../../../x86_64-nacl/lib/../lib32/libnacl.a(fstat_0540ff63.o)
                                         0x34 (size before relaxing)
 .eh_frame      0x000000001002c010       0x1c /home/jfb/nacl_sdk/pepper_42/toolchain/linux_x86_newlib/bin/../lib/gcc/x86_64-nacl/4.4.3/../../../../x86_64-nacl/lib/../lib32/libnacl.a(lseek_64d2d05c.o)
                                         0x34 (size before relaxing)
 .eh_frame      0x000000001002c02c       0x1c /home/jfb/nacl_sdk/pepper_42/toolchain/linux_x86_newlib/bin/../lib/gcc/x86_64-nacl/4.4.3/../../../../x86_64-nacl/lib/../lib32/libnacl.a(read_df872e10.o)
                                         0x34 (size before relaxing)
 .eh_frame      0x000000001002c048       0x20 /home/jfb/nacl_sdk/pepper_42/toolchain/linux_x86_newlib/bin/../lib/gcc/x86_64-nacl/4.4.3/32/libgcc.a(_udivdi3.o)
                                         0x38 (size before relaxing)
 .eh_frame      0x000000001002c068       0x20 /home/jfb/nacl_sdk/pepper_42/toolchain/linux_x86_newlib/bin/../lib/gcc/x86_64-nacl/4.4.3/32/libgcc.a(_umoddi3.o)
                                         0x38 (size before relaxing)
 .eh_frame      0x000000001002c088        0x4 /home/jfb/nacl_sdk/pepper_42/toolchain/linux_x86_newlib/bin/../lib/gcc/x86_64-nacl/4.4.3/32/crtend.o

.gcc_except_table
                0x000000001002c08c     0x1430
 *(.gcc_except_table .gcc_except_table.*)
 .gcc_except_table
                0x000000001002c08c       0x38 newlib/Release/multi_platform_x86_32.o
 .gcc_except_table
                0x000000001002c0c4      0x1ef /home/jfb/nacl_sdk/pepper_42//lib/newlib_x86_32/Release/libppapi_cpp.a(instance_x86_32.o)
 *fill*         0x000000001002c2b3        0x1 
 .gcc_except_table
                0x000000001002c2b4       0xff /home/jfb/nacl_sdk/pepper_42//lib/newlib_x86_32/Release/libppapi_cpp.a(module_x86_32.o)
 .gcc_except_table
                0x000000001002c3b3      0x11e /home/jfb/nacl_sdk/pepper_42//lib/newlib_x86_32/Release/libppapi_cpp.a(url_loader_x86_32.o)
 .gcc_except_table
                0x000000001002c4d1       0x3c /home/jfb/nacl_sdk/pepper_42//lib/newlib_x86_32/Release/libppapi_cpp.a(url_response_info_x86_32.o)
 .gcc_except_table
                0x000000001002c50d      0x16c /home/jfb/nacl_sdk/pepper_42//lib/newlib_x86_32/Release/libppapi_cpp.a(var_x86_32.o)
 .gcc_except_table
                0x000000001002c679      0x18f /home/jfb/nacl_sdk/pepper_42//lib/newlib_x86_32/Release/libppapi_cpp.a(view_x86_32.o)
 .gcc_except_table
                0x000000001002c808      0x282 /home/jfb/nacl_sdk/pepper_42//lib/newlib_x86_32/Release/libppapi_cpp.a(file_ref_x86_32.o)
 .gcc_except_table
                0x000000001002ca8a      0x561 /home/jfb/nacl_sdk/pepper_42//lib/newlib_x86_32/Release/libppapi_cpp.a(input_event_x86_32.o)
 .gcc_except_table._ZNSs4_Rep9_S_createEjjRKSaIcE
                0x000000001002cfeb        0xe /home/jfb/nacl_sdk/pepper_42/toolchain/linux_x86_newlib/bin/../lib/gcc/x86_64-nacl/4.4.3/../../../../x86_64-nacl/lib/../lib32/libstdc++.a(string-inst.o)
 .gcc_except_table._ZNSsC1ERKSs
                0x000000001002cff9        0xe /home/jfb/nacl_sdk/pepper_42/toolchain/linux_x86_newlib/bin/../lib/gcc/x86_64-nacl/4.4.3/../../../../x86_64-nacl/lib/../lib32/libstdc++.a(string-inst.o)
 .gcc_except_table._ZNSsC2ERKSs
                0x000000001002d007        0xe /home/jfb/nacl_sdk/pepper_42/toolchain/linux_x86_newlib/bin/../lib/gcc/x86_64-nacl/4.4.3/../../../../x86_64-nacl/lib/../lib32/libstdc++.a(string-inst.o)
 .gcc_except_table._ZNSsC1ERKSsjj
                0x000000001002d015        0xe /home/jfb/nacl_sdk/pepper_42/toolchain/linux_x86_newlib/bin/../lib/gcc/x86_64-nacl/4.4.3/../../../../x86_64-nacl/lib/../lib32/libstdc++.a(string-inst.o)
 .gcc_except_table._ZNSsC2ERKSsjj
                0x000000001002d023        0xe /home/jfb/nacl_sdk/pepper_42/toolchain/linux_x86_newlib/bin/../lib/gcc/x86_64-nacl/4.4.3/../../../../x86_64-nacl/lib/../lib32/libstdc++.a(string-inst.o)
 .gcc_except_table._ZNSs6assignERKSs
                0x000000001002d031        0xf /home/jfb/nacl_sdk/pepper_42/toolchain/linux_x86_newlib/bin/../lib/gcc/x86_64-nacl/4.4.3/../../../../x86_64-nacl/lib/../lib32/libstdc++.a(string-inst.o)
 .gcc_except_table._ZNSs7reserveEj
                0x000000001002d040        0xe /home/jfb/nacl_sdk/pepper_42/toolchain/linux_x86_newlib/bin/../lib/gcc/x86_64-nacl/4.4.3/../../../../x86_64-nacl/lib/../lib32/libstdc++.a(string-inst.o)
 .gcc_except_table._ZStplIcSt11char_traitsIcESaIcEESbIT_T0_T1_ERKS6_S8_
                0x000000001002d04e       0x11 /home/jfb/nacl_sdk/pepper_42/toolchain/linux_x86_newlib/bin/../lib/gcc/x86_64-nacl/4.4.3/../../../../x86_64-nacl/lib/../lib32/libstdc++.a(string-inst.o)
 .gcc_except_table._ZStplIcSt11char_traitsIcESaIcEESbIT_T0_T1_ES3_RKS6_
                0x000000001002d05f        0xe /home/jfb/nacl_sdk/pepper_42/toolchain/linux_x86_newlib/bin/../lib/gcc/x86_64-nacl/4.4.3/../../../../x86_64-nacl/lib/../lib32/libstdc++.a(string-inst.o)
 .gcc_except_table._ZStplIcSt11char_traitsIcESaIcEESbIT_T0_T1_EPKS3_RKS6_
                0x000000001002d06d        0xe /home/jfb/nacl_sdk/pepper_42/toolchain/linux_x86_newlib/bin/../lib/gcc/x86_64-nacl/4.4.3/../../../../x86_64-nacl/lib/../lib32/libstdc++.a(string-inst.o)
 .gcc_except_table._ZNSs9_M_mutateEjjj
                0x000000001002d07b        0xf /home/jfb/nacl_sdk/pepper_42/toolchain/linux_x86_newlib/bin/../lib/gcc/x86_64-nacl/4.4.3/../../../../x86_64-nacl/lib/../lib32/libstdc++.a(string-inst.o)
 .gcc_except_table._ZNSs7replaceEjjPKcj
                0x000000001002d08a       0x1f /home/jfb/nacl_sdk/pepper_42/toolchain/linux_x86_newlib/bin/../lib/gcc/x86_64-nacl/4.4.3/../../../../x86_64-nacl/lib/../lib32/libstdc++.a(string-inst.o)
 *fill*         0x000000001002d0a9        0x3 
 .gcc_except_table.__cxa_call_unexpected
                0x000000001002d0ac       0x24 /home/jfb/nacl_sdk/pepper_42/toolchain/linux_x86_newlib/bin/../lib/gcc/x86_64-nacl/4.4.3/../../../../x86_64-nacl/lib/../lib32/libstdc++.a(eh_personality.o)
 .gcc_except_table.__gxx_personality_v0
                0x000000001002d0d0       0x28 /home/jfb/nacl_sdk/pepper_42/toolchain/linux_x86_newlib/bin/../lib/gcc/x86_64-nacl/4.4.3/../../../../x86_64-nacl/lib/../lib32/libstdc++.a(eh_personality.o)
 .gcc_except_table.__cxa_get_globals
                0x000000001002d0f8       0x15 /home/jfb/nacl_sdk/pepper_42/toolchain/linux_x86_newlib/bin/../lib/gcc/x86_64-nacl/4.4.3/../../../../x86_64-nacl/lib/../lib32/libstdc++.a(eh_globals.o)
 *fill*         0x000000001002d10d        0x3 
 .gcc_except_table.__cxa_get_globals_fast
                0x000000001002d110       0x11 /home/jfb/nacl_sdk/pepper_42/toolchain/linux_x86_newlib/bin/../lib/gcc/x86_64-nacl/4.4.3/../../../../x86_64-nacl/lib/../lib32/libstdc++.a(eh_globals.o)
 .gcc_except_table.__cxa_guard_acquire
                0x000000001002d121       0x18 /home/jfb/nacl_sdk/pepper_42/toolchain/linux_x86_newlib/bin/../lib/gcc/x86_64-nacl/4.4.3/../../../../x86_64-nacl/lib/../lib32/libstdc++.a(guard.o)
 *fill*         0x000000001002d139        0x3 
 .gcc_except_table._ZN10__cxxabiv111__terminateEPFvvE
                0x000000001002d13c       0x1c /home/jfb/nacl_sdk/pepper_42/toolchain/linux_x86_newlib/bin/../lib/gcc/x86_64-nacl/4.4.3/../../../../x86_64-nacl/lib/../lib32/libstdc++.a(eh_terminate.o)
 .gcc_except_table._ZN9__gnu_cxx13__scoped_lockD1Ev
                0x000000001002d158       0x15 /home/jfb/nacl_sdk/pepper_42/toolchain/linux_x86_newlib/bin/../lib/gcc/x86_64-nacl/4.4.3/../../../../x86_64-nacl/lib/../lib32/libstdc++.a(eh_alloc.o)
 *fill*         0x000000001002d16d        0x3 
 .gcc_except_table.__cxa_free_dependent_exception
                0x000000001002d170       0x31 /home/jfb/nacl_sdk/pepper_42/toolchain/linux_x86_newlib/bin/../lib/gcc/x86_64-nacl/4.4.3/../../../../x86_64-nacl/lib/../lib32/libstdc++.a(eh_alloc.o)
 *fill*         0x000000001002d1a1        0x3 
 .gcc_except_table.__cxa_free_exception
                0x000000001002d1a4       0x31 /home/jfb/nacl_sdk/pepper_42/toolchain/linux_x86_newlib/bin/../lib/gcc/x86_64-nacl/4.4.3/../../../../x86_64-nacl/lib/../lib32/libstdc++.a(eh_alloc.o)
 *fill*         0x000000001002d1d5        0x3 
 .gcc_except_table.__cxa_allocate_exception
                0x000000001002d1d8       0x35 /home/jfb/nacl_sdk/pepper_42/toolchain/linux_x86_newlib/bin/../lib/gcc/x86_64-nacl/4.4.3/../../../../x86_64-nacl/lib/../lib32/libstdc++.a(eh_alloc.o)
 *fill*         0x000000001002d20d        0x3 
 .gcc_except_table.__cxa_allocate_dependent_exception
                0x000000001002d210       0x35 /home/jfb/nacl_sdk/pepper_42/toolchain/linux_x86_newlib/bin/../lib/gcc/x86_64-nacl/4.4.3/../../../../x86_64-nacl/lib/../lib32/libstdc++.a(eh_alloc.o)
 *fill*         0x000000001002d245        0x3 
 .gcc_except_table.__cxa_begin_catch
                0x000000001002d248       0x15 /home/jfb/nacl_sdk/pepper_42/toolchain/linux_x86_newlib/bin/../lib/gcc/x86_64-nacl/4.4.3/../../../../x86_64-nacl/lib/../lib32/libstdc++.a(eh_catch.o)
 *fill*         0x000000001002d25d        0x3 
 .gcc_except_table._Znwj
                0x000000001002d260       0x1a /home/jfb/nacl_sdk/pepper_42/toolchain/linux_x86_newlib/bin/../lib/gcc/x86_64-nacl/4.4.3/../../../../x86_64-nacl/lib/../lib32/libstdc++.a(new_op.o)
 .gcc_except_table._ZSt20__throw_system_errori
                0x000000001002d27a       0x1c /home/jfb/nacl_sdk/pepper_42/toolchain/linux_x86_newlib/bin/../lib/gcc/x86_64-nacl/4.4.3/../../../../x86_64-nacl/lib/../lib32/libstdc++.a(functexcept.o)
 .gcc_except_table._ZSt19__throw_ios_failurePKc
                0x000000001002d296        0xf /home/jfb/nacl_sdk/pepper_42/toolchain/linux_x86_newlib/bin/../lib/gcc/x86_64-nacl/4.4.3/../../../../x86_64-nacl/lib/../lib32/libstdc++.a(functexcept.o)
 *fill*         0x000000001002d2a5        0x3 
 .gcc_except_table._ZSt23__throw_underflow_errorPKc
                0x000000001002d2a8       0x25 /home/jfb/nacl_sdk/pepper_42/toolchain/linux_x86_newlib/bin/../lib/gcc/x86_64-nacl/4.4.3/../../../../x86_64-nacl/lib/../lib32/libstdc++.a(functexcept.o)
 *fill*         0x000000001002d2cd        0x3 
 .gcc_except_table._ZSt22__throw_overflow_errorPKc
                0x000000001002d2d0       0x25 /home/jfb/nacl_sdk/pepper_42/toolchain/linux_x86_newlib/bin/../lib/gcc/x86_64-nacl/4.4.3/../../../../x86_64-nacl/lib/../lib32/libstdc++.a(functexcept.o)
 *fill*         0x000000001002d2f5        0x3 
 .gcc_except_table._ZSt19__throw_range_errorPKc
                0x000000001002d2f8       0x25 /home/jfb/nacl_sdk/pepper_42/toolchain/linux_x86_newlib/bin/../lib/gcc/x86_64-nacl/4.4.3/../../../../x86_64-nacl/lib/../lib32/libstdc++.a(functexcept.o)
 *fill*         0x000000001002d31d        0x3 
 .gcc_except_table._ZSt21__throw_runtime_errorPKc
                0x000000001002d320       0x25 /home/jfb/nacl_sdk/pepper_42/toolchain/linux_x86_newlib/bin/../lib/gcc/x86_64-nacl/4.4.3/../../../../x86_64-nacl/lib/../lib32/libstdc++.a(functexcept.o)
 *fill*         0x000000001002d345        0x3 
 .gcc_except_table._ZSt20__throw_out_of_rangePKc
                0x000000001002d348       0x25 /home/jfb/nacl_sdk/pepper_42/toolchain/linux_x86_newlib/bin/../lib/gcc/x86_64-nacl/4.4.3/../../../../x86_64-nacl/lib/../lib32/libstdc++.a(functexcept.o)
 *fill*         0x000000001002d36d        0x3 
 .gcc_except_table._ZSt20__throw_length_errorPKc
                0x000000001002d370       0x25 /home/jfb/nacl_sdk/pepper_42/toolchain/linux_x86_newlib/bin/../lib/gcc/x86_64-nacl/4.4.3/../../../../x86_64-nacl/lib/../lib32/libstdc++.a(functexcept.o)
 *fill*         0x000000001002d395        0x3 
 .gcc_except_table._ZSt24__throw_invalid_argumentPKc
                0x000000001002d398       0x25 /home/jfb/nacl_sdk/pepper_42/toolchain/linux_x86_newlib/bin/../lib/gcc/x86_64-nacl/4.4.3/../../../../x86_64-nacl/lib/../lib32/libstdc++.a(functexcept.o)
 *fill*         0x000000001002d3bd        0x3 
 .gcc_except_table._ZSt20__throw_domain_errorPKc
                0x000000001002d3c0       0x25 /home/jfb/nacl_sdk/pepper_42/toolchain/linux_x86_newlib/bin/../lib/gcc/x86_64-nacl/4.4.3/../../../../x86_64-nacl/lib/../lib32/libstdc++.a(functexcept.o)
 *fill*         0x000000001002d3e5        0x3 
 .gcc_except_table._ZSt19__throw_logic_errorPKc
                0x000000001002d3e8       0x25 /home/jfb/nacl_sdk/pepper_42/toolchain/linux_x86_newlib/bin/../lib/gcc/x86_64-nacl/4.4.3/../../../../x86_64-nacl/lib/../lib32/libstdc++.a(functexcept.o)
 *fill*         0x000000001002d40d        0x3 
 .gcc_except_table._ZNSt8ios_base7failureC1ERKSs
                0x000000001002d410       0x15 /home/jfb/nacl_sdk/pepper_42/toolchain/linux_x86_newlib/bin/../lib/gcc/x86_64-nacl/4.4.3/../../../../x86_64-nacl/lib/../lib32/libstdc++.a(ios_failure.o)
 *fill*         0x000000001002d425        0x3 
 .gcc_except_table._ZNSt8ios_base7failureC2ERKSs
                0x000000001002d428       0x15 /home/jfb/nacl_sdk/pepper_42/toolchain/linux_x86_newlib/bin/../lib/gcc/x86_64-nacl/4.4.3/../../../../x86_64-nacl/lib/../lib32/libstdc++.a(ios_failure.o)
 .gcc_except_table._ZNSt13runtime_errorC1ERKSs
                0x000000001002d43d        0xd /home/jfb/nacl_sdk/pepper_42/toolchain/linux_x86_newlib/bin/../lib/gcc/x86_64-nacl/4.4.3/../../../../x86_64-nacl/lib/../lib32/libstdc++.a(stdexcept.o)
 .gcc_except_table._ZNSt13runtime_errorC2ERKSs
                0x000000001002d44a        0xd /home/jfb/nacl_sdk/pepper_42/toolchain/linux_x86_newlib/bin/../lib/gcc/x86_64-nacl/4.4.3/../../../../x86_64-nacl/lib/../lib32/libstdc++.a(stdexcept.o)
 .gcc_except_table._ZNSt11logic_errorC1ERKSs
                0x000000001002d457        0xd /home/jfb/nacl_sdk/pepper_42/toolchain/linux_x86_newlib/bin/../lib/gcc/x86_64-nacl/4.4.3/../../../../x86_64-nacl/lib/../lib32/libstdc++.a(stdexcept.o)
 .gcc_except_table._ZNSt11logic_errorC2ERKSs
                0x000000001002d464        0xd /home/jfb/nacl_sdk/pepper_42/toolchain/linux_x86_newlib/bin/../lib/gcc/x86_64-nacl/4.4.3/../../../../x86_64-nacl/lib/../lib32/libstdc++.a(stdexcept.o)
 .gcc_except_table._ZNK12_GLOBAL__N_122generic_error_category7messageEi
                0x000000001002d471        0xc /home/jfb/nacl_sdk/pepper_42/toolchain/linux_x86_newlib/bin/../lib/gcc/x86_64-nacl/4.4.3/../../../../x86_64-nacl/lib/../lib32/libstdc++.a(system_error.o)
 .gcc_except_table._ZNK12_GLOBAL__N_121system_error_category7messageEi
                0x000000001002d47d        0xc /home/jfb/nacl_sdk/pepper_42/toolchain/linux_x86_newlib/bin/../lib/gcc/x86_64-nacl/4.4.3/../../../../x86_64-nacl/lib/../lib32/libstdc++.a(system_error.o)
 *fill*         0x000000001002d489        0x3 
 .gcc_except_table._ZN9__gnu_cxx27__verbose_terminate_handlerEv
                0x000000001002d48c       0x30 /home/jfb/nacl_sdk/pepper_42/toolchain/linux_x86_newlib/bin/../lib/gcc/x86_64-nacl/4.4.3/../../../../x86_64-nacl/lib/../lib32/libstdc++.a(vterminate.o)

.exception_ranges
 *(.exception_ranges .exception_ranges*)
                0x000000001002d4bc                . = (ALIGN (0x10000) - ((0x10000 - .) & 0xffff))
                0x0000000010030000                . = DATA_SEGMENT_ALIGN (0x10000, 0x10000)

.eh_frame
 *(.eh_frame)

.gcc_except_table
 *(.gcc_except_table .gcc_except_table.*)

.exception_ranges
 *(.exception_ranges .exception_ranges*)

.tdata          0x0000000010030000      0x478
 *(.tdata .tdata.* .gnu.linkonce.td.*)
 .tdata         0x0000000010030000      0x478 /home/jfb/nacl_sdk/pepper_42/toolchain/linux_x86_newlib/bin/../lib/gcc/x86_64-nacl/4.4.3/../../../../x86_64-nacl/lib/../lib32/libcrt_common.a(lib_a-impure.o)
                0x0000000010030000                _impure_ptr

.tbss           0x0000000010030478        0x8
 *(.tbss .tbss.* .gnu.linkonce.tb.*)
 .tbss          0x0000000010030478        0x8 /home/jfb/nacl_sdk/pepper_42/toolchain/linux_x86_newlib/bin/../lib/gcc/x86_64-nacl/4.4.3/../../../../x86_64-nacl/lib/../lib32/libpthread.a(nc_thread_7e478b15.o)
 *(.tcommon)

.preinit_array  0x0000000010030478        0x0
                0x0000000010030478                PROVIDE (__preinit_array_start, .)
 *(.preinit_array)
                0x0000000010030478                PROVIDE (__preinit_array_end, .)

.init_array     0x0000000010030478        0xc
                0x0000000010030478                PROVIDE (__init_array_start, .)
 *(SORT(.init_array.*) SORT(.ctors.*))
 *(.init_array EXCLUDE_FILE(*crtend?.o *crtend.o *crtbegin?.o *crtbegin.o) .ctors)
 .ctors         0x0000000010030478        0x4 /home/jfb/nacl_sdk/pepper_42/toolchain/linux_x86_newlib/bin/../lib/gcc/x86_64-nacl/4.4.3/../../../../x86_64-nacl/lib/../lib32/libstdc++.a(eh_globals.o)
 .ctors         0x000000001003047c        0x4 /home/jfb/nacl_sdk/pepper_42/toolchain/linux_x86_newlib/bin/../lib/gcc/x86_64-nacl/4.4.3/../../../../x86_64-nacl/lib/../lib32/libstdc++.a(eh_alloc.o)
 .ctors         0x0000000010030480        0x4 /home/jfb/nacl_sdk/pepper_42/toolchain/linux_x86_newlib/bin/../lib/gcc/x86_64-nacl/4.4.3/../../../../x86_64-nacl/lib/../lib32/libstdc++.a(system_error.o)
                0x0000000010030484                PROVIDE (__init_array_end, .)

.fini_array     0x0000000010030484        0x0
                0x0000000010030484                PROVIDE (__fini_array_start, .)
 *(SORT(.fini_array.*) SORT(.dtors.*))
 *(.fini_array EXCLUDE_FILE(*crtend?.o *crtend.o *crtbegin?.o *crtbegin.o) .dtors)
                0x0000000010030484                PROVIDE (__fini_array_end, .)

.ctors          0x0000000010030484        0x8
 *crtbegin.o(.ctors)
 .ctors         0x0000000010030484        0x4 /home/jfb/nacl_sdk/pepper_42/toolchain/linux_x86_newlib/bin/../lib/gcc/x86_64-nacl/4.4.3/32/crtbegin.o
 *crtbegin?.o(.ctors)
 *(EXCLUDE_FILE(*crtend?.o *crtend.o) .ctors)
 *(SORT(.ctors.*))
 *(.ctors)
 .ctors         0x0000000010030488        0x4 /home/jfb/nacl_sdk/pepper_42/toolchain/linux_x86_newlib/bin/../lib/gcc/x86_64-nacl/4.4.3/32/crtend.o

.dtors          0x000000001003048c        0x8
 *crtbegin.o(.dtors)
 .dtors         0x000000001003048c        0x4 /home/jfb/nacl_sdk/pepper_42/toolchain/linux_x86_newlib/bin/../lib/gcc/x86_64-nacl/4.4.3/32/crtbegin.o
 *crtbegin?.o(.dtors)
 *(EXCLUDE_FILE(*crtend?.o *crtend.o) .dtors)
 *(SORT(.dtors.*))
 *(.dtors)
 .dtors         0x0000000010030490        0x4 /home/jfb/nacl_sdk/pepper_42/toolchain/linux_x86_newlib/bin/../lib/gcc/x86_64-nacl/4.4.3/32/crtend.o
                0x0000000010030490                __DTOR_END__

.jcr            0x0000000010030494        0x4
 *(.jcr)
 .jcr           0x0000000010030494        0x0 /home/jfb/nacl_sdk/pepper_42/toolchain/linux_x86_newlib/bin/../lib/gcc/x86_64-nacl/4.4.3/32/crtbegin.o
 .jcr           0x0000000010030494        0x4 /home/jfb/nacl_sdk/pepper_42/toolchain/linux_x86_newlib/bin/../lib/gcc/x86_64-nacl/4.4.3/32/crtend.o

.data.rel.ro
 *(.data.rel.ro.local* .gnu.linkonce.d.rel.ro.local.*)
 *(.data.rel.ro .data.rel.ro.* .gnu.linkonce.d.rel.ro.*)

.dynamic
 *(.dynamic)

.got            0x0000000010030498        0x0
 *(.got)
 .got           0x0000000000000000        0x0 /home/jfb/nacl_sdk/pepper_42/toolchain/linux_x86_newlib/bin/../lib/gcc/x86_64-nacl/4.4.3/32/crtbegin.o
 *(.igot)
                0x0000000010030498                . = DATA_SEGMENT_RELRO_END (., (SIZEOF (.got.plt) >= 0xc)?0xc:0x0)

.got.plt        0x0000000010030498        0xc
 *(.got.plt)
 .got.plt       0x0000000010030498        0xc /home/jfb/nacl_sdk/pepper_42/toolchain/linux_x86_newlib/bin/../lib/gcc/x86_64-nacl/4.4.3/32/crtbegin.o
                0x0000000010030498                _GLOBAL_OFFSET_TABLE_
 *(.igot.plt)
 .igot.plt      0x0000000000000000        0x0 /home/jfb/nacl_sdk/pepper_42/toolchain/linux_x86_newlib/bin/../lib/gcc/x86_64-nacl/4.4.3/32/crtbegin.o

.data           0x00000000100304c0      0x728
 *(.data .data.* .gnu.linkonce.d.*)
 .data          0x00000000100304c0        0x0 /home/jfb/nacl_sdk/pepper_42/toolchain/linux_x86_newlib/bin/../lib/gcc/x86_64-nacl/4.4.3/../../../../x86_64-nacl/lib/../lib32/crti.o
 .data          0x00000000100304c0        0x4 /home/jfb/nacl_sdk/pepper_42/toolchain/linux_x86_newlib/bin/../lib/gcc/x86_64-nacl/4.4.3/32/crtbegin.o
                0x00000000100304c0                __dso_handle
 .data          0x00000000100304c4        0x0 newlib/Release/multi_platform_x86_32.o
 .data          0x00000000100304c4        0xc /home/jfb/nacl_sdk/pepper_42//lib/newlib_x86_32/Release/libppapi_cpp.a(instance_x86_32.o)
 .data          0x00000000100304d0       0x18 /home/jfb/nacl_sdk/pepper_42//lib/newlib_x86_32/Release/libppapi_cpp.a(module_x86_32.o)
 .data          0x00000000100304e8        0x0 /home/jfb/nacl_sdk/pepper_42//lib/newlib_x86_32/Release/libppapi_cpp.a(ppp_entrypoints_x86_32.o)
 .data          0x00000000100304e8        0x0 /home/jfb/nacl_sdk/pepper_42//lib/newlib_x86_32/Release/libppapi_cpp.a(resource_x86_32.o)
 .data          0x00000000100304e8        0x0 /home/jfb/nacl_sdk/pepper_42//lib/newlib_x86_32/Release/libppapi_cpp.a(url_loader_x86_32.o)
 .data          0x00000000100304e8        0x0 /home/jfb/nacl_sdk/pepper_42//lib/newlib_x86_32/Release/libppapi_cpp.a(url_response_info_x86_32.o)
 .data          0x00000000100304e8        0x0 /home/jfb/nacl_sdk/pepper_42//lib/newlib_x86_32/Release/libppapi_cpp.a(var_x86_32.o)
 .data          0x00000000100304e8        0x0 /home/jfb/nacl_sdk/pepper_42//lib/newlib_x86_32/Release/libppapi_cpp.a(view_x86_32.o)
 .data          0x00000000100304e8        0x0 /home/jfb/nacl_sdk/pepper_42//lib/newlib_x86_32/Release/libppapi_cpp.a(core_x86_32.o)
 .data          0x00000000100304e8        0x0 /home/jfb/nacl_sdk/pepper_42//lib/newlib_x86_32/Release/libppapi_cpp.a(file_ref_x86_32.o)
 .data          0x00000000100304e8        0x0 /home/jfb/nacl_sdk/pepper_42//lib/newlib_x86_32/Release/libppapi_cpp.a(input_event_x86_32.o)
 .data          0x00000000100304e8        0x0 /home/jfb/nacl_sdk/pepper_42/toolchain/linux_x86_newlib/bin/../lib/gcc/x86_64-nacl/4.4.3/../../../../x86_64-nacl/lib/../lib32/libppapi_stub.a(plugin_main_irt_21ce9d26.o)
 .data          0x00000000100304e8        0x0 /home/jfb/nacl_sdk/pepper_42/toolchain/linux_x86_newlib/bin/../lib/gcc/x86_64-nacl/4.4.3/../../../../x86_64-nacl/lib/../lib32/libppapi_stub.a(ppapi_plugin_main_399d0cf7.o)
 .data          0x00000000100304e8        0x0 /home/jfb/nacl_sdk/pepper_42/toolchain/linux_x86_newlib/bin/../lib/gcc/x86_64-nacl/4.4.3/../../../../x86_64-nacl/lib/../lib32/libppapi_stub.a(ppapi_plugin_start_8da67623.o)
 .data          0x00000000100304e8        0x0 /home/jfb/nacl_sdk/pepper_42/toolchain/linux_x86_newlib/bin/../lib/gcc/x86_64-nacl/4.4.3/../../../../x86_64-nacl/lib/../lib32/libppapi_stub.a(thread_creator_ccf263e1.o)
 .data          0x00000000100304e8        0x4 /home/jfb/nacl_sdk/pepper_42/toolchain/linux_x86_newlib/bin/../lib/gcc/x86_64-nacl/4.4.3/../../../../x86_64-nacl/lib/../lib32/libpthread.a(nc_thread_7e478b15.o)
                0x00000000100304e8                __nc_running_threads_counter
 .data          0x00000000100304ec        0x0 /home/jfb/nacl_sdk/pepper_42/toolchain/linux_x86_newlib/bin/../lib/gcc/x86_64-nacl/4.4.3/../../../../x86_64-nacl/lib/../lib32/libpthread.a(nc_condvar_305aa45a.o)
 .data          0x00000000100304ec        0x4 /home/jfb/nacl_sdk/pepper_42/toolchain/linux_x86_newlib/bin/../lib/gcc/x86_64-nacl/4.4.3/../../../../x86_64-nacl/lib/../lib32/libpthread.a(dynamic_annotations_33ba59cc.o)
 .data          0x00000000100304f0        0x0 /home/jfb/nacl_sdk/pepper_42/toolchain/linux_x86_newlib/bin/../lib/gcc/x86_64-nacl/4.4.3/../../../../x86_64-nacl/lib/../lib32/libpthread.a(nc_mutex_86341ae1.o)
 .data          0x00000000100304f0        0x0 /home/jfb/nacl_sdk/pepper_42/toolchain/linux_x86_newlib/bin/../lib/gcc/x86_64-nacl/4.4.3/../../../../x86_64-nacl/lib/../lib32/libpthread.a(nc_init_irt_d3daafc0.o)
 .data          0x00000000100304f0        0x0 /home/jfb/nacl_sdk/pepper_42/toolchain/linux_x86_newlib/bin/../lib/gcc/x86_64-nacl/4.4.3/../../../../x86_64-nacl/lib/../lib32/libstdc++.a(tree.o)
 .data          0x00000000100304f0        0x0 /home/jfb/nacl_sdk/pepper_42/toolchain/linux_x86_newlib/bin/../lib/gcc/x86_64-nacl/4.4.3/../../../../x86_64-nacl/lib/../lib32/libstdc++.a(string-inst.o)
 .data          0x00000000100304f0        0x0 /home/jfb/nacl_sdk/pepper_42/toolchain/linux_x86_newlib/bin/../lib/gcc/x86_64-nacl/4.4.3/../../../../x86_64-nacl/lib/../lib32/libstdc++.a(eh_personality.o)
 .data          0x00000000100304f0        0x0 /home/jfb/nacl_sdk/pepper_42/toolchain/linux_x86_newlib/bin/../lib/gcc/x86_64-nacl/4.4.3/../../../../x86_64-nacl/lib/../lib32/libstdc++.a(eh_globals.o)
 .data          0x00000000100304f0        0x0 /home/jfb/nacl_sdk/pepper_42/toolchain/linux_x86_newlib/bin/../lib/gcc/x86_64-nacl/4.4.3/../../../../x86_64-nacl/lib/../lib32/libstdc++.a(eh_throw.o)
 .data          0x00000000100304f0        0x0 /home/jfb/nacl_sdk/pepper_42/toolchain/linux_x86_newlib/bin/../lib/gcc/x86_64-nacl/4.4.3/../../../../x86_64-nacl/lib/../lib32/libstdc++.a(del_op.o)
 .data          0x00000000100304f0        0x0 /home/jfb/nacl_sdk/pepper_42/toolchain/linux_x86_newlib/bin/../lib/gcc/x86_64-nacl/4.4.3/../../../../x86_64-nacl/lib/../lib32/libstdc++.a(eh_call.o)
 .data          0x00000000100304f0        0x0 /home/jfb/nacl_sdk/pepper_42/toolchain/linux_x86_newlib/bin/../lib/gcc/x86_64-nacl/4.4.3/../../../../x86_64-nacl/lib/../lib32/libstdc++.a(guard.o)
 .data._ZZN12_GLOBAL__N_116get_static_mutexEvE4once
                0x00000000100304f0       0x18 /home/jfb/nacl_sdk/pepper_42/toolchain/linux_x86_newlib/bin/../lib/gcc/x86_64-nacl/4.4.3/../../../../x86_64-nacl/lib/../lib32/libstdc++.a(guard.o)
 .data          0x0000000010030508        0x0 /home/jfb/nacl_sdk/pepper_42/toolchain/linux_x86_newlib/bin/../lib/gcc/x86_64-nacl/4.4.3/../../../../x86_64-nacl/lib/../lib32/libstdc++.a(si_class_type_info.o)
 .data          0x0000000010030508        0x0 /home/jfb/nacl_sdk/pepper_42/toolchain/linux_x86_newlib/bin/../lib/gcc/x86_64-nacl/4.4.3/../../../../x86_64-nacl/lib/../lib32/libstdc++.a(eh_terminate.o)
 .data          0x0000000010030508        0x0 /home/jfb/nacl_sdk/pepper_42/toolchain/linux_x86_newlib/bin/../lib/gcc/x86_64-nacl/4.4.3/../../../../x86_64-nacl/lib/../lib32/libstdc++.a(class_type_info.o)
 .data          0x0000000010030508        0x0 /home/jfb/nacl_sdk/pepper_42/toolchain/linux_x86_newlib/bin/../lib/gcc/x86_64-nacl/4.4.3/../../../../x86_64-nacl/lib/../lib32/libstdc++.a(eh_alloc.o)
 .data          0x0000000010030508        0x0 /home/jfb/nacl_sdk/pepper_42/toolchain/linux_x86_newlib/bin/../lib/gcc/x86_64-nacl/4.4.3/../../../../x86_64-nacl/lib/../lib32/libstdc++.a(eh_catch.o)
 .data          0x0000000010030508        0x0 /home/jfb/nacl_sdk/pepper_42/toolchain/linux_x86_newlib/bin/../lib/gcc/x86_64-nacl/4.4.3/../../../../x86_64-nacl/lib/../lib32/libstdc++.a(eh_exception.o)
 .data          0x0000000010030508        0x0 /home/jfb/nacl_sdk/pepper_42/toolchain/linux_x86_newlib/bin/../lib/gcc/x86_64-nacl/4.4.3/../../../../x86_64-nacl/lib/../lib32/libstdc++.a(pure.o)
 .data          0x0000000010030508        0x0 /home/jfb/nacl_sdk/pepper_42/toolchain/linux_x86_newlib/bin/../lib/gcc/x86_64-nacl/4.4.3/../../../../x86_64-nacl/lib/../lib32/libstdc++.a(new_op.o)
 .data          0x0000000010030508        0x0 /home/jfb/nacl_sdk/pepper_42/toolchain/linux_x86_newlib/bin/../lib/gcc/x86_64-nacl/4.4.3/../../../../x86_64-nacl/lib/../lib32/libstdc++.a(tinfo.o)
 .data          0x0000000010030508        0x0 /home/jfb/nacl_sdk/pepper_42/toolchain/linux_x86_newlib/bin/../lib/gcc/x86_64-nacl/4.4.3/../../../../x86_64-nacl/lib/../lib32/libstdc++.a(functexcept.o)
 .data          0x0000000010030508        0x0 /home/jfb/nacl_sdk/pepper_42/toolchain/linux_x86_newlib/bin/../lib/gcc/x86_64-nacl/4.4.3/../../../../x86_64-nacl/lib/../lib32/libstdc++.a(ios_failure.o)
 .data          0x0000000010030508        0x0 /home/jfb/nacl_sdk/pepper_42/toolchain/linux_x86_newlib/bin/../lib/gcc/x86_64-nacl/4.4.3/../../../../x86_64-nacl/lib/../lib32/libstdc++.a(stdexcept.o)
 .data          0x0000000010030508        0x0 /home/jfb/nacl_sdk/pepper_42/toolchain/linux_x86_newlib/bin/../lib/gcc/x86_64-nacl/4.4.3/../../../../x86_64-nacl/lib/../lib32/libstdc++.a(system_error.o)
 .data          0x0000000010030508        0x0 /home/jfb/nacl_sdk/pepper_42/toolchain/linux_x86_newlib/bin/../lib/gcc/x86_64-nacl/4.4.3/../../../../x86_64-nacl/lib/../lib32/libstdc++.a(eh_unex_handler.o)
 .data._ZN10__cxxabiv120__unexpected_handlerE
                0x0000000010030508        0x4 /home/jfb/nacl_sdk/pepper_42/toolchain/linux_x86_newlib/bin/../lib/gcc/x86_64-nacl/4.4.3/../../../../x86_64-nacl/lib/../lib32/libstdc++.a(eh_unex_handler.o)
                0x0000000010030508                _ZN10__cxxabiv120__unexpected_handlerE
 .data          0x000000001003050c        0x0 /home/jfb/nacl_sdk/pepper_42/toolchain/linux_x86_newlib/bin/../lib/gcc/x86_64-nacl/4.4.3/../../../../x86_64-nacl/lib/../lib32/libstdc++.a(eh_term_handler.o)
 .data._ZN10__cxxabiv119__terminate_handlerE
                0x000000001003050c        0x4 /home/jfb/nacl_sdk/pepper_42/toolchain/linux_x86_newlib/bin/../lib/gcc/x86_64-nacl/4.4.3/../../../../x86_64-nacl/lib/../lib32/libstdc++.a(eh_term_handler.o)
                0x000000001003050c                _ZN10__cxxabiv119__terminate_handlerE
 .data          0x0000000010030510        0x0 /home/jfb/nacl_sdk/pepper_42/toolchain/linux_x86_newlib/bin/../lib/gcc/x86_64-nacl/4.4.3/../../../../x86_64-nacl/lib/../lib32/libstdc++.a(bad_typeid.o)
 .data          0x0000000010030510        0x0 /home/jfb/nacl_sdk/pepper_42/toolchain/linux_x86_newlib/bin/../lib/gcc/x86_64-nacl/4.4.3/../../../../x86_64-nacl/lib/../lib32/libstdc++.a(new_handler.o)
 .data          0x0000000010030510        0x0 /home/jfb/nacl_sdk/pepper_42/toolchain/linux_x86_newlib/bin/../lib/gcc/x86_64-nacl/4.4.3/../../../../x86_64-nacl/lib/../lib32/libstdc++.a(bad_cast.o)
 .data          0x0000000010030510        0x0 /home/jfb/nacl_sdk/pepper_42/toolchain/linux_x86_newlib/bin/../lib/gcc/x86_64-nacl/4.4.3/../../../../x86_64-nacl/lib/../lib32/libstdc++.a(vterminate.o)
 .data          0x0000000010030510        0x0 /home/jfb/nacl_sdk/pepper_42/toolchain/linux_x86_newlib/bin/../lib/gcc/x86_64-nacl/4.4.3/../../../../x86_64-nacl/lib/../lib32/libstdc++.a(cp-demangle.o)
 .data          0x0000000010030510        0x0 /home/jfb/nacl_sdk/pepper_42/toolchain/linux_x86_newlib/bin/../lib/gcc/x86_64-nacl/4.4.3/../../../../x86_64-nacl/lib/../lib32/libstdc++.a(eh_type.o)
 .data          0x0000000010030510       0x18 /home/jfb/nacl_sdk/pepper_42/toolchain/linux_x86_newlib/bin/../lib/gcc/x86_64-nacl/4.4.3/32/libgcc.a(unwind-dw2.o)
 .data          0x0000000010030528       0x14 /home/jfb/nacl_sdk/pepper_42/toolchain/linux_x86_newlib/bin/../lib/gcc/x86_64-nacl/4.4.3/32/libgcc.a(unwind-dw2-fde-glibc.o)
 .data          0x000000001003053c        0x0 /home/jfb/nacl_sdk/pepper_42/toolchain/linux_x86_newlib/bin/../lib/gcc/x86_64-nacl/4.4.3/../../../../x86_64-nacl/lib/../lib32/libnacl.a(_exit_710c7d0d.o)
 .data          0x000000001003053c        0x0 /home/jfb/nacl_sdk/pepper_42/toolchain/linux_x86_newlib/bin/../lib/gcc/x86_64-nacl/4.4.3/../../../../x86_64-nacl/lib/../lib32/libnacl.a(abort_9f6b5845.o)
 .data          0x000000001003053c        0x4 /home/jfb/nacl_sdk/pepper_42/toolchain/linux_x86_newlib/bin/../lib/gcc/x86_64-nacl/4.4.3/../../../../x86_64-nacl/lib/../lib32/libnacl.a(environ_25cd24d8.o)
                0x000000001003053c                environ
 .data          0x0000000010030540        0x0 /home/jfb/nacl_sdk/pepper_42/toolchain/linux_x86_newlib/bin/../lib/gcc/x86_64-nacl/4.4.3/../../../../x86_64-nacl/lib/../lib32/libnacl.a(start_fa9ef7de.o)
 .data          0x0000000010030540        0x0 /home/jfb/nacl_sdk/pepper_42/toolchain/linux_x86_newlib/bin/../lib/gcc/x86_64-nacl/4.4.3/../../../../x86_64-nacl/lib/../lib32/libnacl.a(malloc_222c4a1e.o)
 .data          0x0000000010030540       0x20 /home/jfb/nacl_sdk/pepper_42/toolchain/linux_x86_newlib/bin/../lib/gcc/x86_64-nacl/4.4.3/../../../../x86_64-nacl/lib/../lib32/libnacl.a(nacl_irt_6de1d53f.o)
                0x0000000010030540                __libnacl_irt_fdio
 .data          0x0000000010030560        0x0 /home/jfb/nacl_sdk/pepper_42/toolchain/linux_x86_newlib/bin/../lib/gcc/x86_64-nacl/4.4.3/../../../../x86_64-nacl/lib/../lib32/libnacl.a(pthread_initialize_minimal_4b6e776b.o)
 .data          0x0000000010030560        0x0 /home/jfb/nacl_sdk/pepper_42/toolchain/linux_x86_newlib/bin/../lib/gcc/x86_64-nacl/4.4.3/../../../../x86_64-nacl/lib/../lib32/libnacl.a(nacl_read_tp_5748ac47.o)
 .data          0x0000000010030560        0x0 /home/jfb/nacl_sdk/pepper_42/toolchain/linux_x86_newlib/bin/../lib/gcc/x86_64-nacl/4.4.3/../../../../x86_64-nacl/lib/../lib32/libnacl.a(mmap_767fb080.o)
 .data          0x0000000010030560        0x0 /home/jfb/nacl_sdk/pepper_42/toolchain/linux_x86_newlib/bin/../lib/gcc/x86_64-nacl/4.4.3/../../../../x86_64-nacl/lib/../lib32/libnacl.a(sched_yield_56c375be.o)
 .data          0x0000000010030560        0x0 /home/jfb/nacl_sdk/pepper_42/toolchain/linux_x86_newlib/bin/../lib/gcc/x86_64-nacl/4.4.3/../../../../x86_64-nacl/lib/../lib32/libnacl.a(munmap_d4f09867.o)
 .data          0x0000000010030560        0x0 /home/jfb/nacl_sdk/pepper_42/toolchain/linux_x86_newlib/bin/../lib/gcc/x86_64-nacl/4.4.3/../../../../x86_64-nacl/lib/../lib32/libnacl.a(tls_bba1975b.o)
 .data          0x0000000010030560        0x0 /home/jfb/nacl_sdk/pepper_42/toolchain/linux_x86_newlib/bin/../lib/gcc/x86_64-nacl/4.4.3/../../../../x86_64-nacl/lib/../lib32/libnacl.a(write_fb49787f.o)
 .data          0x0000000010030560        0x0 /home/jfb/nacl_sdk/pepper_42/toolchain/linux_x86_newlib/bin/../lib/gcc/x86_64-nacl/4.4.3/../../../../x86_64-nacl/lib/../lib32/libnacl.a(nacl_tls_get_d2f842b5.o)
 .data          0x0000000010030560        0x0 /home/jfb/nacl_sdk/pepper_42/toolchain/linux_x86_newlib/bin/../lib/gcc/x86_64-nacl/4.4.3/../../../../x86_64-nacl/lib/../lib32/libnacl.a(nacl_irt_init_7b4f826e.o)
 .data          0x0000000010030560        0x0 /home/jfb/nacl_sdk/pepper_42/toolchain/linux_x86_newlib/bin/../lib/gcc/x86_64-nacl/4.4.3/../../../../x86_64-nacl/lib/../lib32/libnacl.a(sysconf_ad295ea2.o)
 .data          0x0000000010030560        0x0 /home/jfb/nacl_sdk/pepper_42/toolchain/linux_x86_newlib/bin/../lib/gcc/x86_64-nacl/4.4.3/../../../../x86_64-nacl/lib/../lib32/libnacl.a(nacl_tls_init_eb0cd232.o)
 .data          0x0000000010030560        0x0 /home/jfb/nacl_sdk/pepper_42/toolchain/linux_x86_newlib/bin/../lib/gcc/x86_64-nacl/4.4.3/../../../../x86_64-nacl/lib/../lib32/libcrt_common.a(lib_a-atexit.o)
 .data          0x0000000010030560        0x0 /home/jfb/nacl_sdk/pepper_42/toolchain/linux_x86_newlib/bin/../lib/gcc/x86_64-nacl/4.4.3/../../../../x86_64-nacl/lib/../lib32/libcrt_common.a(lib_a-cxa_atexit.o)
 .data          0x0000000010030560        0x0 /home/jfb/nacl_sdk/pepper_42/toolchain/linux_x86_newlib/bin/../lib/gcc/x86_64-nacl/4.4.3/../../../../x86_64-nacl/lib/../lib32/libcrt_common.a(lib_a-errno.o)
 .data          0x0000000010030560        0x0 /home/jfb/nacl_sdk/pepper_42/toolchain/linux_x86_newlib/bin/../lib/gcc/x86_64-nacl/4.4.3/../../../../x86_64-nacl/lib/../lib32/libcrt_common.a(lib_a-exit.o)
 .data          0x0000000010030560        0x0 /home/jfb/nacl_sdk/pepper_42/toolchain/linux_x86_newlib/bin/../lib/gcc/x86_64-nacl/4.4.3/../../../../x86_64-nacl/lib/../lib32/libcrt_common.a(lib_a-fini.o)
 .data          0x0000000010030560        0x0 /home/jfb/nacl_sdk/pepper_42/toolchain/linux_x86_newlib/bin/../lib/gcc/x86_64-nacl/4.4.3/../../../../x86_64-nacl/lib/../lib32/libcrt_common.a(lib_a-fprintf.o)
 .data          0x0000000010030560        0x0 /home/jfb/nacl_sdk/pepper_42/toolchain/linux_x86_newlib/bin/../lib/gcc/x86_64-nacl/4.4.3/../../../../x86_64-nacl/lib/../lib32/libcrt_common.a(lib_a-fputc.o)
 .data          0x0000000010030560        0x0 /home/jfb/nacl_sdk/pepper_42/toolchain/linux_x86_newlib/bin/../lib/gcc/x86_64-nacl/4.4.3/../../../../x86_64-nacl/lib/../lib32/libcrt_common.a(lib_a-fputs.o)
 .data          0x0000000010030560        0x0 /home/jfb/nacl_sdk/pepper_42/toolchain/linux_x86_newlib/bin/../lib/gcc/x86_64-nacl/4.4.3/../../../../x86_64-nacl/lib/../lib32/libcrt_common.a(lib_a-fvwrite.o)
 .data          0x0000000010030560        0x0 /home/jfb/nacl_sdk/pepper_42/toolchain/linux_x86_newlib/bin/../lib/gcc/x86_64-nacl/4.4.3/../../../../x86_64-nacl/lib/../lib32/libcrt_common.a(lib_a-fwrite.o)
 .data          0x0000000010030560        0x0 /home/jfb/nacl_sdk/pepper_42/toolchain/linux_x86_newlib/bin/../lib/gcc/x86_64-nacl/4.4.3/../../../../x86_64-nacl/lib/../lib32/libcrt_common.a(lib_a-getenv.o)
 .data          0x0000000010030560        0x0 /home/jfb/nacl_sdk/pepper_42/toolchain/linux_x86_newlib/bin/../lib/gcc/x86_64-nacl/4.4.3/../../../../x86_64-nacl/lib/../lib32/libcrt_common.a(lib_a-getenv_r.o)
 .data          0x0000000010030560      0x470 /home/jfb/nacl_sdk/pepper_42/toolchain/linux_x86_newlib/bin/../lib/gcc/x86_64-nacl/4.4.3/../../../../x86_64-nacl/lib/../lib32/libcrt_common.a(lib_a-impure.o)
 .data          0x00000000100309d0        0x0 /home/jfb/nacl_sdk/pepper_42/toolchain/linux_x86_newlib/bin/../lib/gcc/x86_64-nacl/4.4.3/../../../../x86_64-nacl/lib/../lib32/libcrt_common.a(lib_a-init.o)
 .data          0x00000000100309d0        0x0 /home/jfb/nacl_sdk/pepper_42/toolchain/linux_x86_newlib/bin/../lib/gcc/x86_64-nacl/4.4.3/../../../../x86_64-nacl/lib/../lib32/libcrt_common.a(lib_a-memchr.o)
 .data          0x00000000100309d0        0x0 /home/jfb/nacl_sdk/pepper_42/toolchain/linux_x86_newlib/bin/../lib/gcc/x86_64-nacl/4.4.3/../../../../x86_64-nacl/lib/../lib32/libcrt_common.a(lib_a-memcpy.o)
 .data          0x00000000100309d0        0x0 /home/jfb/nacl_sdk/pepper_42/toolchain/linux_x86_newlib/bin/../lib/gcc/x86_64-nacl/4.4.3/../../../../x86_64-nacl/lib/../lib32/libcrt_common.a(lib_a-memmove.o)
 .data          0x00000000100309d0        0x0 /home/jfb/nacl_sdk/pepper_42/toolchain/linux_x86_newlib/bin/../lib/gcc/x86_64-nacl/4.4.3/../../../../x86_64-nacl/lib/../lib32/libcrt_common.a(lib_a-memset.o)
 .data          0x00000000100309d0        0x0 /home/jfb/nacl_sdk/pepper_42/toolchain/linux_x86_newlib/bin/../lib/gcc/x86_64-nacl/4.4.3/../../../../x86_64-nacl/lib/../lib32/libcrt_common.a(lib_a-putc.o)
 .data          0x00000000100309d0        0x0 /home/jfb/nacl_sdk/pepper_42/toolchain/linux_x86_newlib/bin/../lib/gcc/x86_64-nacl/4.4.3/../../../../x86_64-nacl/lib/../lib32/libcrt_common.a(lib_a-snprintf.o)
 .data          0x00000000100309d0        0x0 /home/jfb/nacl_sdk/pepper_42/toolchain/linux_x86_newlib/bin/../lib/gcc/x86_64-nacl/4.4.3/../../../../x86_64-nacl/lib/../lib32/libcrt_common.a(lib_a-sprintf.o)
 .data          0x00000000100309d0        0x0 /home/jfb/nacl_sdk/pepper_42/toolchain/linux_x86_newlib/bin/../lib/gcc/x86_64-nacl/4.4.3/../../../../x86_64-nacl/lib/../lib32/libcrt_common.a(lib_a-strcpy.o)
 .data          0x00000000100309d0        0x0 /home/jfb/nacl_sdk/pepper_42/toolchain/linux_x86_newlib/bin/../lib/gcc/x86_64-nacl/4.4.3/../../../../x86_64-nacl/lib/../lib32/libcrt_common.a(lib_a-strerror.o)
 .data          0x00000000100309d0        0x0 /home/jfb/nacl_sdk/pepper_42/toolchain/linux_x86_newlib/bin/../lib/gcc/x86_64-nacl/4.4.3/../../../../x86_64-nacl/lib/../lib32/libcrt_common.a(lib_a-strlen.o)
 .data          0x00000000100309d0        0x0 /home/jfb/nacl_sdk/pepper_42/toolchain/linux_x86_newlib/bin/../lib/gcc/x86_64-nacl/4.4.3/../../../../x86_64-nacl/lib/../lib32/libcrt_common.a(lib_a-strncmp.o)
 .data          0x00000000100309d0        0x0 /home/jfb/nacl_sdk/pepper_42/toolchain/linux_x86_newlib/bin/../lib/gcc/x86_64-nacl/4.4.3/../../../../x86_64-nacl/lib/../lib32/libcrt_common.a(lib_a-svfprintf.o)
 .data          0x00000000100309d0        0x0 /home/jfb/nacl_sdk/pepper_42/toolchain/linux_x86_newlib/bin/../lib/gcc/x86_64-nacl/4.4.3/../../../../x86_64-nacl/lib/../lib32/libcrt_common.a(lib_a-u_strerr.o)
 .data          0x00000000100309d0        0x0 /home/jfb/nacl_sdk/pepper_42/toolchain/linux_x86_newlib/bin/../lib/gcc/x86_64-nacl/4.4.3/../../../../x86_64-nacl/lib/../lib32/libcrt_common.a(lib_a-vfprintf.o)
 .data          0x00000000100309d0        0x0 /home/jfb/nacl_sdk/pepper_42/toolchain/linux_x86_newlib/bin/../lib/gcc/x86_64-nacl/4.4.3/../../../../x86_64-nacl/lib/../lib32/libcrt_common.a(lib_a-wbuf.o)
 .data          0x00000000100309d0        0x0 /home/jfb/nacl_sdk/pepper_42/toolchain/linux_x86_newlib/bin/../lib/gcc/x86_64-nacl/4.4.3/../../../../x86_64-nacl/lib/../lib32/libcrt_common.a(lib_a-wcrtomb.o)
 .data          0x00000000100309d0        0x0 /home/jfb/nacl_sdk/pepper_42/toolchain/linux_x86_newlib/bin/../lib/gcc/x86_64-nacl/4.4.3/../../../../x86_64-nacl/lib/../lib32/libcrt_common.a(lib_a-wcsrtombs.o)
 .data          0x00000000100309d0        0x4 /home/jfb/nacl_sdk/pepper_42/toolchain/linux_x86_newlib/bin/../lib/gcc/x86_64-nacl/4.4.3/../../../../x86_64-nacl/lib/../lib32/libcrt_common.a(lib_a-wctomb_r.o)
                0x00000000100309d0                __wctomb
 .data          0x00000000100309d4        0x0 /home/jfb/nacl_sdk/pepper_42/toolchain/linux_x86_newlib/bin/../lib/gcc/x86_64-nacl/4.4.3/../../../../x86_64-nacl/lib/../lib32/libcrt_common.a(lib_a-wsetup.o)
 .data          0x00000000100309d4        0x0 /home/jfb/nacl_sdk/pepper_42/toolchain/linux_x86_newlib/bin/../lib/gcc/x86_64-nacl/4.4.3/../../../../x86_64-nacl/lib/../lib32/libcrt_common.a(lib_a-__atexit.o)
 .data          0x00000000100309d4       0x14 /home/jfb/nacl_sdk/pepper_42/toolchain/linux_x86_newlib/bin/../lib/gcc/x86_64-nacl/4.4.3/../../../../x86_64-nacl/lib/../lib32/libcrt_common.a(lib_a-__call_atexit.o)
                0x00000000100309d4                __atexit_lock
 .data          0x00000000100309e8        0x0 /home/jfb/nacl_sdk/pepper_42/toolchain/linux_x86_newlib/bin/../lib/gcc/x86_64-nacl/4.4.3/../../../../x86_64-nacl/lib/../lib32/libcrt_common.a(lib_a-dtoa.o)
 .data          0x00000000100309e8       0x14 /home/jfb/nacl_sdk/pepper_42/toolchain/linux_x86_newlib/bin/../lib/gcc/x86_64-nacl/4.4.3/../../../../x86_64-nacl/lib/../lib32/libcrt_common.a(lib_a-envlock.o)
 .data          0x00000000100309fc        0x0 /home/jfb/nacl_sdk/pepper_42/toolchain/linux_x86_newlib/bin/../lib/gcc/x86_64-nacl/4.4.3/../../../../x86_64-nacl/lib/../lib32/libcrt_common.a(lib_a-fflush.o)
 .data          0x00000000100309fc       0x28 /home/jfb/nacl_sdk/pepper_42/toolchain/linux_x86_newlib/bin/../lib/gcc/x86_64-nacl/4.4.3/../../../../x86_64-nacl/lib/../lib32/libcrt_common.a(lib_a-findfp.o)
 .data          0x0000000010030a24        0x0 /home/jfb/nacl_sdk/pepper_42/toolchain/linux_x86_newlib/bin/../lib/gcc/x86_64-nacl/4.4.3/../../../../x86_64-nacl/lib/../lib32/libcrt_common.a(lib_a-fwalk.o)
 *fill*         0x0000000010030a24       0x1c 
 .data          0x0000000010030a40      0x1a0 /home/jfb/nacl_sdk/pepper_42/toolchain/linux_x86_newlib/bin/../lib/gcc/x86_64-nacl/4.4.3/../../../../x86_64-nacl/lib/../lib32/libcrt_common.a(lib_a-locale.o)
                0x0000000010030a40                __mb_cur_max
                0x0000000010030a60                __default_locale
 .data          0x0000000010030be0        0x0 /home/jfb/nacl_sdk/pepper_42/toolchain/linux_x86_newlib/bin/../lib/gcc/x86_64-nacl/4.4.3/../../../../x86_64-nacl/lib/../lib32/libcrt_common.a(lib_a-makebuf.o)
 .data          0x0000000010030be0        0x4 /home/jfb/nacl_sdk/pepper_42/toolchain/linux_x86_newlib/bin/../lib/gcc/x86_64-nacl/4.4.3/../../../../x86_64-nacl/lib/../lib32/libcrt_common.a(lib_a-mbtowc_r.o)
                0x0000000010030be0                __mbtowc
 .data          0x0000000010030be4        0x0 /home/jfb/nacl_sdk/pepper_42/toolchain/linux_x86_newlib/bin/../lib/gcc/x86_64-nacl/4.4.3/../../../../x86_64-nacl/lib/../lib32/libcrt_common.a(lib_a-mprec.o)
 .data          0x0000000010030be4        0x0 /home/jfb/nacl_sdk/pepper_42/toolchain/linux_x86_newlib/bin/../lib/gcc/x86_64-nacl/4.4.3/../../../../x86_64-nacl/lib/../lib32/libcrt_common.a(lib_a-s_fpclassify.o)
 .data          0x0000000010030be4        0x0 /home/jfb/nacl_sdk/pepper_42/toolchain/linux_x86_newlib/bin/../lib/gcc/x86_64-nacl/4.4.3/../../../../x86_64-nacl/lib/../lib32/libcrt_common.a(lib_a-s_frexp.o)
 .data          0x0000000010030be4        0x0 /home/jfb/nacl_sdk/pepper_42/toolchain/linux_x86_newlib/bin/../lib/gcc/x86_64-nacl/4.4.3/../../../../x86_64-nacl/lib/../lib32/libcrt_common.a(lib_a-stdio.o)
 .data          0x0000000010030be4        0x0 /home/jfb/nacl_sdk/pepper_42/toolchain/linux_x86_newlib/bin/../lib/gcc/x86_64-nacl/4.4.3/../../../../x86_64-nacl/lib/../lib32/libcrt_common.a(lib_a-strcasecmp.o)
 .data          0x0000000010030be4        0x0 /home/jfb/nacl_sdk/pepper_42/toolchain/linux_x86_newlib/bin/../lib/gcc/x86_64-nacl/4.4.3/../../../../x86_64-nacl/lib/../lib32/libcrt_common.a(lib_a-strcat.o)
 .data          0x0000000010030be4        0x0 /home/jfb/nacl_sdk/pepper_42/toolchain/linux_x86_newlib/bin/../lib/gcc/x86_64-nacl/4.4.3/../../../../x86_64-nacl/lib/../lib32/libcrt_common.a(lib_a-strchr.o)
 .data          0x0000000010030be4        0x0 /home/jfb/nacl_sdk/pepper_42/toolchain/linux_x86_newlib/bin/../lib/gcc/x86_64-nacl/4.4.3/../../../../x86_64-nacl/lib/../lib32/libcrt_common.a(lib_a-strcmp.o)
 .data          0x0000000010030be4        0x0 /home/jfb/nacl_sdk/pepper_42/toolchain/linux_x86_newlib/bin/../lib/gcc/x86_64-nacl/4.4.3/../../../../x86_64-nacl/lib/../lib32/libcrt_common.a(lib_a-strlcpy.o)
 .data          0x0000000010030be4        0x0 /home/jfb/nacl_sdk/pepper_42/toolchain/linux_x86_newlib/bin/../lib/gcc/x86_64-nacl/4.4.3/../../../../x86_64-nacl/lib/../lib32/libcrt_common.a(lib_a-strncasecmp.o)
 .data          0x0000000010030be4        0x0 /home/jfb/nacl_sdk/pepper_42/toolchain/linux_x86_newlib/bin/../lib/gcc/x86_64-nacl/4.4.3/../../../../x86_64-nacl/lib/../lib32/libcrt_common.a(lib_a-strncpy.o)
 .data          0x0000000010030be4        0x0 /home/jfb/nacl_sdk/pepper_42/toolchain/linux_x86_newlib/bin/../lib/gcc/x86_64-nacl/4.4.3/../../../../x86_64-nacl/lib/../lib32/libcrt_common.a(lib_a-strtol.o)
 .data          0x0000000010030be4        0x0 /home/jfb/nacl_sdk/pepper_42/toolchain/linux_x86_newlib/bin/../lib/gcc/x86_64-nacl/4.4.3/../../../../x86_64-nacl/lib/../lib32/libcrt_common.a(lib_a-svfiprintf.o)
 .data          0x0000000010030be4        0x0 /home/jfb/nacl_sdk/pepper_42/toolchain/linux_x86_newlib/bin/../lib/gcc/x86_64-nacl/4.4.3/../../../../x86_64-nacl/lib/../lib32/libcrt_common.a(lib_a-vfiprintf.o)
 .data          0x0000000010030be4        0x0 /home/jfb/nacl_sdk/pepper_42/toolchain/linux_x86_newlib/bin/../lib/gcc/x86_64-nacl/4.4.3/../../../../x86_64-nacl/lib/../lib32/libcrt_common.a(lib_a-wcsnrtombs.o)
 .data          0x0000000010030be4        0x4 /home/jfb/nacl_sdk/pepper_42/toolchain/linux_x86_newlib/bin/../lib/gcc/x86_64-nacl/4.4.3/../../../../x86_64-nacl/lib/../lib32/libcrt_common.a(lib_a-ctype_.o)
                0x0000000010030be4                __ctype_ptr__
 .data          0x0000000010030be8        0x0 /home/jfb/nacl_sdk/pepper_42/toolchain/linux_x86_newlib/bin/../lib/gcc/x86_64-nacl/4.4.3/../../../../x86_64-nacl/lib/../lib32/libcrt_common.a(lib_a-fclose.o)
 .data          0x0000000010030be8        0x0 /home/jfb/nacl_sdk/pepper_42/toolchain/linux_x86_newlib/bin/../lib/gcc/x86_64-nacl/4.4.3/../../../../x86_64-nacl/lib/../lib32/libcrt_common.a(lib_a-fputwc.o)
 .data          0x0000000010030be8        0x0 /home/jfb/nacl_sdk/pepper_42/toolchain/linux_x86_newlib/bin/../lib/gcc/x86_64-nacl/4.4.3/../../../../x86_64-nacl/lib/../lib32/libnacl.a(close_e9b92fbd.o)
 .data          0x0000000010030be8        0x0 /home/jfb/nacl_sdk/pepper_42/toolchain/linux_x86_newlib/bin/../lib/gcc/x86_64-nacl/4.4.3/../../../../x86_64-nacl/lib/../lib32/libnacl.a(isatty_02f56e94.o)
 .data          0x0000000010030be8        0x0 /home/jfb/nacl_sdk/pepper_42/toolchain/linux_x86_newlib/bin/../lib/gcc/x86_64-nacl/4.4.3/../../../../x86_64-nacl/lib/../lib32/libnacl.a(nacl_irt_fdio_b571b5e7.o)
 .data          0x0000000010030be8        0x0 /home/jfb/nacl_sdk/pepper_42/toolchain/linux_x86_newlib/bin/../lib/gcc/x86_64-nacl/4.4.3/../../../../x86_64-nacl/lib/../lib32/libnacl.a(fstat_0540ff63.o)
 .data          0x0000000010030be8        0x0 /home/jfb/nacl_sdk/pepper_42/toolchain/linux_x86_newlib/bin/../lib/gcc/x86_64-nacl/4.4.3/../../../../x86_64-nacl/lib/../lib32/libnacl.a(lseek_64d2d05c.o)
 .data          0x0000000010030be8        0x0 /home/jfb/nacl_sdk/pepper_42/toolchain/linux_x86_newlib/bin/../lib/gcc/x86_64-nacl/4.4.3/../../../../x86_64-nacl/lib/../lib32/libnacl.a(read_df872e10.o)
 .data          0x0000000010030be8        0x0 /home/jfb/nacl_sdk/pepper_42/toolchain/linux_x86_newlib/bin/../lib/gcc/x86_64-nacl/4.4.3/32/libgcc.a(_udivdi3.o)
 .data          0x0000000010030be8        0x0 /home/jfb/nacl_sdk/pepper_42/toolchain/linux_x86_newlib/bin/../lib/gcc/x86_64-nacl/4.4.3/32/libgcc.a(_umoddi3.o)
 .data          0x0000000010030be8        0x0 /home/jfb/nacl_sdk/pepper_42/toolchain/linux_x86_newlib/bin/../lib/gcc/x86_64-nacl/4.4.3/32/crtend.o
 .data          0x0000000010030be8        0x0 /home/jfb/nacl_sdk/pepper_42/toolchain/linux_x86_newlib/bin/../lib/gcc/x86_64-nacl/4.4.3/../../../../x86_64-nacl/lib/../lib32/crtn.o

.data1
 *(.data1)
                0x0000000010030be8                _edata = .
                0x0000000010030be8                PROVIDE (edata, .)
                0x0000000010030be8                . = .
                0x0000000010030be8                __bss_start = .

.bss            0x0000000010030c00     0x629c
 *(.dynbss)
 *(.bss .bss.* .gnu.linkonce.b.*)
 .bss           0x0000000010030c00        0x0 /home/jfb/nacl_sdk/pepper_42/toolchain/linux_x86_newlib/bin/../lib/gcc/x86_64-nacl/4.4.3/../../../../x86_64-nacl/lib/../lib32/crti.o
 .bss           0x0000000010030c00       0x20 /home/jfb/nacl_sdk/pepper_42/toolchain/linux_x86_newlib/bin/../lib/gcc/x86_64-nacl/4.4.3/32/crtbegin.o
 .bss           0x0000000010030c20        0x0 newlib/Release/multi_platform_x86_32.o
 .bss           0x0000000010030c20       0x4c /home/jfb/nacl_sdk/pepper_42//lib/newlib_x86_32/Release/libppapi_cpp.a(instance_x86_32.o)
 .bss           0x0000000010030c6c        0x0 /home/jfb/nacl_sdk/pepper_42//lib/newlib_x86_32/Release/libppapi_cpp.a(module_x86_32.o)
 .bss           0x0000000010030c6c        0x8 /home/jfb/nacl_sdk/pepper_42//lib/newlib_x86_32/Release/libppapi_cpp.a(ppp_entrypoints_x86_32.o)
 .bss           0x0000000010030c74        0x0 /home/jfb/nacl_sdk/pepper_42//lib/newlib_x86_32/Release/libppapi_cpp.a(resource_x86_32.o)
 *fill*         0x0000000010030c74        0x4 
 .bss           0x0000000010030c78        0xc /home/jfb/nacl_sdk/pepper_42//lib/newlib_x86_32/Release/libppapi_cpp.a(url_loader_x86_32.o)
 *fill*         0x0000000010030c84        0x4 
 .bss           0x0000000010030c88        0xc /home/jfb/nacl_sdk/pepper_42//lib/newlib_x86_32/Release/libppapi_cpp.a(url_response_info_x86_32.o)
 *fill*         0x0000000010030c94        0x4 
 .bss           0x0000000010030c98       0x2c /home/jfb/nacl_sdk/pepper_42//lib/newlib_x86_32/Release/libppapi_cpp.a(var_x86_32.o)
 *fill*         0x0000000010030cc4        0x4 
 .bss           0x0000000010030cc8       0x2c /home/jfb/nacl_sdk/pepper_42//lib/newlib_x86_32/Release/libppapi_cpp.a(view_x86_32.o)
 .bss           0x0000000010030cf4        0x0 /home/jfb/nacl_sdk/pepper_42//lib/newlib_x86_32/Release/libppapi_cpp.a(core_x86_32.o)
 *fill*         0x0000000010030cf4        0x4 
 .bss           0x0000000010030cf8       0x2c /home/jfb/nacl_sdk/pepper_42//lib/newlib_x86_32/Release/libppapi_cpp.a(file_ref_x86_32.o)
 *fill*         0x0000000010030d24        0x4 
 .bss           0x0000000010030d28       0x6c /home/jfb/nacl_sdk/pepper_42//lib/newlib_x86_32/Release/libppapi_cpp.a(input_event_x86_32.o)
 .bss           0x0000000010030d94        0x0 /home/jfb/nacl_sdk/pepper_42/toolchain/linux_x86_newlib/bin/../lib/gcc/x86_64-nacl/4.4.3/../../../../x86_64-nacl/lib/../lib32/libppapi_stub.a(plugin_main_irt_21ce9d26.o)
 .bss           0x0000000010030d94        0x0 /home/jfb/nacl_sdk/pepper_42/toolchain/linux_x86_newlib/bin/../lib/gcc/x86_64-nacl/4.4.3/../../../../x86_64-nacl/lib/../lib32/libppapi_stub.a(ppapi_plugin_main_399d0cf7.o)
 .bss           0x0000000010030d94        0x0 /home/jfb/nacl_sdk/pepper_42/toolchain/linux_x86_newlib/bin/../lib/gcc/x86_64-nacl/4.4.3/../../../../x86_64-nacl/lib/../lib32/libppapi_stub.a(ppapi_plugin_start_8da67623.o)
 .bss           0x0000000010030d94        0x0 /home/jfb/nacl_sdk/pepper_42/toolchain/linux_x86_newlib/bin/../lib/gcc/x86_64-nacl/4.4.3/../../../../x86_64-nacl/lib/../lib32/libppapi_stub.a(thread_creator_ccf263e1.o)
 *fill*         0x0000000010030d94        0xc 
 .bss           0x0000000010030da0     0x1020 /home/jfb/nacl_sdk/pepper_42/toolchain/linux_x86_newlib/bin/../lib/gcc/x86_64-nacl/4.4.3/../../../../x86_64-nacl/lib/../lib32/libpthread.a(nc_thread_7e478b15.o)
 .bss           0x0000000010031dc0        0x0 /home/jfb/nacl_sdk/pepper_42/toolchain/linux_x86_newlib/bin/../lib/gcc/x86_64-nacl/4.4.3/../../../../x86_64-nacl/lib/../lib32/libpthread.a(nc_condvar_305aa45a.o)
 .bss           0x0000000010031dc0        0x0 /home/jfb/nacl_sdk/pepper_42/toolchain/linux_x86_newlib/bin/../lib/gcc/x86_64-nacl/4.4.3/../../../../x86_64-nacl/lib/../lib32/libpthread.a(dynamic_annotations_33ba59cc.o)
 .bss           0x0000000010031dc0        0x0 /home/jfb/nacl_sdk/pepper_42/toolchain/linux_x86_newlib/bin/../lib/gcc/x86_64-nacl/4.4.3/../../../../x86_64-nacl/lib/../lib32/libpthread.a(nc_mutex_86341ae1.o)
 .bss           0x0000000010031dc0        0x0 /home/jfb/nacl_sdk/pepper_42/toolchain/linux_x86_newlib/bin/../lib/gcc/x86_64-nacl/4.4.3/../../../../x86_64-nacl/lib/../lib32/libpthread.a(nc_init_irt_d3daafc0.o)
 .bss           0x0000000010031dc0        0x0 /home/jfb/nacl_sdk/pepper_42/toolchain/linux_x86_newlib/bin/../lib/gcc/x86_64-nacl/4.4.3/../../../../x86_64-nacl/lib/../lib32/libstdc++.a(tree.o)
 .bss           0x0000000010031dc0        0x0 /home/jfb/nacl_sdk/pepper_42/toolchain/linux_x86_newlib/bin/../lib/gcc/x86_64-nacl/4.4.3/../../../../x86_64-nacl/lib/../lib32/libstdc++.a(string-inst.o)
 .bss._ZNSs4_Rep20_S_empty_rep_storageE
                0x0000000010031dc0       0x10 /home/jfb/nacl_sdk/pepper_42/toolchain/linux_x86_newlib/bin/../lib/gcc/x86_64-nacl/4.4.3/../../../../x86_64-nacl/lib/../lib32/libstdc++.a(string-inst.o)
                0x0000000010031dc0                _ZNSs4_Rep20_S_empty_rep_storageE
 .bss           0x0000000010031dd0        0x0 /home/jfb/nacl_sdk/pepper_42/toolchain/linux_x86_newlib/bin/../lib/gcc/x86_64-nacl/4.4.3/../../../../x86_64-nacl/lib/../lib32/libstdc++.a(eh_personality.o)
 .bss           0x0000000010031dd0        0x0 /home/jfb/nacl_sdk/pepper_42/toolchain/linux_x86_newlib/bin/../lib/gcc/x86_64-nacl/4.4.3/../../../../x86_64-nacl/lib/../lib32/libstdc++.a(eh_globals.o)
 .bss._ZL4init  0x0000000010031dd0        0x8 /home/jfb/nacl_sdk/pepper_42/toolchain/linux_x86_newlib/bin/../lib/gcc/x86_64-nacl/4.4.3/../../../../x86_64-nacl/lib/../lib32/libstdc++.a(eh_globals.o)
 .bss._ZL10eh_globals
                0x0000000010031dd8        0x8 /home/jfb/nacl_sdk/pepper_42/toolchain/linux_x86_newlib/bin/../lib/gcc/x86_64-nacl/4.4.3/../../../../x86_64-nacl/lib/../lib32/libstdc++.a(eh_globals.o)
 .bss           0x0000000010031de0        0x0 /home/jfb/nacl_sdk/pepper_42/toolchain/linux_x86_newlib/bin/../lib/gcc/x86_64-nacl/4.4.3/../../../../x86_64-nacl/lib/../lib32/libstdc++.a(eh_throw.o)
 .bss           0x0000000010031de0        0x0 /home/jfb/nacl_sdk/pepper_42/toolchain/linux_x86_newlib/bin/../lib/gcc/x86_64-nacl/4.4.3/../../../../x86_64-nacl/lib/../lib32/libstdc++.a(del_op.o)
 .bss           0x0000000010031de0        0x0 /home/jfb/nacl_sdk/pepper_42/toolchain/linux_x86_newlib/bin/../lib/gcc/x86_64-nacl/4.4.3/../../../../x86_64-nacl/lib/../lib32/libstdc++.a(eh_call.o)
 .bss           0x0000000010031de0        0x0 /home/jfb/nacl_sdk/pepper_42/toolchain/linux_x86_newlib/bin/../lib/gcc/x86_64-nacl/4.4.3/../../../../x86_64-nacl/lib/../lib32/libstdc++.a(guard.o)
 .bss._ZN12_GLOBAL__N_1L12static_mutexE
                0x0000000010031de0        0x4 /home/jfb/nacl_sdk/pepper_42/toolchain/linux_x86_newlib/bin/../lib/gcc/x86_64-nacl/4.4.3/../../../../x86_64-nacl/lib/../lib32/libstdc++.a(guard.o)
 .bss._ZN12_GLOBAL__N_110fake_mutexE
                0x0000000010031de4       0x14 /home/jfb/nacl_sdk/pepper_42/toolchain/linux_x86_newlib/bin/../lib/gcc/x86_64-nacl/4.4.3/../../../../x86_64-nacl/lib/../lib32/libstdc++.a(guard.o)
 .bss           0x0000000010031df8        0x0 /home/jfb/nacl_sdk/pepper_42/toolchain/linux_x86_newlib/bin/../lib/gcc/x86_64-nacl/4.4.3/../../../../x86_64-nacl/lib/../lib32/libstdc++.a(si_class_type_info.o)
 .bss           0x0000000010031df8        0x0 /home/jfb/nacl_sdk/pepper_42/toolchain/linux_x86_newlib/bin/../lib/gcc/x86_64-nacl/4.4.3/../../../../x86_64-nacl/lib/../lib32/libstdc++.a(eh_terminate.o)
 .bss           0x0000000010031df8        0x0 /home/jfb/nacl_sdk/pepper_42/toolchain/linux_x86_newlib/bin/../lib/gcc/x86_64-nacl/4.4.3/../../../../x86_64-nacl/lib/../lib32/libstdc++.a(class_type_info.o)
 .bss           0x0000000010031df8        0x0 /home/jfb/nacl_sdk/pepper_42/toolchain/linux_x86_newlib/bin/../lib/gcc/x86_64-nacl/4.4.3/../../../../x86_64-nacl/lib/../lib32/libstdc++.a(eh_alloc.o)
 .bss._ZN12_GLOBAL__N_115emergency_mutexE
                0x0000000010031df8       0x14 /home/jfb/nacl_sdk/pepper_42/toolchain/linux_x86_newlib/bin/../lib/gcc/x86_64-nacl/4.4.3/../../../../x86_64-nacl/lib/../lib32/libstdc++.a(eh_alloc.o)
 *fill*         0x0000000010031e0c       0x14 
 .bss._ZL17dependents_buffer
                0x0000000010031e20      0xa00 /home/jfb/nacl_sdk/pepper_42/toolchain/linux_x86_newlib/bin/../lib/gcc/x86_64-nacl/4.4.3/../../../../x86_64-nacl/lib/../lib32/libstdc++.a(eh_alloc.o)
 .bss._ZL15dependents_used
                0x0000000010032820        0x4 /home/jfb/nacl_sdk/pepper_42/toolchain/linux_x86_newlib/bin/../lib/gcc/x86_64-nacl/4.4.3/../../../../x86_64-nacl/lib/../lib32/libstdc++.a(eh_alloc.o)
 *fill*         0x0000000010032824       0x1c 
 .bss._ZL16emergency_buffer
                0x0000000010032840     0x4000 /home/jfb/nacl_sdk/pepper_42/toolchain/linux_x86_newlib/bin/../lib/gcc/x86_64-nacl/4.4.3/../../../../x86_64-nacl/lib/../lib32/libstdc++.a(eh_alloc.o)
 .bss._ZL14emergency_used
                0x0000000010036840        0x4 /home/jfb/nacl_sdk/pepper_42/toolchain/linux_x86_newlib/bin/../lib/gcc/x86_64-nacl/4.4.3/../../../../x86_64-nacl/lib/../lib32/libstdc++.a(eh_alloc.o)
 .bss           0x0000000010036844        0x0 /home/jfb/nacl_sdk/pepper_42/toolchain/linux_x86_newlib/bin/../lib/gcc/x86_64-nacl/4.4.3/../../../../x86_64-nacl/lib/../lib32/libstdc++.a(eh_catch.o)
 .bss           0x0000000010036844        0x0 /home/jfb/nacl_sdk/pepper_42/toolchain/linux_x86_newlib/bin/../lib/gcc/x86_64-nacl/4.4.3/../../../../x86_64-nacl/lib/../lib32/libstdc++.a(eh_exception.o)
 .bss           0x0000000010036844        0x0 /home/jfb/nacl_sdk/pepper_42/toolchain/linux_x86_newlib/bin/../lib/gcc/x86_64-nacl/4.4.3/../../../../x86_64-nacl/lib/../lib32/libstdc++.a(pure.o)
 .bss           0x0000000010036844        0x0 /home/jfb/nacl_sdk/pepper_42/toolchain/linux_x86_newlib/bin/../lib/gcc/x86_64-nacl/4.4.3/../../../../x86_64-nacl/lib/../lib32/libstdc++.a(new_op.o)
 .bss           0x0000000010036844        0x0 /home/jfb/nacl_sdk/pepper_42/toolchain/linux_x86_newlib/bin/../lib/gcc/x86_64-nacl/4.4.3/../../../../x86_64-nacl/lib/../lib32/libstdc++.a(tinfo.o)
 .bss           0x0000000010036844        0x0 /home/jfb/nacl_sdk/pepper_42/toolchain/linux_x86_newlib/bin/../lib/gcc/x86_64-nacl/4.4.3/../../../../x86_64-nacl/lib/../lib32/libstdc++.a(functexcept.o)
 .bss           0x0000000010036844        0x0 /home/jfb/nacl_sdk/pepper_42/toolchain/linux_x86_newlib/bin/../lib/gcc/x86_64-nacl/4.4.3/../../../../x86_64-nacl/lib/../lib32/libstdc++.a(ios_failure.o)
 .bss           0x0000000010036844        0x0 /home/jfb/nacl_sdk/pepper_42/toolchain/linux_x86_newlib/bin/../lib/gcc/x86_64-nacl/4.4.3/../../../../x86_64-nacl/lib/../lib32/libstdc++.a(stdexcept.o)
 .bss           0x0000000010036844        0x0 /home/jfb/nacl_sdk/pepper_42/toolchain/linux_x86_newlib/bin/../lib/gcc/x86_64-nacl/4.4.3/../../../../x86_64-nacl/lib/../lib32/libstdc++.a(system_error.o)
 .bss._ZN12_GLOBAL__N_1L25generic_category_instanceE
                0x0000000010036844        0x4 /home/jfb/nacl_sdk/pepper_42/toolchain/linux_x86_newlib/bin/../lib/gcc/x86_64-nacl/4.4.3/../../../../x86_64-nacl/lib/../lib32/libstdc++.a(system_error.o)
 .bss._ZN12_GLOBAL__N_1L24system_category_instanceE
                0x0000000010036848        0x4 /home/jfb/nacl_sdk/pepper_42/toolchain/linux_x86_newlib/bin/../lib/gcc/x86_64-nacl/4.4.3/../../../../x86_64-nacl/lib/../lib32/libstdc++.a(system_error.o)
 .bss           0x000000001003684c        0x0 /home/jfb/nacl_sdk/pepper_42/toolchain/linux_x86_newlib/bin/../lib/gcc/x86_64-nacl/4.4.3/../../../../x86_64-nacl/lib/../lib32/libstdc++.a(eh_unex_handler.o)
 .bss           0x000000001003684c        0x0 /home/jfb/nacl_sdk/pepper_42/toolchain/linux_x86_newlib/bin/../lib/gcc/x86_64-nacl/4.4.3/../../../../x86_64-nacl/lib/../lib32/libstdc++.a(eh_term_handler.o)
 .bss           0x000000001003684c        0x0 /home/jfb/nacl_sdk/pepper_42/toolchain/linux_x86_newlib/bin/../lib/gcc/x86_64-nacl/4.4.3/../../../../x86_64-nacl/lib/../lib32/libstdc++.a(bad_typeid.o)
 .bss           0x000000001003684c        0x0 /home/jfb/nacl_sdk/pepper_42/toolchain/linux_x86_newlib/bin/../lib/gcc/x86_64-nacl/4.4.3/../../../../x86_64-nacl/lib/../lib32/libstdc++.a(new_handler.o)
 .bss.__new_handler
                0x000000001003684c        0x4 /home/jfb/nacl_sdk/pepper_42/toolchain/linux_x86_newlib/bin/../lib/gcc/x86_64-nacl/4.4.3/../../../../x86_64-nacl/lib/../lib32/libstdc++.a(new_handler.o)
                0x000000001003684c                __new_handler
 .bss           0x0000000010036850        0x0 /home/jfb/nacl_sdk/pepper_42/toolchain/linux_x86_newlib/bin/../lib/gcc/x86_64-nacl/4.4.3/../../../../x86_64-nacl/lib/../lib32/libstdc++.a(bad_cast.o)
 .bss           0x0000000010036850        0x0 /home/jfb/nacl_sdk/pepper_42/toolchain/linux_x86_newlib/bin/../lib/gcc/x86_64-nacl/4.4.3/../../../../x86_64-nacl/lib/../lib32/libstdc++.a(vterminate.o)
 .bss._ZZN9__gnu_cxx27__verbose_terminate_handlerEvE11terminating
                0x0000000010036850        0x1 /home/jfb/nacl_sdk/pepper_42/toolchain/linux_x86_newlib/bin/../lib/gcc/x86_64-nacl/4.4.3/../../../../x86_64-nacl/lib/../lib32/libstdc++.a(vterminate.o)
 *fill*         0x0000000010036851        0x3 
 .bss           0x0000000010036854        0x0 /home/jfb/nacl_sdk/pepper_42/toolchain/linux_x86_newlib/bin/../lib/gcc/x86_64-nacl/4.4.3/../../../../x86_64-nacl/lib/../lib32/libstdc++.a(cp-demangle.o)
 .bss           0x0000000010036854        0x0 /home/jfb/nacl_sdk/pepper_42/toolchain/linux_x86_newlib/bin/../lib/gcc/x86_64-nacl/4.4.3/../../../../x86_64-nacl/lib/../lib32/libstdc++.a(eh_type.o)
 .bss           0x0000000010036854       0x12 /home/jfb/nacl_sdk/pepper_42/toolchain/linux_x86_newlib/bin/../lib/gcc/x86_64-nacl/4.4.3/32/libgcc.a(unwind-dw2.o)
 *fill*         0x0000000010036866        0x2 
 .bss           0x0000000010036868        0xc /home/jfb/nacl_sdk/pepper_42/toolchain/linux_x86_newlib/bin/../lib/gcc/x86_64-nacl/4.4.3/32/libgcc.a(unwind-dw2-fde-glibc.o)
 .bss           0x0000000010036874        0x0 /home/jfb/nacl_sdk/pepper_42/toolchain/linux_x86_newlib/bin/../lib/gcc/x86_64-nacl/4.4.3/../../../../x86_64-nacl/lib/../lib32/libnacl.a(_exit_710c7d0d.o)
 .bss           0x0000000010036874        0x0 /home/jfb/nacl_sdk/pepper_42/toolchain/linux_x86_newlib/bin/../lib/gcc/x86_64-nacl/4.4.3/../../../../x86_64-nacl/lib/../lib32/libnacl.a(abort_9f6b5845.o)
 .bss           0x0000000010036874        0x4 /home/jfb/nacl_sdk/pepper_42/toolchain/linux_x86_newlib/bin/../lib/gcc/x86_64-nacl/4.4.3/../../../../x86_64-nacl/lib/../lib32/libnacl.a(environ_25cd24d8.o)
 .bss           0x0000000010036878        0x0 /home/jfb/nacl_sdk/pepper_42/toolchain/linux_x86_newlib/bin/../lib/gcc/x86_64-nacl/4.4.3/../../../../x86_64-nacl/lib/../lib32/libnacl.a(start_fa9ef7de.o)
 *fill*         0x0000000010036878        0x8 
 .bss           0x0000000010036880      0x1fc /home/jfb/nacl_sdk/pepper_42/toolchain/linux_x86_newlib/bin/../lib/gcc/x86_64-nacl/4.4.3/../../../../x86_64-nacl/lib/../lib32/libnacl.a(malloc_222c4a1e.o)
 .bss           0x0000000010036a7c        0x0 /home/jfb/nacl_sdk/pepper_42/toolchain/linux_x86_newlib/bin/../lib/gcc/x86_64-nacl/4.4.3/../../../../x86_64-nacl/lib/../lib32/libnacl.a(nacl_irt_6de1d53f.o)
 .bss           0x0000000010036a7c        0x0 /home/jfb/nacl_sdk/pepper_42/toolchain/linux_x86_newlib/bin/../lib/gcc/x86_64-nacl/4.4.3/../../../../x86_64-nacl/lib/../lib32/libnacl.a(pthread_initialize_minimal_4b6e776b.o)
 .bss           0x0000000010036a7c        0x0 /home/jfb/nacl_sdk/pepper_42/toolchain/linux_x86_newlib/bin/../lib/gcc/x86_64-nacl/4.4.3/../../../../x86_64-nacl/lib/../lib32/libnacl.a(nacl_read_tp_5748ac47.o)
 .bss           0x0000000010036a7c        0x0 /home/jfb/nacl_sdk/pepper_42/toolchain/linux_x86_newlib/bin/../lib/gcc/x86_64-nacl/4.4.3/../../../../x86_64-nacl/lib/../lib32/libnacl.a(mmap_767fb080.o)
 .bss           0x0000000010036a7c        0x0 /home/jfb/nacl_sdk/pepper_42/toolchain/linux_x86_newlib/bin/../lib/gcc/x86_64-nacl/4.4.3/../../../../x86_64-nacl/lib/../lib32/libnacl.a(sched_yield_56c375be.o)
 .bss           0x0000000010036a7c        0x0 /home/jfb/nacl_sdk/pepper_42/toolchain/linux_x86_newlib/bin/../lib/gcc/x86_64-nacl/4.4.3/../../../../x86_64-nacl/lib/../lib32/libnacl.a(munmap_d4f09867.o)
 .bss           0x0000000010036a7c       0x10 /home/jfb/nacl_sdk/pepper_42/toolchain/linux_x86_newlib/bin/../lib/gcc/x86_64-nacl/4.4.3/../../../../x86_64-nacl/lib/../lib32/libnacl.a(tls_bba1975b.o)
 .bss           0x0000000010036a8c        0x0 /home/jfb/nacl_sdk/pepper_42/toolchain/linux_x86_newlib/bin/../lib/gcc/x86_64-nacl/4.4.3/../../../../x86_64-nacl/lib/../lib32/libnacl.a(write_fb49787f.o)
 .bss           0x0000000010036a8c        0x0 /home/jfb/nacl_sdk/pepper_42/toolchain/linux_x86_newlib/bin/../lib/gcc/x86_64-nacl/4.4.3/../../../../x86_64-nacl/lib/../lib32/libnacl.a(nacl_tls_get_d2f842b5.o)
 .bss           0x0000000010036a8c        0x0 /home/jfb/nacl_sdk/pepper_42/toolchain/linux_x86_newlib/bin/../lib/gcc/x86_64-nacl/4.4.3/../../../../x86_64-nacl/lib/../lib32/libnacl.a(nacl_irt_init_7b4f826e.o)
 .bss           0x0000000010036a8c        0x0 /home/jfb/nacl_sdk/pepper_42/toolchain/linux_x86_newlib/bin/../lib/gcc/x86_64-nacl/4.4.3/../../../../x86_64-nacl/lib/../lib32/libnacl.a(sysconf_ad295ea2.o)
 .bss           0x0000000010036a8c        0x0 /home/jfb/nacl_sdk/pepper_42/toolchain/linux_x86_newlib/bin/../lib/gcc/x86_64-nacl/4.4.3/../../../../x86_64-nacl/lib/../lib32/libnacl.a(nacl_tls_init_eb0cd232.o)
 .bss           0x0000000010036a8c        0x0 /home/jfb/nacl_sdk/pepper_42/toolchain/linux_x86_newlib/bin/../lib/gcc/x86_64-nacl/4.4.3/../../../../x86_64-nacl/lib/../lib32/libcrt_common.a(lib_a-atexit.o)
 .bss           0x0000000010036a8c        0x0 /home/jfb/nacl_sdk/pepper_42/toolchain/linux_x86_newlib/bin/../lib/gcc/x86_64-nacl/4.4.3/../../../../x86_64-nacl/lib/../lib32/libcrt_common.a(lib_a-cxa_atexit.o)
 .bss           0x0000000010036a8c        0x0 /home/jfb/nacl_sdk/pepper_42/toolchain/linux_x86_newlib/bin/../lib/gcc/x86_64-nacl/4.4.3/../../../../x86_64-nacl/lib/../lib32/libcrt_common.a(lib_a-errno.o)
 .bss           0x0000000010036a8c        0x0 /home/jfb/nacl_sdk/pepper_42/toolchain/linux_x86_newlib/bin/../lib/gcc/x86_64-nacl/4.4.3/../../../../x86_64-nacl/lib/../lib32/libcrt_common.a(lib_a-exit.o)
 .bss           0x0000000010036a8c        0x0 /home/jfb/nacl_sdk/pepper_42/toolchain/linux_x86_newlib/bin/../lib/gcc/x86_64-nacl/4.4.3/../../../../x86_64-nacl/lib/../lib32/libcrt_common.a(lib_a-fini.o)
 .bss           0x0000000010036a8c        0x0 /home/jfb/nacl_sdk/pepper_42/toolchain/linux_x86_newlib/bin/../lib/gcc/x86_64-nacl/4.4.3/../../../../x86_64-nacl/lib/../lib32/libcrt_common.a(lib_a-fprintf.o)
 .bss           0x0000000010036a8c        0x0 /home/jfb/nacl_sdk/pepper_42/toolchain/linux_x86_newlib/bin/../lib/gcc/x86_64-nacl/4.4.3/../../../../x86_64-nacl/lib/../lib32/libcrt_common.a(lib_a-fputc.o)
 .bss           0x0000000010036a8c        0x0 /home/jfb/nacl_sdk/pepper_42/toolchain/linux_x86_newlib/bin/../lib/gcc/x86_64-nacl/4.4.3/../../../../x86_64-nacl/lib/../lib32/libcrt_common.a(lib_a-fputs.o)
 .bss           0x0000000010036a8c        0x0 /home/jfb/nacl_sdk/pepper_42/toolchain/linux_x86_newlib/bin/../lib/gcc/x86_64-nacl/4.4.3/../../../../x86_64-nacl/lib/../lib32/libcrt_common.a(lib_a-fvwrite.o)
 .bss           0x0000000010036a8c        0x0 /home/jfb/nacl_sdk/pepper_42/toolchain/linux_x86_newlib/bin/../lib/gcc/x86_64-nacl/4.4.3/../../../../x86_64-nacl/lib/../lib32/libcrt_common.a(lib_a-fwrite.o)
 .bss           0x0000000010036a8c        0x0 /home/jfb/nacl_sdk/pepper_42/toolchain/linux_x86_newlib/bin/../lib/gcc/x86_64-nacl/4.4.3/../../../../x86_64-nacl/lib/../lib32/libcrt_common.a(lib_a-getenv.o)
 .bss           0x0000000010036a8c        0x0 /home/jfb/nacl_sdk/pepper_42/toolchain/linux_x86_newlib/bin/../lib/gcc/x86_64-nacl/4.4.3/../../../../x86_64-nacl/lib/../lib32/libcrt_common.a(lib_a-getenv_r.o)
 .bss           0x0000000010036a8c        0x0 /home/jfb/nacl_sdk/pepper_42/toolchain/linux_x86_newlib/bin/../lib/gcc/x86_64-nacl/4.4.3/../../../../x86_64-nacl/lib/../lib32/libcrt_common.a(lib_a-impure.o)
 .bss           0x0000000010036a8c        0x0 /home/jfb/nacl_sdk/pepper_42/toolchain/linux_x86_newlib/bin/../lib/gcc/x86_64-nacl/4.4.3/../../../../x86_64-nacl/lib/../lib32/libcrt_common.a(lib_a-init.o)
 .bss           0x0000000010036a8c        0x0 /home/jfb/nacl_sdk/pepper_42/toolchain/linux_x86_newlib/bin/../lib/gcc/x86_64-nacl/4.4.3/../../../../x86_64-nacl/lib/../lib32/libcrt_common.a(lib_a-memchr.o)
 .bss           0x0000000010036a8c        0x0 /home/jfb/nacl_sdk/pepper_42/toolchain/linux_x86_newlib/bin/../lib/gcc/x86_64-nacl/4.4.3/../../../../x86_64-nacl/lib/../lib32/libcrt_common.a(lib_a-memcpy.o)
 .bss           0x0000000010036a8c        0x0 /home/jfb/nacl_sdk/pepper_42/toolchain/linux_x86_newlib/bin/../lib/gcc/x86_64-nacl/4.4.3/../../../../x86_64-nacl/lib/../lib32/libcrt_common.a(lib_a-memmove.o)
 .bss           0x0000000010036a8c        0x0 /home/jfb/nacl_sdk/pepper_42/toolchain/linux_x86_newlib/bin/../lib/gcc/x86_64-nacl/4.4.3/../../../../x86_64-nacl/lib/../lib32/libcrt_common.a(lib_a-memset.o)
 .bss           0x0000000010036a8c        0x0 /home/jfb/nacl_sdk/pepper_42/toolchain/linux_x86_newlib/bin/../lib/gcc/x86_64-nacl/4.4.3/../../../../x86_64-nacl/lib/../lib32/libcrt_common.a(lib_a-putc.o)
 .bss           0x0000000010036a8c        0x0 /home/jfb/nacl_sdk/pepper_42/toolchain/linux_x86_newlib/bin/../lib/gcc/x86_64-nacl/4.4.3/../../../../x86_64-nacl/lib/../lib32/libcrt_common.a(lib_a-snprintf.o)
 .bss           0x0000000010036a8c        0x0 /home/jfb/nacl_sdk/pepper_42/toolchain/linux_x86_newlib/bin/../lib/gcc/x86_64-nacl/4.4.3/../../../../x86_64-nacl/lib/../lib32/libcrt_common.a(lib_a-sprintf.o)
 .bss           0x0000000010036a8c        0x0 /home/jfb/nacl_sdk/pepper_42/toolchain/linux_x86_newlib/bin/../lib/gcc/x86_64-nacl/4.4.3/../../../../x86_64-nacl/lib/../lib32/libcrt_common.a(lib_a-strcpy.o)
 .bss           0x0000000010036a8c        0x0 /home/jfb/nacl_sdk/pepper_42/toolchain/linux_x86_newlib/bin/../lib/gcc/x86_64-nacl/4.4.3/../../../../x86_64-nacl/lib/../lib32/libcrt_common.a(lib_a-strerror.o)
 .bss           0x0000000010036a8c        0x0 /home/jfb/nacl_sdk/pepper_42/toolchain/linux_x86_newlib/bin/../lib/gcc/x86_64-nacl/4.4.3/../../../../x86_64-nacl/lib/../lib32/libcrt_common.a(lib_a-strlen.o)
 .bss           0x0000000010036a8c        0x0 /home/jfb/nacl_sdk/pepper_42/toolchain/linux_x86_newlib/bin/../lib/gcc/x86_64-nacl/4.4.3/../../../../x86_64-nacl/lib/../lib32/libcrt_common.a(lib_a-strncmp.o)
 .bss           0x0000000010036a8c        0x0 /home/jfb/nacl_sdk/pepper_42/toolchain/linux_x86_newlib/bin/../lib/gcc/x86_64-nacl/4.4.3/../../../../x86_64-nacl/lib/../lib32/libcrt_common.a(lib_a-svfprintf.o)
 .bss           0x0000000010036a8c        0x0 /home/jfb/nacl_sdk/pepper_42/toolchain/linux_x86_newlib/bin/../lib/gcc/x86_64-nacl/4.4.3/../../../../x86_64-nacl/lib/../lib32/libcrt_common.a(lib_a-u_strerr.o)
 .bss           0x0000000010036a8c        0x0 /home/jfb/nacl_sdk/pepper_42/toolchain/linux_x86_newlib/bin/../lib/gcc/x86_64-nacl/4.4.3/../../../../x86_64-nacl/lib/../lib32/libcrt_common.a(lib_a-vfprintf.o)
 .bss           0x0000000010036a8c        0x0 /home/jfb/nacl_sdk/pepper_42/toolchain/linux_x86_newlib/bin/../lib/gcc/x86_64-nacl/4.4.3/../../../../x86_64-nacl/lib/../lib32/libcrt_common.a(lib_a-wbuf.o)
 .bss           0x0000000010036a8c        0x0 /home/jfb/nacl_sdk/pepper_42/toolchain/linux_x86_newlib/bin/../lib/gcc/x86_64-nacl/4.4.3/../../../../x86_64-nacl/lib/../lib32/libcrt_common.a(lib_a-wcrtomb.o)
 .bss           0x0000000010036a8c        0x0 /home/jfb/nacl_sdk/pepper_42/toolchain/linux_x86_newlib/bin/../lib/gcc/x86_64-nacl/4.4.3/../../../../x86_64-nacl/lib/../lib32/libcrt_common.a(lib_a-wcsrtombs.o)
 .bss           0x0000000010036a8c        0x0 /home/jfb/nacl_sdk/pepper_42/toolchain/linux_x86_newlib/bin/../lib/gcc/x86_64-nacl/4.4.3/../../../../x86_64-nacl/lib/../lib32/libcrt_common.a(lib_a-wctomb_r.o)
 .bss           0x0000000010036a8c        0x0 /home/jfb/nacl_sdk/pepper_42/toolchain/linux_x86_newlib/bin/../lib/gcc/x86_64-nacl/4.4.3/../../../../x86_64-nacl/lib/../lib32/libcrt_common.a(lib_a-wsetup.o)
 .bss           0x0000000010036a8c        0x0 /home/jfb/nacl_sdk/pepper_42/toolchain/linux_x86_newlib/bin/../lib/gcc/x86_64-nacl/4.4.3/../../../../x86_64-nacl/lib/../lib32/libcrt_common.a(lib_a-__atexit.o)
 .bss           0x0000000010036a8c        0x0 /home/jfb/nacl_sdk/pepper_42/toolchain/linux_x86_newlib/bin/../lib/gcc/x86_64-nacl/4.4.3/../../../../x86_64-nacl/lib/../lib32/libcrt_common.a(lib_a-__call_atexit.o)
 .bss           0x0000000010036a8c        0x0 /home/jfb/nacl_sdk/pepper_42/toolchain/linux_x86_newlib/bin/../lib/gcc/x86_64-nacl/4.4.3/../../../../x86_64-nacl/lib/../lib32/libcrt_common.a(lib_a-dtoa.o)
 .bss           0x0000000010036a8c        0x0 /home/jfb/nacl_sdk/pepper_42/toolchain/linux_x86_newlib/bin/../lib/gcc/x86_64-nacl/4.4.3/../../../../x86_64-nacl/lib/../lib32/libcrt_common.a(lib_a-envlock.o)
 .bss           0x0000000010036a8c        0x0 /home/jfb/nacl_sdk/pepper_42/toolchain/linux_x86_newlib/bin/../lib/gcc/x86_64-nacl/4.4.3/../../../../x86_64-nacl/lib/../lib32/libcrt_common.a(lib_a-fflush.o)
 .bss           0x0000000010036a8c        0x0 /home/jfb/nacl_sdk/pepper_42/toolchain/linux_x86_newlib/bin/../lib/gcc/x86_64-nacl/4.4.3/../../../../x86_64-nacl/lib/../lib32/libcrt_common.a(lib_a-findfp.o)
 .bss           0x0000000010036a8c        0x0 /home/jfb/nacl_sdk/pepper_42/toolchain/linux_x86_newlib/bin/../lib/gcc/x86_64-nacl/4.4.3/../../../../x86_64-nacl/lib/../lib32/libcrt_common.a(lib_a-fwalk.o)
 *fill*         0x0000000010036a8c       0x14 
 .bss           0x0000000010036aa0      0x2c7 /home/jfb/nacl_sdk/pepper_42/toolchain/linux_x86_newlib/bin/../lib/gcc/x86_64-nacl/4.4.3/../../../../x86_64-nacl/lib/../lib32/libcrt_common.a(lib_a-locale.o)
                0x0000000010036aa0                __nlocale_changed
                0x0000000010036aa4                __mlocale_changed
                0x0000000010036aa8                _PathLocale
 *fill*         0x0000000010036d67        0x1 
 .bss           0x0000000010036d68        0x0 /home/jfb/nacl_sdk/pepper_42/toolchain/linux_x86_newlib/bin/../lib/gcc/x86_64-nacl/4.4.3/../../../../x86_64-nacl/lib/../lib32/libcrt_common.a(lib_a-makebuf.o)
 .bss           0x0000000010036d68        0x0 /home/jfb/nacl_sdk/pepper_42/toolchain/linux_x86_newlib/bin/../lib/gcc/x86_64-nacl/4.4.3/../../../../x86_64-nacl/lib/../lib32/libcrt_common.a(lib_a-mbtowc_r.o)
 .bss           0x0000000010036d68        0x0 /home/jfb/nacl_sdk/pepper_42/toolchain/linux_x86_newlib/bin/../lib/gcc/x86_64-nacl/4.4.3/../../../../x86_64-nacl/lib/../lib32/libcrt_common.a(lib_a-mprec.o)
 .bss           0x0000000010036d68        0x0 /home/jfb/nacl_sdk/pepper_42/toolchain/linux_x86_newlib/bin/../lib/gcc/x86_64-nacl/4.4.3/../../../../x86_64-nacl/lib/../lib32/libcrt_common.a(lib_a-s_fpclassify.o)
 .bss           0x0000000010036d68        0x0 /home/jfb/nacl_sdk/pepper_42/toolchain/linux_x86_newlib/bin/../lib/gcc/x86_64-nacl/4.4.3/../../../../x86_64-nacl/lib/../lib32/libcrt_common.a(lib_a-s_frexp.o)
 .bss           0x0000000010036d68        0x0 /home/jfb/nacl_sdk/pepper_42/toolchain/linux_x86_newlib/bin/../lib/gcc/x86_64-nacl/4.4.3/../../../../x86_64-nacl/lib/../lib32/libcrt_common.a(lib_a-stdio.o)
 .bss           0x0000000010036d68        0x0 /home/jfb/nacl_sdk/pepper_42/toolchain/linux_x86_newlib/bin/../lib/gcc/x86_64-nacl/4.4.3/../../../../x86_64-nacl/lib/../lib32/libcrt_common.a(lib_a-strcasecmp.o)
 .bss           0x0000000010036d68        0x0 /home/jfb/nacl_sdk/pepper_42/toolchain/linux_x86_newlib/bin/../lib/gcc/x86_64-nacl/4.4.3/../../../../x86_64-nacl/lib/../lib32/libcrt_common.a(lib_a-strcat.o)
 .bss           0x0000000010036d68        0x0 /home/jfb/nacl_sdk/pepper_42/toolchain/linux_x86_newlib/bin/../lib/gcc/x86_64-nacl/4.4.3/../../../../x86_64-nacl/lib/../lib32/libcrt_common.a(lib_a-strchr.o)
 .bss           0x0000000010036d68        0x0 /home/jfb/nacl_sdk/pepper_42/toolchain/linux_x86_newlib/bin/../lib/gcc/x86_64-nacl/4.4.3/../../../../x86_64-nacl/lib/../lib32/libcrt_common.a(lib_a-strcmp.o)
 .bss           0x0000000010036d68        0x0 /home/jfb/nacl_sdk/pepper_42/toolchain/linux_x86_newlib/bin/../lib/gcc/x86_64-nacl/4.4.3/../../../../x86_64-nacl/lib/../lib32/libcrt_common.a(lib_a-strlcpy.o)
 .bss           0x0000000010036d68        0x0 /home/jfb/nacl_sdk/pepper_42/toolchain/linux_x86_newlib/bin/../lib/gcc/x86_64-nacl/4.4.3/../../../../x86_64-nacl/lib/../lib32/libcrt_common.a(lib_a-strncasecmp.o)
 .bss           0x0000000010036d68        0x0 /home/jfb/nacl_sdk/pepper_42/toolchain/linux_x86_newlib/bin/../lib/gcc/x86_64-nacl/4.4.3/../../../../x86_64-nacl/lib/../lib32/libcrt_common.a(lib_a-strncpy.o)
 .bss           0x0000000010036d68        0x0 /home/jfb/nacl_sdk/pepper_42/toolchain/linux_x86_newlib/bin/../lib/gcc/x86_64-nacl/4.4.3/../../../../x86_64-nacl/lib/../lib32/libcrt_common.a(lib_a-strtol.o)
 .bss           0x0000000010036d68        0x0 /home/jfb/nacl_sdk/pepper_42/toolchain/linux_x86_newlib/bin/../lib/gcc/x86_64-nacl/4.4.3/../../../../x86_64-nacl/lib/../lib32/libcrt_common.a(lib_a-svfiprintf.o)
 .bss           0x0000000010036d68        0x0 /home/jfb/nacl_sdk/pepper_42/toolchain/linux_x86_newlib/bin/../lib/gcc/x86_64-nacl/4.4.3/../../../../x86_64-nacl/lib/../lib32/libcrt_common.a(lib_a-vfiprintf.o)
 .bss           0x0000000010036d68        0x0 /home/jfb/nacl_sdk/pepper_42/toolchain/linux_x86_newlib/bin/../lib/gcc/x86_64-nacl/4.4.3/../../../../x86_64-nacl/lib/../lib32/libcrt_common.a(lib_a-wcsnrtombs.o)
 .bss           0x0000000010036d68        0x0 /home/jfb/nacl_sdk/pepper_42/toolchain/linux_x86_newlib/bin/../lib/gcc/x86_64-nacl/4.4.3/../../../../x86_64-nacl/lib/../lib32/libcrt_common.a(lib_a-ctype_.o)
 .bss           0x0000000010036d68        0x0 /home/jfb/nacl_sdk/pepper_42/toolchain/linux_x86_newlib/bin/../lib/gcc/x86_64-nacl/4.4.3/../../../../x86_64-nacl/lib/../lib32/libcrt_common.a(lib_a-fclose.o)
 .bss           0x0000000010036d68        0x0 /home/jfb/nacl_sdk/pepper_42/toolchain/linux_x86_newlib/bin/../lib/gcc/x86_64-nacl/4.4.3/../../../../x86_64-nacl/lib/../lib32/libcrt_common.a(lib_a-fputwc.o)
 .bss           0x0000000010036d68        0x0 /home/jfb/nacl_sdk/pepper_42/toolchain/linux_x86_newlib/bin/../lib/gcc/x86_64-nacl/4.4.3/../../../../x86_64-nacl/lib/../lib32/libnacl.a(close_e9b92fbd.o)
 .bss           0x0000000010036d68        0x0 /home/jfb/nacl_sdk/pepper_42/toolchain/linux_x86_newlib/bin/../lib/gcc/x86_64-nacl/4.4.3/../../../../x86_64-nacl/lib/../lib32/libnacl.a(isatty_02f56e94.o)
 .bss           0x0000000010036d68        0x0 /home/jfb/nacl_sdk/pepper_42/toolchain/linux_x86_newlib/bin/../lib/gcc/x86_64-nacl/4.4.3/../../../../x86_64-nacl/lib/../lib32/libnacl.a(nacl_irt_fdio_b571b5e7.o)
 .bss           0x0000000010036d68        0x0 /home/jfb/nacl_sdk/pepper_42/toolchain/linux_x86_newlib/bin/../lib/gcc/x86_64-nacl/4.4.3/../../../../x86_64-nacl/lib/../lib32/libnacl.a(fstat_0540ff63.o)
 .bss           0x0000000010036d68        0x0 /home/jfb/nacl_sdk/pepper_42/toolchain/linux_x86_newlib/bin/../lib/gcc/x86_64-nacl/4.4.3/../../../../x86_64-nacl/lib/../lib32/libnacl.a(lseek_64d2d05c.o)
 .bss           0x0000000010036d68        0x0 /home/jfb/nacl_sdk/pepper_42/toolchain/linux_x86_newlib/bin/../lib/gcc/x86_64-nacl/4.4.3/../../../../x86_64-nacl/lib/../lib32/libnacl.a(read_df872e10.o)
 .bss           0x0000000010036d68        0x0 /home/jfb/nacl_sdk/pepper_42/toolchain/linux_x86_newlib/bin/../lib/gcc/x86_64-nacl/4.4.3/32/libgcc.a(_udivdi3.o)
 .bss           0x0000000010036d68        0x0 /home/jfb/nacl_sdk/pepper_42/toolchain/linux_x86_newlib/bin/../lib/gcc/x86_64-nacl/4.4.3/32/libgcc.a(_umoddi3.o)
 .bss           0x0000000010036d68        0x0 /home/jfb/nacl_sdk/pepper_42/toolchain/linux_x86_newlib/bin/../lib/gcc/x86_64-nacl/4.4.3/32/crtend.o
 .bss           0x0000000010036d68        0x0 /home/jfb/nacl_sdk/pepper_42/toolchain/linux_x86_newlib/bin/../lib/gcc/x86_64-nacl/4.4.3/../../../../x86_64-nacl/lib/../lib32/crtn.o
 *(COMMON)
 COMMON         0x0000000010036d68       0x40 /home/jfb/nacl_sdk/pepper_42/toolchain/linux_x86_newlib/bin/../lib/gcc/x86_64-nacl/4.4.3/../../../../x86_64-nacl/lib/../lib32/libpthread.a(nc_thread_7e478b15.o)
                0x0000000010036d68                __nc_thread_initialized
                0x0000000010036d6c                __nc_thread_management_lock
                0x0000000010036d80                __nc_memory_block_counter
                0x0000000010036d88                __nc_initial_thread_id
                0x0000000010036d8c                __nc_thread_memory_blocks
                0x0000000010036d9c                __libnacl_irt_thread
 COMMON         0x0000000010036da8        0x8 /home/jfb/nacl_sdk/pepper_42/toolchain/linux_x86_newlib/bin/../lib/gcc/x86_64-nacl/4.4.3/../../../../x86_64-nacl/lib/../lib32/libpthread.a(nc_init_irt_d3daafc0.o)
                0x0000000010036da8                __libnacl_irt_futex
 COMMON         0x0000000010036db0        0x4 /home/jfb/nacl_sdk/pepper_42/toolchain/linux_x86_newlib/bin/../lib/gcc/x86_64-nacl/4.4.3/../../../../x86_64-nacl/lib/../lib32/libnacl.a(start_fa9ef7de.o)
                0x0000000010036db0                __nacl_initial_thread_stack_end
 *fill*         0x0000000010036db4        0xc 
 COMMON         0x0000000010036dc0       0xdc /home/jfb/nacl_sdk/pepper_42/toolchain/linux_x86_newlib/bin/../lib/gcc/x86_64-nacl/4.4.3/../../../../x86_64-nacl/lib/../lib32/libnacl.a(nacl_irt_6de1d53f.o)
                0x0000000010036dc0                __nacl_irt_query
                0x0000000010036de0                __libnacl_irt_dev_filename
                0x0000000010036e20                __libnacl_irt_clock
                0x0000000010036e28                __libnacl_irt_memory
                0x0000000010036e40                __libnacl_irt_dev_fdio
                0x0000000010036e78                __libnacl_irt_basic
                0x0000000010036e90                __libnacl_irt_tls
                0x0000000010036e98                __libnacl_irt_dev_getpid
                0x0000000010036e9c                . = ALIGN ((. != 0x0)?0x4:0x1)
                0x0000000010036e9c                . = ALIGN (0x4)
                0x0000000010036e9c                . = SEGMENT_START ("ldata-segment", .)
                0x0000000010036e9c                . = ALIGN (0x4)
                0x0000000010036e9c                _end = .
                0x0000000010036e9c                PROVIDE (end, .)
                0x0000000010036e9c                . = DATA_SEGMENT_END (.)

.stab
 *(.stab)

.stabstr
 *(.stabstr)

.stab.excl
 *(.stab.excl)

.stab.exclstr
 *(.stab.exclstr)

.stab.index
 *(.stab.index)

.stab.indexstr
 *(.stab.indexstr)

.comment        0x0000000000000000       0x66
 *(.comment)
 .comment       0x0000000000000000       0x66 /home/jfb/nacl_sdk/pepper_42/toolchain/linux_x86_newlib/bin/../lib/gcc/x86_64-nacl/4.4.3/32/crtbegin.o
                                         0x67 (size before relaxing)
 .comment       0x0000000000000000       0x67 newlib/Release/multi_platform_x86_32.o
 .comment       0x0000000000000000       0x67 /home/jfb/nacl_sdk/pepper_42//lib/newlib_x86_32/Release/libppapi_cpp.a(instance_x86_32.o)
 .comment       0x0000000000000000       0x67 /home/jfb/nacl_sdk/pepper_42//lib/newlib_x86_32/Release/libppapi_cpp.a(module_x86_32.o)
 .comment       0x0000000000000000       0x67 /home/jfb/nacl_sdk/pepper_42//lib/newlib_x86_32/Release/libppapi_cpp.a(ppp_entrypoints_x86_32.o)
 .comment       0x0000000000000000       0x67 /home/jfb/nacl_sdk/pepper_42//lib/newlib_x86_32/Release/libppapi_cpp.a(resource_x86_32.o)
 .comment       0x0000000000000000       0x67 /home/jfb/nacl_sdk/pepper_42//lib/newlib_x86_32/Release/libppapi_cpp.a(url_loader_x86_32.o)
 .comment       0x0000000000000000       0x67 /home/jfb/nacl_sdk/pepper_42//lib/newlib_x86_32/Release/libppapi_cpp.a(url_response_info_x86_32.o)
 .comment       0x0000000000000000       0x67 /home/jfb/nacl_sdk/pepper_42//lib/newlib_x86_32/Release/libppapi_cpp.a(var_x86_32.o)
 .comment       0x0000000000000000       0x67 /home/jfb/nacl_sdk/pepper_42//lib/newlib_x86_32/Release/libppapi_cpp.a(view_x86_32.o)
 .comment       0x0000000000000000       0x67 /home/jfb/nacl_sdk/pepper_42//lib/newlib_x86_32/Release/libppapi_cpp.a(core_x86_32.o)
 .comment       0x0000000000000000       0x67 /home/jfb/nacl_sdk/pepper_42//lib/newlib_x86_32/Release/libppapi_cpp.a(file_ref_x86_32.o)
 .comment       0x0000000000000000       0x67 /home/jfb/nacl_sdk/pepper_42//lib/newlib_x86_32/Release/libppapi_cpp.a(input_event_x86_32.o)
 .comment       0x0000000000000000       0x67 /home/jfb/nacl_sdk/pepper_42/toolchain/linux_x86_newlib/bin/../lib/gcc/x86_64-nacl/4.4.3/../../../../x86_64-nacl/lib/../lib32/libppapi_stub.a(plugin_main_irt_21ce9d26.o)
 .comment       0x0000000000000000       0x67 /home/jfb/nacl_sdk/pepper_42/toolchain/linux_x86_newlib/bin/../lib/gcc/x86_64-nacl/4.4.3/../../../../x86_64-nacl/lib/../lib32/libppapi_stub.a(ppapi_plugin_main_399d0cf7.o)
 .comment       0x0000000000000000       0x67 /home/jfb/nacl_sdk/pepper_42/toolchain/linux_x86_newlib/bin/../lib/gcc/x86_64-nacl/4.4.3/../../../../x86_64-nacl/lib/../lib32/libppapi_stub.a(ppapi_plugin_start_8da67623.o)
 .comment       0x0000000000000000       0x67 /home/jfb/nacl_sdk/pepper_42/toolchain/linux_x86_newlib/bin/../lib/gcc/x86_64-nacl/4.4.3/../../../../x86_64-nacl/lib/../lib32/libppapi_stub.a(thread_creator_ccf263e1.o)
 .comment       0x0000000000000000       0x67 /home/jfb/nacl_sdk/pepper_42/toolchain/linux_x86_newlib/bin/../lib/gcc/x86_64-nacl/4.4.3/../../../../x86_64-nacl/lib/../lib32/libpthread.a(nc_thread_7e478b15.o)
 .comment       0x0000000000000000       0x67 /home/jfb/nacl_sdk/pepper_42/toolchain/linux_x86_newlib/bin/../lib/gcc/x86_64-nacl/4.4.3/../../../../x86_64-nacl/lib/../lib32/libpthread.a(nc_condvar_305aa45a.o)
 .comment       0x0000000000000000       0x67 /home/jfb/nacl_sdk/pepper_42/toolchain/linux_x86_newlib/bin/../lib/gcc/x86_64-nacl/4.4.3/../../../../x86_64-nacl/lib/../lib32/libpthread.a(dynamic_annotations_33ba59cc.o)
 .comment       0x0000000000000000       0x67 /home/jfb/nacl_sdk/pepper_42/toolchain/linux_x86_newlib/bin/../lib/gcc/x86_64-nacl/4.4.3/../../../../x86_64-nacl/lib/../lib32/libpthread.a(nc_mutex_86341ae1.o)
 .comment       0x0000000000000000       0x67 /home/jfb/nacl_sdk/pepper_42/toolchain/linux_x86_newlib/bin/../lib/gcc/x86_64-nacl/4.4.3/../../../../x86_64-nacl/lib/../lib32/libpthread.a(nc_init_irt_d3daafc0.o)
 .comment       0x0000000000000000       0x67 /home/jfb/nacl_sdk/pepper_42/toolchain/linux_x86_newlib/bin/../lib/gcc/x86_64-nacl/4.4.3/../../../../x86_64-nacl/lib/../lib32/libstdc++.a(tree.o)
 .comment       0x0000000000000000       0x67 /home/jfb/nacl_sdk/pepper_42/toolchain/linux_x86_newlib/bin/../lib/gcc/x86_64-nacl/4.4.3/../../../../x86_64-nacl/lib/../lib32/libstdc++.a(string-inst.o)
 .comment       0x0000000000000000       0x67 /home/jfb/nacl_sdk/pepper_42/toolchain/linux_x86_newlib/bin/../lib/gcc/x86_64-nacl/4.4.3/../../../../x86_64-nacl/lib/../lib32/libstdc++.a(eh_personality.o)
 .comment       0x0000000000000000       0x67 /home/jfb/nacl_sdk/pepper_42/toolchain/linux_x86_newlib/bin/../lib/gcc/x86_64-nacl/4.4.3/../../../../x86_64-nacl/lib/../lib32/libstdc++.a(eh_globals.o)
 .comment       0x0000000000000000       0x67 /home/jfb/nacl_sdk/pepper_42/toolchain/linux_x86_newlib/bin/../lib/gcc/x86_64-nacl/4.4.3/../../../../x86_64-nacl/lib/../lib32/libstdc++.a(eh_throw.o)
 .comment       0x0000000000000000       0x67 /home/jfb/nacl_sdk/pepper_42/toolchain/linux_x86_newlib/bin/../lib/gcc/x86_64-nacl/4.4.3/../../../../x86_64-nacl/lib/../lib32/libstdc++.a(del_op.o)
 .comment       0x0000000000000000       0x67 /home/jfb/nacl_sdk/pepper_42/toolchain/linux_x86_newlib/bin/../lib/gcc/x86_64-nacl/4.4.3/../../../../x86_64-nacl/lib/../lib32/libstdc++.a(eh_call.o)
 .comment       0x0000000000000000       0x67 /home/jfb/nacl_sdk/pepper_42/toolchain/linux_x86_newlib/bin/../lib/gcc/x86_64-nacl/4.4.3/../../../../x86_64-nacl/lib/../lib32/libstdc++.a(guard.o)
 .comment       0x0000000000000000       0x67 /home/jfb/nacl_sdk/pepper_42/toolchain/linux_x86_newlib/bin/../lib/gcc/x86_64-nacl/4.4.3/../../../../x86_64-nacl/lib/../lib32/libstdc++.a(si_class_type_info.o)
 .comment       0x0000000000000000       0x67 /home/jfb/nacl_sdk/pepper_42/toolchain/linux_x86_newlib/bin/../lib/gcc/x86_64-nacl/4.4.3/../../../../x86_64-nacl/lib/../lib32/libstdc++.a(eh_terminate.o)
 .comment       0x0000000000000000       0x67 /home/jfb/nacl_sdk/pepper_42/toolchain/linux_x86_newlib/bin/../lib/gcc/x86_64-nacl/4.4.3/../../../../x86_64-nacl/lib/../lib32/libstdc++.a(class_type_info.o)
 .comment       0x0000000000000000       0x67 /home/jfb/nacl_sdk/pepper_42/toolchain/linux_x86_newlib/bin/../lib/gcc/x86_64-nacl/4.4.3/../../../../x86_64-nacl/lib/../lib32/libstdc++.a(eh_alloc.o)
 .comment       0x0000000000000000       0x67 /home/jfb/nacl_sdk/pepper_42/toolchain/linux_x86_newlib/bin/../lib/gcc/x86_64-nacl/4.4.3/../../../../x86_64-nacl/lib/../lib32/libstdc++.a(eh_catch.o)
 .comment       0x0000000000000000       0x67 /home/jfb/nacl_sdk/pepper_42/toolchain/linux_x86_newlib/bin/../lib/gcc/x86_64-nacl/4.4.3/../../../../x86_64-nacl/lib/../lib32/libstdc++.a(eh_exception.o)
 .comment       0x0000000000000000       0x67 /home/jfb/nacl_sdk/pepper_42/toolchain/linux_x86_newlib/bin/../lib/gcc/x86_64-nacl/4.4.3/../../../../x86_64-nacl/lib/../lib32/libstdc++.a(pure.o)
 .comment       0x0000000000000000       0x67 /home/jfb/nacl_sdk/pepper_42/toolchain/linux_x86_newlib/bin/../lib/gcc/x86_64-nacl/4.4.3/../../../../x86_64-nacl/lib/../lib32/libstdc++.a(new_op.o)
 .comment       0x0000000000000000       0x67 /home/jfb/nacl_sdk/pepper_42/toolchain/linux_x86_newlib/bin/../lib/gcc/x86_64-nacl/4.4.3/../../../../x86_64-nacl/lib/../lib32/libstdc++.a(tinfo.o)
 .comment       0x0000000000000000       0x67 /home/jfb/nacl_sdk/pepper_42/toolchain/linux_x86_newlib/bin/../lib/gcc/x86_64-nacl/4.4.3/../../../../x86_64-nacl/lib/../lib32/libstdc++.a(functexcept.o)
 .comment       0x0000000000000000       0x67 /home/jfb/nacl_sdk/pepper_42/toolchain/linux_x86_newlib/bin/../lib/gcc/x86_64-nacl/4.4.3/../../../../x86_64-nacl/lib/../lib32/libstdc++.a(ios_failure.o)
 .comment       0x0000000000000000       0x67 /home/jfb/nacl_sdk/pepper_42/toolchain/linux_x86_newlib/bin/../lib/gcc/x86_64-nacl/4.4.3/../../../../x86_64-nacl/lib/../lib32/libstdc++.a(stdexcept.o)
 .comment       0x0000000000000000       0x67 /home/jfb/nacl_sdk/pepper_42/toolchain/linux_x86_newlib/bin/../lib/gcc/x86_64-nacl/4.4.3/../../../../x86_64-nacl/lib/../lib32/libstdc++.a(system_error.o)
 .comment       0x0000000000000000       0x67 /home/jfb/nacl_sdk/pepper_42/toolchain/linux_x86_newlib/bin/../lib/gcc/x86_64-nacl/4.4.3/../../../../x86_64-nacl/lib/../lib32/libstdc++.a(eh_unex_handler.o)
 .comment       0x0000000000000000       0x67 /home/jfb/nacl_sdk/pepper_42/toolchain/linux_x86_newlib/bin/../lib/gcc/x86_64-nacl/4.4.3/../../../../x86_64-nacl/lib/../lib32/libstdc++.a(eh_term_handler.o)
 .comment       0x0000000000000000       0x67 /home/jfb/nacl_sdk/pepper_42/toolchain/linux_x86_newlib/bin/../lib/gcc/x86_64-nacl/4.4.3/../../../../x86_64-nacl/lib/../lib32/libstdc++.a(bad_typeid.o)
 .comment       0x0000000000000000       0x67 /home/jfb/nacl_sdk/pepper_42/toolchain/linux_x86_newlib/bin/../lib/gcc/x86_64-nacl/4.4.3/../../../../x86_64-nacl/lib/../lib32/libstdc++.a(new_handler.o)
 .comment       0x0000000000000000       0x67 /home/jfb/nacl_sdk/pepper_42/toolchain/linux_x86_newlib/bin/../lib/gcc/x86_64-nacl/4.4.3/../../../../x86_64-nacl/lib/../lib32/libstdc++.a(bad_cast.o)
 .comment       0x0000000000000000       0x67 /home/jfb/nacl_sdk/pepper_42/toolchain/linux_x86_newlib/bin/../lib/gcc/x86_64-nacl/4.4.3/../../../../x86_64-nacl/lib/../lib32/libstdc++.a(vterminate.o)
 .comment       0x0000000000000000       0x67 /home/jfb/nacl_sdk/pepper_42/toolchain/linux_x86_newlib/bin/../lib/gcc/x86_64-nacl/4.4.3/../../../../x86_64-nacl/lib/../lib32/libstdc++.a(cp-demangle.o)
 .comment       0x0000000000000000       0x67 /home/jfb/nacl_sdk/pepper_42/toolchain/linux_x86_newlib/bin/../lib/gcc/x86_64-nacl/4.4.3/../../../../x86_64-nacl/lib/../lib32/libstdc++.a(eh_type.o)
 .comment       0x0000000000000000       0x67 /home/jfb/nacl_sdk/pepper_42/toolchain/linux_x86_newlib/bin/../lib/gcc/x86_64-nacl/4.4.3/32/libgcc.a(unwind-dw2.o)
 .comment       0x0000000000000000       0x67 /home/jfb/nacl_sdk/pepper_42/toolchain/linux_x86_newlib/bin/../lib/gcc/x86_64-nacl/4.4.3/32/libgcc.a(unwind-dw2-fde-glibc.o)
 .comment       0x0000000000000000       0x67 /home/jfb/nacl_sdk/pepper_42/toolchain/linux_x86_newlib/bin/../lib/gcc/x86_64-nacl/4.4.3/../../../../x86_64-nacl/lib/../lib32/libnacl.a(_exit_710c7d0d.o)
 .comment       0x0000000000000000       0x67 /home/jfb/nacl_sdk/pepper_42/toolchain/linux_x86_newlib/bin/../lib/gcc/x86_64-nacl/4.4.3/../../../../x86_64-nacl/lib/../lib32/libnacl.a(abort_9f6b5845.o)
 .comment       0x0000000000000000       0x67 /home/jfb/nacl_sdk/pepper_42/toolchain/linux_x86_newlib/bin/../lib/gcc/x86_64-nacl/4.4.3/../../../../x86_64-nacl/lib/../lib32/libnacl.a(environ_25cd24d8.o)
 .comment       0x0000000000000000       0x67 /home/jfb/nacl_sdk/pepper_42/toolchain/linux_x86_newlib/bin/../lib/gcc/x86_64-nacl/4.4.3/../../../../x86_64-nacl/lib/../lib32/libnacl.a(start_fa9ef7de.o)
 .comment       0x0000000000000000       0x67 /home/jfb/nacl_sdk/pepper_42/toolchain/linux_x86_newlib/bin/../lib/gcc/x86_64-nacl/4.4.3/../../../../x86_64-nacl/lib/../lib32/libnacl.a(malloc_222c4a1e.o)
 .comment       0x0000000000000000       0x67 /home/jfb/nacl_sdk/pepper_42/toolchain/linux_x86_newlib/bin/../lib/gcc/x86_64-nacl/4.4.3/../../../../x86_64-nacl/lib/../lib32/libnacl.a(nacl_irt_6de1d53f.o)
 .comment       0x0000000000000000       0x67 /home/jfb/nacl_sdk/pepper_42/toolchain/linux_x86_newlib/bin/../lib/gcc/x86_64-nacl/4.4.3/../../../../x86_64-nacl/lib/../lib32/libnacl.a(pthread_initialize_minimal_4b6e776b.o)
 .comment       0x0000000000000000       0x67 /home/jfb/nacl_sdk/pepper_42/toolchain/linux_x86_newlib/bin/../lib/gcc/x86_64-nacl/4.4.3/../../../../x86_64-nacl/lib/../lib32/libnacl.a(nacl_read_tp_5748ac47.o)
 .comment       0x0000000000000000       0x67 /home/jfb/nacl_sdk/pepper_42/toolchain/linux_x86_newlib/bin/../lib/gcc/x86_64-nacl/4.4.3/../../../../x86_64-nacl/lib/../lib32/libnacl.a(mmap_767fb080.o)
 .comment       0x0000000000000000       0x67 /home/jfb/nacl_sdk/pepper_42/toolchain/linux_x86_newlib/bin/../lib/gcc/x86_64-nacl/4.4.3/../../../../x86_64-nacl/lib/../lib32/libnacl.a(sched_yield_56c375be.o)
 .comment       0x0000000000000000       0x67 /home/jfb/nacl_sdk/pepper_42/toolchain/linux_x86_newlib/bin/../lib/gcc/x86_64-nacl/4.4.3/../../../../x86_64-nacl/lib/../lib32/libnacl.a(munmap_d4f09867.o)
 .comment       0x0000000000000000       0x67 /home/jfb/nacl_sdk/pepper_42/toolchain/linux_x86_newlib/bin/../lib/gcc/x86_64-nacl/4.4.3/../../../../x86_64-nacl/lib/../lib32/libnacl.a(tls_bba1975b.o)
 .comment       0x0000000000000000       0x67 /home/jfb/nacl_sdk/pepper_42/toolchain/linux_x86_newlib/bin/../lib/gcc/x86_64-nacl/4.4.3/../../../../x86_64-nacl/lib/../lib32/libnacl.a(write_fb49787f.o)
 .comment       0x0000000000000000       0x67 /home/jfb/nacl_sdk/pepper_42/toolchain/linux_x86_newlib/bin/../lib/gcc/x86_64-nacl/4.4.3/../../../../x86_64-nacl/lib/../lib32/libnacl.a(nacl_tls_get_d2f842b5.o)
 .comment       0x0000000000000000       0x67 /home/jfb/nacl_sdk/pepper_42/toolchain/linux_x86_newlib/bin/../lib/gcc/x86_64-nacl/4.4.3/../../../../x86_64-nacl/lib/../lib32/libnacl.a(nacl_irt_init_7b4f826e.o)
 .comment       0x0000000000000000       0x67 /home/jfb/nacl_sdk/pepper_42/toolchain/linux_x86_newlib/bin/../lib/gcc/x86_64-nacl/4.4.3/../../../../x86_64-nacl/lib/../lib32/libnacl.a(sysconf_ad295ea2.o)
 .comment       0x0000000000000000       0x67 /home/jfb/nacl_sdk/pepper_42/toolchain/linux_x86_newlib/bin/../lib/gcc/x86_64-nacl/4.4.3/../../../../x86_64-nacl/lib/../lib32/libnacl.a(nacl_tls_init_eb0cd232.o)
 .comment       0x0000000000000000       0x67 /home/jfb/nacl_sdk/pepper_42/toolchain/linux_x86_newlib/bin/../lib/gcc/x86_64-nacl/4.4.3/../../../../x86_64-nacl/lib/../lib32/libcrt_common.a(lib_a-atexit.o)
 .comment       0x0000000000000000       0x67 /home/jfb/nacl_sdk/pepper_42/toolchain/linux_x86_newlib/bin/../lib/gcc/x86_64-nacl/4.4.3/../../../../x86_64-nacl/lib/../lib32/libcrt_common.a(lib_a-cxa_atexit.o)
 .comment       0x0000000000000000       0x67 /home/jfb/nacl_sdk/pepper_42/toolchain/linux_x86_newlib/bin/../lib/gcc/x86_64-nacl/4.4.3/../../../../x86_64-nacl/lib/../lib32/libcrt_common.a(lib_a-errno.o)
 .comment       0x0000000000000000       0x67 /home/jfb/nacl_sdk/pepper_42/toolchain/linux_x86_newlib/bin/../lib/gcc/x86_64-nacl/4.4.3/../../../../x86_64-nacl/lib/../lib32/libcrt_common.a(lib_a-exit.o)
 .comment       0x0000000000000000       0x67 /home/jfb/nacl_sdk/pepper_42/toolchain/linux_x86_newlib/bin/../lib/gcc/x86_64-nacl/4.4.3/../../../../x86_64-nacl/lib/../lib32/libcrt_common.a(lib_a-fini.o)
 .comment       0x0000000000000000       0x67 /home/jfb/nacl_sdk/pepper_42/toolchain/linux_x86_newlib/bin/../lib/gcc/x86_64-nacl/4.4.3/../../../../x86_64-nacl/lib/../lib32/libcrt_common.a(lib_a-fprintf.o)
 .comment       0x0000000000000000       0x67 /home/jfb/nacl_sdk/pepper_42/toolchain/linux_x86_newlib/bin/../lib/gcc/x86_64-nacl/4.4.3/../../../../x86_64-nacl/lib/../lib32/libcrt_common.a(lib_a-fputc.o)
 .comment       0x0000000000000000       0x67 /home/jfb/nacl_sdk/pepper_42/toolchain/linux_x86_newlib/bin/../lib/gcc/x86_64-nacl/4.4.3/../../../../x86_64-nacl/lib/../lib32/libcrt_common.a(lib_a-fputs.o)
 .comment       0x0000000000000000       0x67 /home/jfb/nacl_sdk/pepper_42/toolchain/linux_x86_newlib/bin/../lib/gcc/x86_64-nacl/4.4.3/../../../../x86_64-nacl/lib/../lib32/libcrt_common.a(lib_a-fvwrite.o)
 .comment       0x0000000000000000       0x67 /home/jfb/nacl_sdk/pepper_42/toolchain/linux_x86_newlib/bin/../lib/gcc/x86_64-nacl/4.4.3/../../../../x86_64-nacl/lib/../lib32/libcrt_common.a(lib_a-fwrite.o)
 .comment       0x0000000000000000       0x67 /home/jfb/nacl_sdk/pepper_42/toolchain/linux_x86_newlib/bin/../lib/gcc/x86_64-nacl/4.4.3/../../../../x86_64-nacl/lib/../lib32/libcrt_common.a(lib_a-getenv.o)
 .comment       0x0000000000000000       0x67 /home/jfb/nacl_sdk/pepper_42/toolchain/linux_x86_newlib/bin/../lib/gcc/x86_64-nacl/4.4.3/../../../../x86_64-nacl/lib/../lib32/libcrt_common.a(lib_a-getenv_r.o)
 .comment       0x0000000000000000       0x67 /home/jfb/nacl_sdk/pepper_42/toolchain/linux_x86_newlib/bin/../lib/gcc/x86_64-nacl/4.4.3/../../../../x86_64-nacl/lib/../lib32/libcrt_common.a(lib_a-impure.o)
 .comment       0x0000000000000000       0x67 /home/jfb/nacl_sdk/pepper_42/toolchain/linux_x86_newlib/bin/../lib/gcc/x86_64-nacl/4.4.3/../../../../x86_64-nacl/lib/../lib32/libcrt_common.a(lib_a-init.o)
 .comment       0x0000000000000000       0x67 /home/jfb/nacl_sdk/pepper_42/toolchain/linux_x86_newlib/bin/../lib/gcc/x86_64-nacl/4.4.3/../../../../x86_64-nacl/lib/../lib32/libcrt_common.a(lib_a-putc.o)
 .comment       0x0000000000000000       0x67 /home/jfb/nacl_sdk/pepper_42/toolchain/linux_x86_newlib/bin/../lib/gcc/x86_64-nacl/4.4.3/../../../../x86_64-nacl/lib/../lib32/libcrt_common.a(lib_a-snprintf.o)
 .comment       0x0000000000000000       0x67 /home/jfb/nacl_sdk/pepper_42/toolchain/linux_x86_newlib/bin/../lib/gcc/x86_64-nacl/4.4.3/../../../../x86_64-nacl/lib/../lib32/libcrt_common.a(lib_a-sprintf.o)
 .comment       0x0000000000000000       0x67 /home/jfb/nacl_sdk/pepper_42/toolchain/linux_x86_newlib/bin/../lib/gcc/x86_64-nacl/4.4.3/../../../../x86_64-nacl/lib/../lib32/libcrt_common.a(lib_a-strcpy.o)
 .comment       0x0000000000000000       0x67 /home/jfb/nacl_sdk/pepper_42/toolchain/linux_x86_newlib/bin/../lib/gcc/x86_64-nacl/4.4.3/../../../../x86_64-nacl/lib/../lib32/libcrt_common.a(lib_a-strerror.o)
 .comment       0x0000000000000000       0x67 /home/jfb/nacl_sdk/pepper_42/toolchain/linux_x86_newlib/bin/../lib/gcc/x86_64-nacl/4.4.3/../../../../x86_64-nacl/lib/../lib32/libcrt_common.a(lib_a-strncmp.o)
 .comment       0x0000000000000000       0x67 /home/jfb/nacl_sdk/pepper_42/toolchain/linux_x86_newlib/bin/../lib/gcc/x86_64-nacl/4.4.3/../../../../x86_64-nacl/lib/../lib32/libcrt_common.a(lib_a-svfprintf.o)
 .comment       0x0000000000000000       0x67 /home/jfb/nacl_sdk/pepper_42/toolchain/linux_x86_newlib/bin/../lib/gcc/x86_64-nacl/4.4.3/../../../../x86_64-nacl/lib/../lib32/libcrt_common.a(lib_a-u_strerr.o)
 .comment       0x0000000000000000       0x67 /home/jfb/nacl_sdk/pepper_42/toolchain/linux_x86_newlib/bin/../lib/gcc/x86_64-nacl/4.4.3/../../../../x86_64-nacl/lib/../lib32/libcrt_common.a(lib_a-vfprintf.o)
 .comment       0x0000000000000000       0x67 /home/jfb/nacl_sdk/pepper_42/toolchain/linux_x86_newlib/bin/../lib/gcc/x86_64-nacl/4.4.3/../../../../x86_64-nacl/lib/../lib32/libcrt_common.a(lib_a-wbuf.o)
 .comment       0x0000000000000000       0x67 /home/jfb/nacl_sdk/pepper_42/toolchain/linux_x86_newlib/bin/../lib/gcc/x86_64-nacl/4.4.3/../../../../x86_64-nacl/lib/../lib32/libcrt_common.a(lib_a-wcrtomb.o)
 .comment       0x0000000000000000       0x67 /home/jfb/nacl_sdk/pepper_42/toolchain/linux_x86_newlib/bin/../lib/gcc/x86_64-nacl/4.4.3/../../../../x86_64-nacl/lib/../lib32/libcrt_common.a(lib_a-wcsrtombs.o)
 .comment       0x0000000000000000       0x67 /home/jfb/nacl_sdk/pepper_42/toolchain/linux_x86_newlib/bin/../lib/gcc/x86_64-nacl/4.4.3/../../../../x86_64-nacl/lib/../lib32/libcrt_common.a(lib_a-wctomb_r.o)
 .comment       0x0000000000000000       0x67 /home/jfb/nacl_sdk/pepper_42/toolchain/linux_x86_newlib/bin/../lib/gcc/x86_64-nacl/4.4.3/../../../../x86_64-nacl/lib/../lib32/libcrt_common.a(lib_a-wsetup.o)
 .comment       0x0000000000000000       0x67 /home/jfb/nacl_sdk/pepper_42/toolchain/linux_x86_newlib/bin/../lib/gcc/x86_64-nacl/4.4.3/../../../../x86_64-nacl/lib/../lib32/libcrt_common.a(lib_a-__atexit.o)
 .comment       0x0000000000000000       0x67 /home/jfb/nacl_sdk/pepper_42/toolchain/linux_x86_newlib/bin/../lib/gcc/x86_64-nacl/4.4.3/../../../../x86_64-nacl/lib/../lib32/libcrt_common.a(lib_a-__call_atexit.o)
 .comment       0x0000000000000000       0x67 /home/jfb/nacl_sdk/pepper_42/toolchain/linux_x86_newlib/bin/../lib/gcc/x86_64-nacl/4.4.3/../../../../x86_64-nacl/lib/../lib32/libcrt_common.a(lib_a-dtoa.o)
 .comment       0x0000000000000000       0x67 /home/jfb/nacl_sdk/pepper_42/toolchain/linux_x86_newlib/bin/../lib/gcc/x86_64-nacl/4.4.3/../../../../x86_64-nacl/lib/../lib32/libcrt_common.a(lib_a-envlock.o)
 .comment       0x0000000000000000       0x67 /home/jfb/nacl_sdk/pepper_42/toolchain/linux_x86_newlib/bin/../lib/gcc/x86_64-nacl/4.4.3/../../../../x86_64-nacl/lib/../lib32/libcrt_common.a(lib_a-fflush.o)
 .comment       0x0000000000000000       0x67 /home/jfb/nacl_sdk/pepper_42/toolchain/linux_x86_newlib/bin/../lib/gcc/x86_64-nacl/4.4.3/../../../../x86_64-nacl/lib/../lib32/libcrt_common.a(lib_a-findfp.o)
 .comment       0x0000000000000000       0x67 /home/jfb/nacl_sdk/pepper_42/toolchain/linux_x86_newlib/bin/../lib/gcc/x86_64-nacl/4.4.3/../../../../x86_64-nacl/lib/../lib32/libcrt_common.a(lib_a-fwalk.o)
 .comment       0x0000000000000000       0x67 /home/jfb/nacl_sdk/pepper_42/toolchain/linux_x86_newlib/bin/../lib/gcc/x86_64-nacl/4.4.3/../../../../x86_64-nacl/lib/../lib32/libcrt_common.a(lib_a-locale.o)
 .comment       0x0000000000000000       0x67 /home/jfb/nacl_sdk/pepper_42/toolchain/linux_x86_newlib/bin/../lib/gcc/x86_64-nacl/4.4.3/../../../../x86_64-nacl/lib/../lib32/libcrt_common.a(lib_a-makebuf.o)
 .comment       0x0000000000000000       0x67 /home/jfb/nacl_sdk/pepper_42/toolchain/linux_x86_newlib/bin/../lib/gcc/x86_64-nacl/4.4.3/../../../../x86_64-nacl/lib/../lib32/libcrt_common.a(lib_a-mbtowc_r.o)
 .comment       0x0000000000000000       0x67 /home/jfb/nacl_sdk/pepper_42/toolchain/linux_x86_newlib/bin/../lib/gcc/x86_64-nacl/4.4.3/../../../../x86_64-nacl/lib/../lib32/libcrt_common.a(lib_a-mprec.o)
 .comment       0x0000000000000000       0x67 /home/jfb/nacl_sdk/pepper_42/toolchain/linux_x86_newlib/bin/../lib/gcc/x86_64-nacl/4.4.3/../../../../x86_64-nacl/lib/../lib32/libcrt_common.a(lib_a-s_fpclassify.o)
 .comment       0x0000000000000000       0x67 /home/jfb/nacl_sdk/pepper_42/toolchain/linux_x86_newlib/bin/../lib/gcc/x86_64-nacl/4.4.3/../../../../x86_64-nacl/lib/../lib32/libcrt_common.a(lib_a-s_frexp.o)
 .comment       0x0000000000000000       0x67 /home/jfb/nacl_sdk/pepper_42/toolchain/linux_x86_newlib/bin/../lib/gcc/x86_64-nacl/4.4.3/../../../../x86_64-nacl/lib/../lib32/libcrt_common.a(lib_a-stdio.o)
 .comment       0x0000000000000000       0x67 /home/jfb/nacl_sdk/pepper_42/toolchain/linux_x86_newlib/bin/../lib/gcc/x86_64-nacl/4.4.3/../../../../x86_64-nacl/lib/../lib32/libcrt_common.a(lib_a-strcasecmp.o)
 .comment       0x0000000000000000       0x67 /home/jfb/nacl_sdk/pepper_42/toolchain/linux_x86_newlib/bin/../lib/gcc/x86_64-nacl/4.4.3/../../../../x86_64-nacl/lib/../lib32/libcrt_common.a(lib_a-strcat.o)
 .comment       0x0000000000000000       0x67 /home/jfb/nacl_sdk/pepper_42/toolchain/linux_x86_newlib/bin/../lib/gcc/x86_64-nacl/4.4.3/../../../../x86_64-nacl/lib/../lib32/libcrt_common.a(lib_a-strcmp.o)
 .comment       0x0000000000000000       0x67 /home/jfb/nacl_sdk/pepper_42/toolchain/linux_x86_newlib/bin/../lib/gcc/x86_64-nacl/4.4.3/../../../../x86_64-nacl/lib/../lib32/libcrt_common.a(lib_a-strlcpy.o)
 .comment       0x0000000000000000       0x67 /home/jfb/nacl_sdk/pepper_42/toolchain/linux_x86_newlib/bin/../lib/gcc/x86_64-nacl/4.4.3/../../../../x86_64-nacl/lib/../lib32/libcrt_common.a(lib_a-strncasecmp.o)
 .comment       0x0000000000000000       0x67 /home/jfb/nacl_sdk/pepper_42/toolchain/linux_x86_newlib/bin/../lib/gcc/x86_64-nacl/4.4.3/../../../../x86_64-nacl/lib/../lib32/libcrt_common.a(lib_a-strncpy.o)
 .comment       0x0000000000000000       0x67 /home/jfb/nacl_sdk/pepper_42/toolchain/linux_x86_newlib/bin/../lib/gcc/x86_64-nacl/4.4.3/../../../../x86_64-nacl/lib/../lib32/libcrt_common.a(lib_a-strtol.o)
 .comment       0x0000000000000000       0x67 /home/jfb/nacl_sdk/pepper_42/toolchain/linux_x86_newlib/bin/../lib/gcc/x86_64-nacl/4.4.3/../../../../x86_64-nacl/lib/../lib32/libcrt_common.a(lib_a-svfiprintf.o)
 .comment       0x0000000000000000       0x67 /home/jfb/nacl_sdk/pepper_42/toolchain/linux_x86_newlib/bin/../lib/gcc/x86_64-nacl/4.4.3/../../../../x86_64-nacl/lib/../lib32/libcrt_common.a(lib_a-vfiprintf.o)
 .comment       0x0000000000000000       0x67 /home/jfb/nacl_sdk/pepper_42/toolchain/linux_x86_newlib/bin/../lib/gcc/x86_64-nacl/4.4.3/../../../../x86_64-nacl/lib/../lib32/libcrt_common.a(lib_a-wcsnrtombs.o)
 .comment       0x0000000000000000       0x67 /home/jfb/nacl_sdk/pepper_42/toolchain/linux_x86_newlib/bin/../lib/gcc/x86_64-nacl/4.4.3/../../../../x86_64-nacl/lib/../lib32/libcrt_common.a(lib_a-ctype_.o)
 .comment       0x0000000000000000       0x67 /home/jfb/nacl_sdk/pepper_42/toolchain/linux_x86_newlib/bin/../lib/gcc/x86_64-nacl/4.4.3/../../../../x86_64-nacl/lib/../lib32/libcrt_common.a(lib_a-fclose.o)
 .comment       0x0000000000000000       0x67 /home/jfb/nacl_sdk/pepper_42/toolchain/linux_x86_newlib/bin/../lib/gcc/x86_64-nacl/4.4.3/../../../../x86_64-nacl/lib/../lib32/libcrt_common.a(lib_a-fputwc.o)
 .comment       0x0000000000000000       0x67 /home/jfb/nacl_sdk/pepper_42/toolchain/linux_x86_newlib/bin/../lib/gcc/x86_64-nacl/4.4.3/../../../../x86_64-nacl/lib/../lib32/libnacl.a(close_e9b92fbd.o)
 .comment       0x0000000000000000       0x67 /home/jfb/nacl_sdk/pepper_42/toolchain/linux_x86_newlib/bin/../lib/gcc/x86_64-nacl/4.4.3/../../../../x86_64-nacl/lib/../lib32/libnacl.a(isatty_02f56e94.o)
 .comment       0x0000000000000000       0x67 /home/jfb/nacl_sdk/pepper_42/toolchain/linux_x86_newlib/bin/../lib/gcc/x86_64-nacl/4.4.3/../../../../x86_64-nacl/lib/../lib32/libnacl.a(nacl_irt_fdio_b571b5e7.o)
 .comment       0x0000000000000000       0x67 /home/jfb/nacl_sdk/pepper_42/toolchain/linux_x86_newlib/bin/../lib/gcc/x86_64-nacl/4.4.3/../../../../x86_64-nacl/lib/../lib32/libnacl.a(fstat_0540ff63.o)
 .comment       0x0000000000000000       0x67 /home/jfb/nacl_sdk/pepper_42/toolchain/linux_x86_newlib/bin/../lib/gcc/x86_64-nacl/4.4.3/../../../../x86_64-nacl/lib/../lib32/libnacl.a(lseek_64d2d05c.o)
 .comment       0x0000000000000000       0x67 /home/jfb/nacl_sdk/pepper_42/toolchain/linux_x86_newlib/bin/../lib/gcc/x86_64-nacl/4.4.3/../../../../x86_64-nacl/lib/../lib32/libnacl.a(read_df872e10.o)
 .comment       0x0000000000000000       0x67 /home/jfb/nacl_sdk/pepper_42/toolchain/linux_x86_newlib/bin/../lib/gcc/x86_64-nacl/4.4.3/32/libgcc.a(_udivdi3.o)
 .comment       0x0000000000000000       0x67 /home/jfb/nacl_sdk/pepper_42/toolchain/linux_x86_newlib/bin/../lib/gcc/x86_64-nacl/4.4.3/32/libgcc.a(_umoddi3.o)
 .comment       0x0000000000000000       0x67 /home/jfb/nacl_sdk/pepper_42/toolchain/linux_x86_newlib/bin/../lib/gcc/x86_64-nacl/4.4.3/32/crtend.o

.debug
 *(.debug)

.line
 *(.line)

.debug_srcinfo
 *(.debug_srcinfo)

.debug_sfnames
 *(.debug_sfnames)

.debug_aranges  0x0000000000000000     0x15e8
 *(.debug_aranges)
 .debug_aranges
                0x0000000000000000       0x50 newlib/Release/multi_platform_x86_32.o
 .debug_aranges
                0x0000000000000050       0x40 /home/jfb/nacl_sdk/pepper_42//lib/newlib_x86_32/Release/libppapi_cpp.a(instance_x86_32.o)
 .debug_aranges
                0x0000000000000090       0x80 /home/jfb/nacl_sdk/pepper_42//lib/newlib_x86_32/Release/libppapi_cpp.a(module_x86_32.o)
 .debug_aranges
                0x0000000000000110       0x20 /home/jfb/nacl_sdk/pepper_42//lib/newlib_x86_32/Release/libppapi_cpp.a(ppp_entrypoints_x86_32.o)
 .debug_aranges
                0x0000000000000130       0x20 /home/jfb/nacl_sdk/pepper_42//lib/newlib_x86_32/Release/libppapi_cpp.a(resource_x86_32.o)
 .debug_aranges
                0x0000000000000150       0x40 /home/jfb/nacl_sdk/pepper_42//lib/newlib_x86_32/Release/libppapi_cpp.a(url_loader_x86_32.o)
 .debug_aranges
                0x0000000000000190       0x40 /home/jfb/nacl_sdk/pepper_42//lib/newlib_x86_32/Release/libppapi_cpp.a(url_response_info_x86_32.o)
 .debug_aranges
                0x00000000000001d0       0x20 /home/jfb/nacl_sdk/pepper_42//lib/newlib_x86_32/Release/libppapi_cpp.a(var_x86_32.o)
 .debug_aranges
                0x00000000000001f0       0x30 /home/jfb/nacl_sdk/pepper_42//lib/newlib_x86_32/Release/libppapi_cpp.a(view_x86_32.o)
 .debug_aranges
                0x0000000000000220       0x20 /home/jfb/nacl_sdk/pepper_42//lib/newlib_x86_32/Release/libppapi_cpp.a(core_x86_32.o)
 .debug_aranges
                0x0000000000000240       0x38 /home/jfb/nacl_sdk/pepper_42//lib/newlib_x86_32/Release/libppapi_cpp.a(file_ref_x86_32.o)
 .debug_aranges
                0x0000000000000278       0x70 /home/jfb/nacl_sdk/pepper_42//lib/newlib_x86_32/Release/libppapi_cpp.a(input_event_x86_32.o)
 .debug_aranges
                0x00000000000002e8       0x20 /home/jfb/nacl_sdk/pepper_42/toolchain/linux_x86_newlib/bin/../lib/gcc/x86_64-nacl/4.4.3/../../../../x86_64-nacl/lib/../lib32/libppapi_stub.a(plugin_main_irt_21ce9d26.o)
 .debug_aranges
                0x0000000000000308       0x20 /home/jfb/nacl_sdk/pepper_42/toolchain/linux_x86_newlib/bin/../lib/gcc/x86_64-nacl/4.4.3/../../../../x86_64-nacl/lib/../lib32/libppapi_stub.a(ppapi_plugin_main_399d0cf7.o)
 .debug_aranges
                0x0000000000000328       0x20 /home/jfb/nacl_sdk/pepper_42/toolchain/linux_x86_newlib/bin/../lib/gcc/x86_64-nacl/4.4.3/../../../../x86_64-nacl/lib/../lib32/libppapi_stub.a(ppapi_plugin_start_8da67623.o)
 .debug_aranges
                0x0000000000000348       0x20 /home/jfb/nacl_sdk/pepper_42/toolchain/linux_x86_newlib/bin/../lib/gcc/x86_64-nacl/4.4.3/../../../../x86_64-nacl/lib/../lib32/libppapi_stub.a(thread_creator_ccf263e1.o)
 .debug_aranges
                0x0000000000000368       0x20 /home/jfb/nacl_sdk/pepper_42/toolchain/linux_x86_newlib/bin/../lib/gcc/x86_64-nacl/4.4.3/../../../../x86_64-nacl/lib/../lib32/libpthread.a(nc_thread_7e478b15.o)
 .debug_aranges
                0x0000000000000388       0x20 /home/jfb/nacl_sdk/pepper_42/toolchain/linux_x86_newlib/bin/../lib/gcc/x86_64-nacl/4.4.3/../../../../x86_64-nacl/lib/../lib32/libpthread.a(nc_condvar_305aa45a.o)
 .debug_aranges
                0x00000000000003a8       0x20 /home/jfb/nacl_sdk/pepper_42/toolchain/linux_x86_newlib/bin/../lib/gcc/x86_64-nacl/4.4.3/../../../../x86_64-nacl/lib/../lib32/libpthread.a(dynamic_annotations_33ba59cc.o)
 .debug_aranges
                0x00000000000003c8       0x20 /home/jfb/nacl_sdk/pepper_42/toolchain/linux_x86_newlib/bin/../lib/gcc/x86_64-nacl/4.4.3/../../../../x86_64-nacl/lib/../lib32/libpthread.a(nc_mutex_86341ae1.o)
 .debug_aranges
                0x00000000000003e8       0x20 /home/jfb/nacl_sdk/pepper_42/toolchain/linux_x86_newlib/bin/../lib/gcc/x86_64-nacl/4.4.3/../../../../x86_64-nacl/lib/../lib32/libpthread.a(nc_init_irt_d3daafc0.o)
 .debug_aranges
                0x0000000000000408       0x60 /home/jfb/nacl_sdk/pepper_42/toolchain/linux_x86_newlib/bin/../lib/gcc/x86_64-nacl/4.4.3/../../../../x86_64-nacl/lib/../lib32/libstdc++.a(tree.o)
 .debug_aranges
                0x0000000000000468      0x598 /home/jfb/nacl_sdk/pepper_42/toolchain/linux_x86_newlib/bin/../lib/gcc/x86_64-nacl/4.4.3/../../../../x86_64-nacl/lib/../lib32/libstdc++.a(string-inst.o)
 .debug_aranges
                0x0000000000000a00       0x58 /home/jfb/nacl_sdk/pepper_42/toolchain/linux_x86_newlib/bin/../lib/gcc/x86_64-nacl/4.4.3/../../../../x86_64-nacl/lib/../lib32/libstdc++.a(eh_personality.o)
 .debug_aranges
                0x0000000000000a58       0x40 /home/jfb/nacl_sdk/pepper_42/toolchain/linux_x86_newlib/bin/../lib/gcc/x86_64-nacl/4.4.3/../../../../x86_64-nacl/lib/../lib32/libstdc++.a(eh_globals.o)
 .debug_aranges
                0x0000000000000a98       0x30 /home/jfb/nacl_sdk/pepper_42/toolchain/linux_x86_newlib/bin/../lib/gcc/x86_64-nacl/4.4.3/../../../../x86_64-nacl/lib/../lib32/libstdc++.a(eh_throw.o)
 .debug_aranges
                0x0000000000000ac8       0x20 /home/jfb/nacl_sdk/pepper_42/toolchain/linux_x86_newlib/bin/../lib/gcc/x86_64-nacl/4.4.3/../../../../x86_64-nacl/lib/../lib32/libstdc++.a(del_op.o)
 .debug_aranges
                0x0000000000000ae8       0x20 /home/jfb/nacl_sdk/pepper_42/toolchain/linux_x86_newlib/bin/../lib/gcc/x86_64-nacl/4.4.3/../../../../x86_64-nacl/lib/../lib32/libstdc++.a(eh_call.o)
 .debug_aranges
                0x0000000000000b08       0x88 /home/jfb/nacl_sdk/pepper_42/toolchain/linux_x86_newlib/bin/../lib/gcc/x86_64-nacl/4.4.3/../../../../x86_64-nacl/lib/../lib32/libstdc++.a(guard.o)
 .debug_aranges
                0x0000000000000b90       0x48 /home/jfb/nacl_sdk/pepper_42/toolchain/linux_x86_newlib/bin/../lib/gcc/x86_64-nacl/4.4.3/../../../../x86_64-nacl/lib/../lib32/libstdc++.a(si_class_type_info.o)
 .debug_aranges
                0x0000000000000bd8       0x48 /home/jfb/nacl_sdk/pepper_42/toolchain/linux_x86_newlib/bin/../lib/gcc/x86_64-nacl/4.4.3/../../../../x86_64-nacl/lib/../lib32/libstdc++.a(eh_terminate.o)
 .debug_aranges
                0x0000000000000c20       0x58 /home/jfb/nacl_sdk/pepper_42/toolchain/linux_x86_newlib/bin/../lib/gcc/x86_64-nacl/4.4.3/../../../../x86_64-nacl/lib/../lib32/libstdc++.a(class_type_info.o)
 .debug_aranges
                0x0000000000000c78       0x78 /home/jfb/nacl_sdk/pepper_42/toolchain/linux_x86_newlib/bin/../lib/gcc/x86_64-nacl/4.4.3/../../../../x86_64-nacl/lib/../lib32/libstdc++.a(eh_alloc.o)
 .debug_aranges
                0x0000000000000cf0       0x38 /home/jfb/nacl_sdk/pepper_42/toolchain/linux_x86_newlib/bin/../lib/gcc/x86_64-nacl/4.4.3/../../../../x86_64-nacl/lib/../lib32/libstdc++.a(eh_catch.o)
 .debug_aranges
                0x0000000000000d28       0x88 /home/jfb/nacl_sdk/pepper_42/toolchain/linux_x86_newlib/bin/../lib/gcc/x86_64-nacl/4.4.3/../../../../x86_64-nacl/lib/../lib32/libstdc++.a(eh_exception.o)
 .debug_aranges
                0x0000000000000db0       0x20 /home/jfb/nacl_sdk/pepper_42/toolchain/linux_x86_newlib/bin/../lib/gcc/x86_64-nacl/4.4.3/../../../../x86_64-nacl/lib/../lib32/libstdc++.a(pure.o)
 .debug_aranges
                0x0000000000000dd0       0x20 /home/jfb/nacl_sdk/pepper_42/toolchain/linux_x86_newlib/bin/../lib/gcc/x86_64-nacl/4.4.3/../../../../x86_64-nacl/lib/../lib32/libstdc++.a(new_op.o)
 .debug_aranges
                0x0000000000000df0       0x50 /home/jfb/nacl_sdk/pepper_42/toolchain/linux_x86_newlib/bin/../lib/gcc/x86_64-nacl/4.4.3/../../../../x86_64-nacl/lib/../lib32/libstdc++.a(tinfo.o)
 .debug_aranges
                0x0000000000000e40      0x100 /home/jfb/nacl_sdk/pepper_42/toolchain/linux_x86_newlib/bin/../lib/gcc/x86_64-nacl/4.4.3/../../../../x86_64-nacl/lib/../lib32/libstdc++.a(functexcept.o)
 .debug_aranges
                0x0000000000000f40       0x48 /home/jfb/nacl_sdk/pepper_42/toolchain/linux_x86_newlib/bin/../lib/gcc/x86_64-nacl/4.4.3/../../../../x86_64-nacl/lib/../lib32/libstdc++.a(ios_failure.o)
 .debug_aranges
                0x0000000000000f88      0x158 /home/jfb/nacl_sdk/pepper_42/toolchain/linux_x86_newlib/bin/../lib/gcc/x86_64-nacl/4.4.3/../../../../x86_64-nacl/lib/../lib32/libstdc++.a(stdexcept.o)
 .debug_aranges
                0x00000000000010e0       0xb8 /home/jfb/nacl_sdk/pepper_42/toolchain/linux_x86_newlib/bin/../lib/gcc/x86_64-nacl/4.4.3/../../../../x86_64-nacl/lib/../lib32/libstdc++.a(system_error.o)
 .debug_aranges
                0x0000000000001198       0x38 /home/jfb/nacl_sdk/pepper_42/toolchain/linux_x86_newlib/bin/../lib/gcc/x86_64-nacl/4.4.3/../../../../x86_64-nacl/lib/../lib32/libstdc++.a(bad_typeid.o)
 .debug_aranges
                0x00000000000011d0       0x40 /home/jfb/nacl_sdk/pepper_42/toolchain/linux_x86_newlib/bin/../lib/gcc/x86_64-nacl/4.4.3/../../../../x86_64-nacl/lib/../lib32/libstdc++.a(new_handler.o)
 .debug_aranges
                0x0000000000001210       0x38 /home/jfb/nacl_sdk/pepper_42/toolchain/linux_x86_newlib/bin/../lib/gcc/x86_64-nacl/4.4.3/../../../../x86_64-nacl/lib/../lib32/libstdc++.a(bad_cast.o)
 .debug_aranges
                0x0000000000001248       0x20 /home/jfb/nacl_sdk/pepper_42/toolchain/linux_x86_newlib/bin/../lib/gcc/x86_64-nacl/4.4.3/../../../../x86_64-nacl/lib/../lib32/libstdc++.a(vterminate.o)
 .debug_aranges
                0x0000000000001268       0x20 /home/jfb/nacl_sdk/pepper_42/toolchain/linux_x86_newlib/bin/../lib/gcc/x86_64-nacl/4.4.3/../../../../x86_64-nacl/lib/../lib32/libstdc++.a(cp-demangle.o)
 .debug_aranges
                0x0000000000001288       0x20 /home/jfb/nacl_sdk/pepper_42/toolchain/linux_x86_newlib/bin/../lib/gcc/x86_64-nacl/4.4.3/../../../../x86_64-nacl/lib/../lib32/libstdc++.a(eh_type.o)
 .debug_aranges
                0x00000000000012a8       0x20 /home/jfb/nacl_sdk/pepper_42/toolchain/linux_x86_newlib/bin/../lib/gcc/x86_64-nacl/4.4.3/32/libgcc.a(unwind-dw2.o)
 .debug_aranges
                0x00000000000012c8       0x20 /home/jfb/nacl_sdk/pepper_42/toolchain/linux_x86_newlib/bin/../lib/gcc/x86_64-nacl/4.4.3/32/libgcc.a(unwind-dw2-fde-glibc.o)
 .debug_aranges
                0x00000000000012e8       0x20 /home/jfb/nacl_sdk/pepper_42/toolchain/linux_x86_newlib/bin/../lib/gcc/x86_64-nacl/4.4.3/../../../../x86_64-nacl/lib/../lib32/libnacl.a(_exit_710c7d0d.o)
 .debug_aranges
                0x0000000000001308       0x20 /home/jfb/nacl_sdk/pepper_42/toolchain/linux_x86_newlib/bin/../lib/gcc/x86_64-nacl/4.4.3/../../../../x86_64-nacl/lib/../lib32/libnacl.a(abort_9f6b5845.o)
 .debug_aranges
                0x0000000000001328       0x20 /home/jfb/nacl_sdk/pepper_42/toolchain/linux_x86_newlib/bin/../lib/gcc/x86_64-nacl/4.4.3/../../../../x86_64-nacl/lib/../lib32/libnacl.a(start_fa9ef7de.o)
 .debug_aranges
                0x0000000000001348       0x20 /home/jfb/nacl_sdk/pepper_42/toolchain/linux_x86_newlib/bin/../lib/gcc/x86_64-nacl/4.4.3/../../../../x86_64-nacl/lib/../lib32/libnacl.a(malloc_222c4a1e.o)
 .debug_aranges
                0x0000000000001368       0x20 /home/jfb/nacl_sdk/pepper_42/toolchain/linux_x86_newlib/bin/../lib/gcc/x86_64-nacl/4.4.3/../../../../x86_64-nacl/lib/../lib32/libnacl.a(nacl_irt_6de1d53f.o)
 .debug_aranges
                0x0000000000001388       0x20 /home/jfb/nacl_sdk/pepper_42/toolchain/linux_x86_newlib/bin/../lib/gcc/x86_64-nacl/4.4.3/../../../../x86_64-nacl/lib/../lib32/libnacl.a(pthread_initialize_minimal_4b6e776b.o)
 .debug_aranges
                0x00000000000013a8       0x20 /home/jfb/nacl_sdk/pepper_42/toolchain/linux_x86_newlib/bin/../lib/gcc/x86_64-nacl/4.4.3/../../../../x86_64-nacl/lib/../lib32/libnacl.a(nacl_read_tp_5748ac47.o)
 .debug_aranges
                0x00000000000013c8       0x20 /home/jfb/nacl_sdk/pepper_42/toolchain/linux_x86_newlib/bin/../lib/gcc/x86_64-nacl/4.4.3/../../../../x86_64-nacl/lib/../lib32/libnacl.a(mmap_767fb080.o)
 .debug_aranges
                0x00000000000013e8       0x20 /home/jfb/nacl_sdk/pepper_42/toolchain/linux_x86_newlib/bin/../lib/gcc/x86_64-nacl/4.4.3/../../../../x86_64-nacl/lib/../lib32/libnacl.a(sched_yield_56c375be.o)
 .debug_aranges
                0x0000000000001408       0x20 /home/jfb/nacl_sdk/pepper_42/toolchain/linux_x86_newlib/bin/../lib/gcc/x86_64-nacl/4.4.3/../../../../x86_64-nacl/lib/../lib32/libnacl.a(munmap_d4f09867.o)
 .debug_aranges
                0x0000000000001428       0x20 /home/jfb/nacl_sdk/pepper_42/toolchain/linux_x86_newlib/bin/../lib/gcc/x86_64-nacl/4.4.3/../../../../x86_64-nacl/lib/../lib32/libnacl.a(tls_bba1975b.o)
 .debug_aranges
                0x0000000000001448       0x20 /home/jfb/nacl_sdk/pepper_42/toolchain/linux_x86_newlib/bin/../lib/gcc/x86_64-nacl/4.4.3/../../../../x86_64-nacl/lib/../lib32/libnacl.a(write_fb49787f.o)
 .debug_aranges
                0x0000000000001468       0x20 /home/jfb/nacl_sdk/pepper_42/toolchain/linux_x86_newlib/bin/../lib/gcc/x86_64-nacl/4.4.3/../../../../x86_64-nacl/lib/../lib32/libnacl.a(nacl_tls_get_d2f842b5.o)
 .debug_aranges
                0x0000000000001488       0x20 /home/jfb/nacl_sdk/pepper_42/toolchain/linux_x86_newlib/bin/../lib/gcc/x86_64-nacl/4.4.3/../../../../x86_64-nacl/lib/../lib32/libnacl.a(nacl_irt_init_7b4f826e.o)
 .debug_aranges
                0x00000000000014a8       0x20 /home/jfb/nacl_sdk/pepper_42/toolchain/linux_x86_newlib/bin/../lib/gcc/x86_64-nacl/4.4.3/../../../../x86_64-nacl/lib/../lib32/libnacl.a(sysconf_ad295ea2.o)
 .debug_aranges
                0x00000000000014c8       0x20 /home/jfb/nacl_sdk/pepper_42/toolchain/linux_x86_newlib/bin/../lib/gcc/x86_64-nacl/4.4.3/../../../../x86_64-nacl/lib/../lib32/libnacl.a(nacl_tls_init_eb0cd232.o)
 .debug_aranges
                0x00000000000014e8       0x20 /home/jfb/nacl_sdk/pepper_42/toolchain/linux_x86_newlib/bin/../lib/gcc/x86_64-nacl/4.4.3/../../../../x86_64-nacl/lib/../lib32/libnacl.a(close_e9b92fbd.o)
 .debug_aranges
                0x0000000000001508       0x20 /home/jfb/nacl_sdk/pepper_42/toolchain/linux_x86_newlib/bin/../lib/gcc/x86_64-nacl/4.4.3/../../../../x86_64-nacl/lib/../lib32/libnacl.a(isatty_02f56e94.o)
 .debug_aranges
                0x0000000000001528       0x20 /home/jfb/nacl_sdk/pepper_42/toolchain/linux_x86_newlib/bin/../lib/gcc/x86_64-nacl/4.4.3/../../../../x86_64-nacl/lib/../lib32/libnacl.a(nacl_irt_fdio_b571b5e7.o)
 .debug_aranges
                0x0000000000001548       0x20 /home/jfb/nacl_sdk/pepper_42/toolchain/linux_x86_newlib/bin/../lib/gcc/x86_64-nacl/4.4.3/../../../../x86_64-nacl/lib/../lib32/libnacl.a(fstat_0540ff63.o)
 .debug_aranges
                0x0000000000001568       0x20 /home/jfb/nacl_sdk/pepper_42/toolchain/linux_x86_newlib/bin/../lib/gcc/x86_64-nacl/4.4.3/../../../../x86_64-nacl/lib/../lib32/libnacl.a(lseek_64d2d05c.o)
 .debug_aranges
                0x0000000000001588       0x20 /home/jfb/nacl_sdk/pepper_42/toolchain/linux_x86_newlib/bin/../lib/gcc/x86_64-nacl/4.4.3/../../../../x86_64-nacl/lib/../lib32/libnacl.a(read_df872e10.o)
 .debug_aranges
                0x00000000000015a8       0x20 /home/jfb/nacl_sdk/pepper_42/toolchain/linux_x86_newlib/bin/../lib/gcc/x86_64-nacl/4.4.3/32/libgcc.a(_udivdi3.o)
 .debug_aranges
                0x00000000000015c8       0x20 /home/jfb/nacl_sdk/pepper_42/toolchain/linux_x86_newlib/bin/../lib/gcc/x86_64-nacl/4.4.3/32/libgcc.a(_umoddi3.o)

.debug_pubnames
                0x0000000000000000     0xa4b0
 *(.debug_pubnames)
 .debug_pubnames
                0x0000000000000000       0xad newlib/Release/multi_platform_x86_32.o
 .debug_pubnames
                0x00000000000000ad      0xbd2 /home/jfb/nacl_sdk/pepper_42//lib/newlib_x86_32/Release/libppapi_cpp.a(instance_x86_32.o)
 .debug_pubnames
                0x0000000000000c7f      0xdf5 /home/jfb/nacl_sdk/pepper_42//lib/newlib_x86_32/Release/libppapi_cpp.a(module_x86_32.o)
 .debug_pubnames
                0x0000000000001a74       0x8d /home/jfb/nacl_sdk/pepper_42//lib/newlib_x86_32/Release/libppapi_cpp.a(ppp_entrypoints_x86_32.o)
 .debug_pubnames
                0x0000000000001b01      0x1b4 /home/jfb/nacl_sdk/pepper_42//lib/newlib_x86_32/Release/libppapi_cpp.a(resource_x86_32.o)
 .debug_pubnames
                0x0000000000001cb5      0x25f /home/jfb/nacl_sdk/pepper_42//lib/newlib_x86_32/Release/libppapi_cpp.a(url_loader_x86_32.o)
 .debug_pubnames
                0x0000000000001f14      0x18d /home/jfb/nacl_sdk/pepper_42//lib/newlib_x86_32/Release/libppapi_cpp.a(url_response_info_x86_32.o)
 .debug_pubnames
                0x00000000000020a1      0x24f /home/jfb/nacl_sdk/pepper_42//lib/newlib_x86_32/Release/libppapi_cpp.a(var_x86_32.o)
 .debug_pubnames
                0x00000000000022f0      0x15a /home/jfb/nacl_sdk/pepper_42//lib/newlib_x86_32/Release/libppapi_cpp.a(view_x86_32.o)
 .debug_pubnames
                0x000000000000244a       0x4c /home/jfb/nacl_sdk/pepper_42//lib/newlib_x86_32/Release/libppapi_cpp.a(core_x86_32.o)
 .debug_pubnames
                0x0000000000002496      0x246 /home/jfb/nacl_sdk/pepper_42//lib/newlib_x86_32/Release/libppapi_cpp.a(file_ref_x86_32.o)
 .debug_pubnames
                0x00000000000026dc      0xafd /home/jfb/nacl_sdk/pepper_42//lib/newlib_x86_32/Release/libppapi_cpp.a(input_event_x86_32.o)
 .debug_pubnames
                0x00000000000031d9       0x1b /home/jfb/nacl_sdk/pepper_42/toolchain/linux_x86_newlib/bin/../lib/gcc/x86_64-nacl/4.4.3/../../../../x86_64-nacl/lib/../lib32/libppapi_stub.a(plugin_main_irt_21ce9d26.o)
 .debug_pubnames
                0x00000000000031f4       0x26 /home/jfb/nacl_sdk/pepper_42/toolchain/linux_x86_newlib/bin/../lib/gcc/x86_64-nacl/4.4.3/../../../../x86_64-nacl/lib/../lib32/libppapi_stub.a(ppapi_plugin_main_399d0cf7.o)
 .debug_pubnames
                0x000000000000321a       0x27 /home/jfb/nacl_sdk/pepper_42/toolchain/linux_x86_newlib/bin/../lib/gcc/x86_64-nacl/4.4.3/../../../../x86_64-nacl/lib/../lib32/libppapi_stub.a(ppapi_plugin_start_8da67623.o)
 .debug_pubnames
                0x0000000000003241       0x35 /home/jfb/nacl_sdk/pepper_42/toolchain/linux_x86_newlib/bin/../lib/gcc/x86_64-nacl/4.4.3/../../../../x86_64-nacl/lib/../lib32/libppapi_stub.a(thread_creator_ccf263e1.o)
 .debug_pubnames
                0x0000000000003276      0x473 /home/jfb/nacl_sdk/pepper_42/toolchain/linux_x86_newlib/bin/../lib/gcc/x86_64-nacl/4.4.3/../../../../x86_64-nacl/lib/../lib32/libpthread.a(nc_thread_7e478b15.o)
 .debug_pubnames
                0x00000000000036e9       0xa9 /home/jfb/nacl_sdk/pepper_42/toolchain/linux_x86_newlib/bin/../lib/gcc/x86_64-nacl/4.4.3/../../../../x86_64-nacl/lib/../lib32/libpthread.a(nc_condvar_305aa45a.o)
 .debug_pubnames
                0x0000000000003792      0x4a6 /home/jfb/nacl_sdk/pepper_42/toolchain/linux_x86_newlib/bin/../lib/gcc/x86_64-nacl/4.4.3/../../../../x86_64-nacl/lib/../lib32/libpthread.a(dynamic_annotations_33ba59cc.o)
 .debug_pubnames
                0x0000000000003c38      0x12f /home/jfb/nacl_sdk/pepper_42/toolchain/linux_x86_newlib/bin/../lib/gcc/x86_64-nacl/4.4.3/../../../../x86_64-nacl/lib/../lib32/libpthread.a(nc_mutex_86341ae1.o)
 .debug_pubnames
                0x0000000000003d67       0x49 /home/jfb/nacl_sdk/pepper_42/toolchain/linux_x86_newlib/bin/../lib/gcc/x86_64-nacl/4.4.3/../../../../x86_64-nacl/lib/../lib32/libpthread.a(nc_init_irt_d3daafc0.o)
 .debug_pubnames
                0x0000000000003db0      0x12a /home/jfb/nacl_sdk/pepper_42/toolchain/linux_x86_newlib/bin/../lib/gcc/x86_64-nacl/4.4.3/../../../../x86_64-nacl/lib/../lib32/libstdc++.a(tree.o)
 .debug_pubnames
                0x0000000000003eda     0x3ea9 /home/jfb/nacl_sdk/pepper_42/toolchain/linux_x86_newlib/bin/../lib/gcc/x86_64-nacl/4.4.3/../../../../x86_64-nacl/lib/../lib32/libstdc++.a(string-inst.o)
 .debug_pubnames
                0x0000000000007d83       0x5d /home/jfb/nacl_sdk/pepper_42/toolchain/linux_x86_newlib/bin/../lib/gcc/x86_64-nacl/4.4.3/../../../../x86_64-nacl/lib/../lib32/libstdc++.a(eh_personality.o)
 .debug_pubnames
                0x0000000000007de0       0x85 /home/jfb/nacl_sdk/pepper_42/toolchain/linux_x86_newlib/bin/../lib/gcc/x86_64-nacl/4.4.3/../../../../x86_64-nacl/lib/../lib32/libstdc++.a(eh_globals.o)
 .debug_pubnames
                0x0000000000007e65       0x4c /home/jfb/nacl_sdk/pepper_42/toolchain/linux_x86_newlib/bin/../lib/gcc/x86_64-nacl/4.4.3/../../../../x86_64-nacl/lib/../lib32/libstdc++.a(eh_throw.o)
 .debug_pubnames
                0x0000000000007eb1       0x26 /home/jfb/nacl_sdk/pepper_42/toolchain/linux_x86_newlib/bin/../lib/gcc/x86_64-nacl/4.4.3/../../../../x86_64-nacl/lib/../lib32/libstdc++.a(del_op.o)
 .debug_pubnames
                0x0000000000007ed7       0x2b /home/jfb/nacl_sdk/pepper_42/toolchain/linux_x86_newlib/bin/../lib/gcc/x86_64-nacl/4.4.3/../../../../x86_64-nacl/lib/../lib32/libstdc++.a(eh_call.o)
 .debug_pubnames
                0x0000000000007f02      0x29f /home/jfb/nacl_sdk/pepper_42/toolchain/linux_x86_newlib/bin/../lib/gcc/x86_64-nacl/4.4.3/../../../../x86_64-nacl/lib/../lib32/libstdc++.a(guard.o)
 .debug_pubnames
                0x00000000000081a1      0x166 /home/jfb/nacl_sdk/pepper_42/toolchain/linux_x86_newlib/bin/../lib/gcc/x86_64-nacl/4.4.3/../../../../x86_64-nacl/lib/../lib32/libstdc++.a(si_class_type_info.o)
 .debug_pubnames
                0x0000000000008307       0xa1 /home/jfb/nacl_sdk/pepper_42/toolchain/linux_x86_newlib/bin/../lib/gcc/x86_64-nacl/4.4.3/../../../../x86_64-nacl/lib/../lib32/libstdc++.a(eh_terminate.o)
 .debug_pubnames
                0x00000000000083a8      0x1a8 /home/jfb/nacl_sdk/pepper_42/toolchain/linux_x86_newlib/bin/../lib/gcc/x86_64-nacl/4.4.3/../../../../x86_64-nacl/lib/../lib32/libstdc++.a(class_type_info.o)
 .debug_pubnames
                0x0000000000008550      0x261 /home/jfb/nacl_sdk/pepper_42/toolchain/linux_x86_newlib/bin/../lib/gcc/x86_64-nacl/4.4.3/../../../../x86_64-nacl/lib/../lib32/libstdc++.a(eh_alloc.o)
 .debug_pubnames
                0x00000000000087b1       0x98 /home/jfb/nacl_sdk/pepper_42/toolchain/linux_x86_newlib/bin/../lib/gcc/x86_64-nacl/4.4.3/../../../../x86_64-nacl/lib/../lib32/libstdc++.a(eh_catch.o)
 .debug_pubnames
                0x0000000000008849      0x25e /home/jfb/nacl_sdk/pepper_42/toolchain/linux_x86_newlib/bin/../lib/gcc/x86_64-nacl/4.4.3/../../../../x86_64-nacl/lib/../lib32/libstdc++.a(eh_exception.o)
 .debug_pubnames
                0x0000000000008aa7       0x35 /home/jfb/nacl_sdk/pepper_42/toolchain/linux_x86_newlib/bin/../lib/gcc/x86_64-nacl/4.4.3/../../../../x86_64-nacl/lib/../lib32/libstdc++.a(pure.o)
 .debug_pubnames
                0x0000000000008adc       0x23 /home/jfb/nacl_sdk/pepper_42/toolchain/linux_x86_newlib/bin/../lib/gcc/x86_64-nacl/4.4.3/../../../../x86_64-nacl/lib/../lib32/libstdc++.a(new_op.o)
 .debug_pubnames
                0x0000000000008aff       0xf5 /home/jfb/nacl_sdk/pepper_42/toolchain/linux_x86_newlib/bin/../lib/gcc/x86_64-nacl/4.4.3/../../../../x86_64-nacl/lib/../lib32/libstdc++.a(tinfo.o)
 .debug_pubnames
                0x0000000000008bf4      0x3f9 /home/jfb/nacl_sdk/pepper_42/toolchain/linux_x86_newlib/bin/../lib/gcc/x86_64-nacl/4.4.3/../../../../x86_64-nacl/lib/../lib32/libstdc++.a(functexcept.o)
 .debug_pubnames
                0x0000000000008fed       0xea /home/jfb/nacl_sdk/pepper_42/toolchain/linux_x86_newlib/bin/../lib/gcc/x86_64-nacl/4.4.3/../../../../x86_64-nacl/lib/../lib32/libstdc++.a(ios_failure.o)
 .debug_pubnames
                0x00000000000090d7      0x5f6 /home/jfb/nacl_sdk/pepper_42/toolchain/linux_x86_newlib/bin/../lib/gcc/x86_64-nacl/4.4.3/../../../../x86_64-nacl/lib/../lib32/libstdc++.a(stdexcept.o)
 .debug_pubnames
                0x00000000000096cd      0x1ac /home/jfb/nacl_sdk/pepper_42/toolchain/linux_x86_newlib/bin/../lib/gcc/x86_64-nacl/4.4.3/../../../../x86_64-nacl/lib/../lib32/libstdc++.a(system_error.o)
 .debug_pubnames
                0x0000000000009879       0x37 /home/jfb/nacl_sdk/pepper_42/toolchain/linux_x86_newlib/bin/../lib/gcc/x86_64-nacl/4.4.3/../../../../x86_64-nacl/lib/../lib32/libstdc++.a(eh_unex_handler.o)
 .debug_pubnames
                0x00000000000098b0       0x36 /home/jfb/nacl_sdk/pepper_42/toolchain/linux_x86_newlib/bin/../lib/gcc/x86_64-nacl/4.4.3/../../../../x86_64-nacl/lib/../lib32/libstdc++.a(eh_term_handler.o)
 .debug_pubnames
                0x00000000000098e6       0x8f /home/jfb/nacl_sdk/pepper_42/toolchain/linux_x86_newlib/bin/../lib/gcc/x86_64-nacl/4.4.3/../../../../x86_64-nacl/lib/../lib32/libstdc++.a(bad_typeid.o)
 .debug_pubnames
                0x0000000000009975       0xc4 /home/jfb/nacl_sdk/pepper_42/toolchain/linux_x86_newlib/bin/../lib/gcc/x86_64-nacl/4.4.3/../../../../x86_64-nacl/lib/../lib32/libstdc++.a(new_handler.o)
 .debug_pubnames
                0x0000000000009a39       0x81 /home/jfb/nacl_sdk/pepper_42/toolchain/linux_x86_newlib/bin/../lib/gcc/x86_64-nacl/4.4.3/../../../../x86_64-nacl/lib/../lib32/libstdc++.a(bad_cast.o)
 .debug_pubnames
                0x0000000000009aba       0x3d /home/jfb/nacl_sdk/pepper_42/toolchain/linux_x86_newlib/bin/../lib/gcc/x86_64-nacl/4.4.3/../../../../x86_64-nacl/lib/../lib32/libstdc++.a(vterminate.o)
 .debug_pubnames
                0x0000000000009af7       0x47 /home/jfb/nacl_sdk/pepper_42/toolchain/linux_x86_newlib/bin/../lib/gcc/x86_64-nacl/4.4.3/../../../../x86_64-nacl/lib/../lib32/libstdc++.a(cp-demangle.o)
 .debug_pubnames
                0x0000000000009b3e       0x3f /home/jfb/nacl_sdk/pepper_42/toolchain/linux_x86_newlib/bin/../lib/gcc/x86_64-nacl/4.4.3/../../../../x86_64-nacl/lib/../lib32/libstdc++.a(eh_type.o)
 .debug_pubnames
                0x0000000000009b7d      0x1c7 /home/jfb/nacl_sdk/pepper_42/toolchain/linux_x86_newlib/bin/../lib/gcc/x86_64-nacl/4.4.3/32/libgcc.a(unwind-dw2.o)
 .debug_pubnames
                0x0000000000009d44      0x12c /home/jfb/nacl_sdk/pepper_42/toolchain/linux_x86_newlib/bin/../lib/gcc/x86_64-nacl/4.4.3/32/libgcc.a(unwind-dw2-fde-glibc.o)
 .debug_pubnames
                0x0000000000009e70       0x1c /home/jfb/nacl_sdk/pepper_42/toolchain/linux_x86_newlib/bin/../lib/gcc/x86_64-nacl/4.4.3/../../../../x86_64-nacl/lib/../lib32/libnacl.a(_exit_710c7d0d.o)
 .debug_pubnames
                0x0000000000009e8c       0x1c /home/jfb/nacl_sdk/pepper_42/toolchain/linux_x86_newlib/bin/../lib/gcc/x86_64-nacl/4.4.3/../../../../x86_64-nacl/lib/../lib32/libnacl.a(abort_9f6b5845.o)
 .debug_pubnames
                0x0000000000009ea8       0x1e /home/jfb/nacl_sdk/pepper_42/toolchain/linux_x86_newlib/bin/../lib/gcc/x86_64-nacl/4.4.3/../../../../x86_64-nacl/lib/../lib32/libnacl.a(environ_25cd24d8.o)
 .debug_pubnames
                0x0000000000009ec6       0x41 /home/jfb/nacl_sdk/pepper_42/toolchain/linux_x86_newlib/bin/../lib/gcc/x86_64-nacl/4.4.3/../../../../x86_64-nacl/lib/../lib32/libnacl.a(start_fa9ef7de.o)
 .debug_pubnames
                0x0000000000009f07      0x1b7 /home/jfb/nacl_sdk/pepper_42/toolchain/linux_x86_newlib/bin/../lib/gcc/x86_64-nacl/4.4.3/../../../../x86_64-nacl/lib/../lib32/libnacl.a(malloc_222c4a1e.o)
 .debug_pubnames
                0x000000000000a0be      0x148 /home/jfb/nacl_sdk/pepper_42/toolchain/linux_x86_newlib/bin/../lib/gcc/x86_64-nacl/4.4.3/../../../../x86_64-nacl/lib/../lib32/libnacl.a(nacl_irt_6de1d53f.o)
 .debug_pubnames
                0x000000000000a206       0x33 /home/jfb/nacl_sdk/pepper_42/toolchain/linux_x86_newlib/bin/../lib/gcc/x86_64-nacl/4.4.3/../../../../x86_64-nacl/lib/../lib32/libnacl.a(pthread_initialize_minimal_4b6e776b.o)
 .debug_pubnames
                0x000000000000a239       0x25 /home/jfb/nacl_sdk/pepper_42/toolchain/linux_x86_newlib/bin/../lib/gcc/x86_64-nacl/4.4.3/../../../../x86_64-nacl/lib/../lib32/libnacl.a(nacl_read_tp_5748ac47.o)
 .debug_pubnames
                0x000000000000a25e       0x1b /home/jfb/nacl_sdk/pepper_42/toolchain/linux_x86_newlib/bin/../lib/gcc/x86_64-nacl/4.4.3/../../../../x86_64-nacl/lib/../lib32/libnacl.a(mmap_767fb080.o)
 .debug_pubnames
                0x000000000000a279       0x22 /home/jfb/nacl_sdk/pepper_42/toolchain/linux_x86_newlib/bin/../lib/gcc/x86_64-nacl/4.4.3/../../../../x86_64-nacl/lib/../lib32/libnacl.a(sched_yield_56c375be.o)
 .debug_pubnames
                0x000000000000a29b       0x1d /home/jfb/nacl_sdk/pepper_42/toolchain/linux_x86_newlib/bin/../lib/gcc/x86_64-nacl/4.4.3/../../../../x86_64-nacl/lib/../lib32/libnacl.a(munmap_d4f09867.o)
 .debug_pubnames
                0x000000000000a2b8       0x50 /home/jfb/nacl_sdk/pepper_42/toolchain/linux_x86_newlib/bin/../lib/gcc/x86_64-nacl/4.4.3/../../../../x86_64-nacl/lib/../lib32/libnacl.a(tls_bba1975b.o)
 .debug_pubnames
                0x000000000000a308       0x1c /home/jfb/nacl_sdk/pepper_42/toolchain/linux_x86_newlib/bin/../lib/gcc/x86_64-nacl/4.4.3/../../../../x86_64-nacl/lib/../lib32/libnacl.a(write_fb49787f.o)
 .debug_pubnames
                0x000000000000a324       0x23 /home/jfb/nacl_sdk/pepper_42/toolchain/linux_x86_newlib/bin/../lib/gcc/x86_64-nacl/4.4.3/../../../../x86_64-nacl/lib/../lib32/libnacl.a(nacl_tls_get_d2f842b5.o)
 .debug_pubnames
                0x000000000000a347       0x29 /home/jfb/nacl_sdk/pepper_42/toolchain/linux_x86_newlib/bin/../lib/gcc/x86_64-nacl/4.4.3/../../../../x86_64-nacl/lib/../lib32/libnacl.a(nacl_irt_init_7b4f826e.o)
 .debug_pubnames
                0x000000000000a370       0x1e /home/jfb/nacl_sdk/pepper_42/toolchain/linux_x86_newlib/bin/../lib/gcc/x86_64-nacl/4.4.3/../../../../x86_64-nacl/lib/../lib32/libnacl.a(sysconf_ad295ea2.o)
 .debug_pubnames
                0x000000000000a38e       0x24 /home/jfb/nacl_sdk/pepper_42/toolchain/linux_x86_newlib/bin/../lib/gcc/x86_64-nacl/4.4.3/../../../../x86_64-nacl/lib/../lib32/libnacl.a(nacl_tls_init_eb0cd232.o)
 .debug_pubnames
                0x000000000000a3b2       0x1c /home/jfb/nacl_sdk/pepper_42/toolchain/linux_x86_newlib/bin/../lib/gcc/x86_64-nacl/4.4.3/../../../../x86_64-nacl/lib/../lib32/libnacl.a(close_e9b92fbd.o)
 .debug_pubnames
                0x000000000000a3ce       0x1d /home/jfb/nacl_sdk/pepper_42/toolchain/linux_x86_newlib/bin/../lib/gcc/x86_64-nacl/4.4.3/../../../../x86_64-nacl/lib/../lib32/libnacl.a(isatty_02f56e94.o)
 .debug_pubnames
                0x000000000000a3eb       0x32 /home/jfb/nacl_sdk/pepper_42/toolchain/linux_x86_newlib/bin/../lib/gcc/x86_64-nacl/4.4.3/../../../../x86_64-nacl/lib/../lib32/libnacl.a(nacl_irt_fdio_b571b5e7.o)
 .debug_pubnames
                0x000000000000a41d       0x1c /home/jfb/nacl_sdk/pepper_42/toolchain/linux_x86_newlib/bin/../lib/gcc/x86_64-nacl/4.4.3/../../../../x86_64-nacl/lib/../lib32/libnacl.a(fstat_0540ff63.o)
 .debug_pubnames
                0x000000000000a439       0x1c /home/jfb/nacl_sdk/pepper_42/toolchain/linux_x86_newlib/bin/../lib/gcc/x86_64-nacl/4.4.3/../../../../x86_64-nacl/lib/../lib32/libnacl.a(lseek_64d2d05c.o)
 .debug_pubnames
                0x000000000000a455       0x1b /home/jfb/nacl_sdk/pepper_42/toolchain/linux_x86_newlib/bin/../lib/gcc/x86_64-nacl/4.4.3/../../../../x86_64-nacl/lib/../lib32/libnacl.a(read_df872e10.o)
 .debug_pubnames
                0x000000000000a470       0x20 /home/jfb/nacl_sdk/pepper_42/toolchain/linux_x86_newlib/bin/../lib/gcc/x86_64-nacl/4.4.3/32/libgcc.a(_udivdi3.o)
 .debug_pubnames
                0x000000000000a490       0x20 /home/jfb/nacl_sdk/pepper_42/toolchain/linux_x86_newlib/bin/../lib/gcc/x86_64-nacl/4.4.3/32/libgcc.a(_umoddi3.o)

.debug_info     0x0000000000000000    0x70f67
 *(.debug_info .gnu.linkonce.wi.*)
 .debug_info    0x0000000000000000     0x192f newlib/Release/multi_platform_x86_32.o
 .debug_info    0x000000000000192f     0x95b5 /home/jfb/nacl_sdk/pepper_42//lib/newlib_x86_32/Release/libppapi_cpp.a(instance_x86_32.o)
 .debug_info    0x000000000000aee4     0xb6d3 /home/jfb/nacl_sdk/pepper_42//lib/newlib_x86_32/Release/libppapi_cpp.a(module_x86_32.o)
 .debug_info    0x00000000000165b7     0x180d /home/jfb/nacl_sdk/pepper_42//lib/newlib_x86_32/Release/libppapi_cpp.a(ppp_entrypoints_x86_32.o)
 .debug_info    0x0000000000017dc4     0x22bc /home/jfb/nacl_sdk/pepper_42//lib/newlib_x86_32/Release/libppapi_cpp.a(resource_x86_32.o)
 .debug_info    0x000000000001a080     0x3093 /home/jfb/nacl_sdk/pepper_42//lib/newlib_x86_32/Release/libppapi_cpp.a(url_loader_x86_32.o)
 .debug_info    0x000000000001d113     0x1fc0 /home/jfb/nacl_sdk/pepper_42//lib/newlib_x86_32/Release/libppapi_cpp.a(url_response_info_x86_32.o)
 .debug_info    0x000000000001f0d3     0x50c6 /home/jfb/nacl_sdk/pepper_42//lib/newlib_x86_32/Release/libppapi_cpp.a(var_x86_32.o)
 .debug_info    0x0000000000024199     0x30ad /home/jfb/nacl_sdk/pepper_42//lib/newlib_x86_32/Release/libppapi_cpp.a(view_x86_32.o)
 .debug_info    0x0000000000027246     0x1a63 /home/jfb/nacl_sdk/pepper_42//lib/newlib_x86_32/Release/libppapi_cpp.a(core_x86_32.o)
 .debug_info    0x0000000000028ca9     0x4694 /home/jfb/nacl_sdk/pepper_42//lib/newlib_x86_32/Release/libppapi_cpp.a(file_ref_x86_32.o)
 .debug_info    0x000000000002d33d     0x66db /home/jfb/nacl_sdk/pepper_42//lib/newlib_x86_32/Release/libppapi_cpp.a(input_event_x86_32.o)
 .debug_info    0x0000000000033a18       0x8f /home/jfb/nacl_sdk/pepper_42/toolchain/linux_x86_newlib/bin/../lib/gcc/x86_64-nacl/4.4.3/../../../../x86_64-nacl/lib/../lib32/libppapi_stub.a(plugin_main_irt_21ce9d26.o)
 .debug_info    0x0000000000033aa7      0x150 /home/jfb/nacl_sdk/pepper_42/toolchain/linux_x86_newlib/bin/../lib/gcc/x86_64-nacl/4.4.3/../../../../x86_64-nacl/lib/../lib32/libppapi_stub.a(ppapi_plugin_main_399d0cf7.o)
 .debug_info    0x0000000000033bf7      0x3ea /home/jfb/nacl_sdk/pepper_42/toolchain/linux_x86_newlib/bin/../lib/gcc/x86_64-nacl/4.4.3/../../../../x86_64-nacl/lib/../lib32/libppapi_stub.a(ppapi_plugin_start_8da67623.o)
 .debug_info    0x0000000000033fe1      0x2e2 /home/jfb/nacl_sdk/pepper_42/toolchain/linux_x86_newlib/bin/../lib/gcc/x86_64-nacl/4.4.3/../../../../x86_64-nacl/lib/../lib32/libppapi_stub.a(thread_creator_ccf263e1.o)
 .debug_info    0x00000000000342c3     0x1403 /home/jfb/nacl_sdk/pepper_42/toolchain/linux_x86_newlib/bin/../lib/gcc/x86_64-nacl/4.4.3/../../../../x86_64-nacl/lib/../lib32/libpthread.a(nc_thread_7e478b15.o)
 .debug_info    0x00000000000356c6      0x5c5 /home/jfb/nacl_sdk/pepper_42/toolchain/linux_x86_newlib/bin/../lib/gcc/x86_64-nacl/4.4.3/../../../../x86_64-nacl/lib/../lib32/libpthread.a(nc_condvar_305aa45a.o)
 .debug_info    0x0000000000035c8b      0xaf8 /home/jfb/nacl_sdk/pepper_42/toolchain/linux_x86_newlib/bin/../lib/gcc/x86_64-nacl/4.4.3/../../../../x86_64-nacl/lib/../lib32/libpthread.a(dynamic_annotations_33ba59cc.o)
 .debug_info    0x0000000000036783      0x7f2 /home/jfb/nacl_sdk/pepper_42/toolchain/linux_x86_newlib/bin/../lib/gcc/x86_64-nacl/4.4.3/../../../../x86_64-nacl/lib/../lib32/libpthread.a(nc_mutex_86341ae1.o)
 .debug_info    0x0000000000036f75      0x234 /home/jfb/nacl_sdk/pepper_42/toolchain/linux_x86_newlib/bin/../lib/gcc/x86_64-nacl/4.4.3/../../../../x86_64-nacl/lib/../lib32/libpthread.a(nc_init_irt_d3daafc0.o)
 .debug_info    0x00000000000371a9      0x951 /home/jfb/nacl_sdk/pepper_42/toolchain/linux_x86_newlib/bin/../lib/gcc/x86_64-nacl/4.4.3/../../../../x86_64-nacl/lib/../lib32/libstdc++.a(tree.o)
 .debug_info    0x0000000000037afa     0xc735 /home/jfb/nacl_sdk/pepper_42/toolchain/linux_x86_newlib/bin/../lib/gcc/x86_64-nacl/4.4.3/../../../../x86_64-nacl/lib/../lib32/libstdc++.a(string-inst.o)
 .debug_info    0x000000000004422f     0x16c7 /home/jfb/nacl_sdk/pepper_42/toolchain/linux_x86_newlib/bin/../lib/gcc/x86_64-nacl/4.4.3/../../../../x86_64-nacl/lib/../lib32/libstdc++.a(eh_personality.o)
 .debug_info    0x00000000000458f6      0x9fd /home/jfb/nacl_sdk/pepper_42/toolchain/linux_x86_newlib/bin/../lib/gcc/x86_64-nacl/4.4.3/../../../../x86_64-nacl/lib/../lib32/libstdc++.a(eh_globals.o)
 .debug_info    0x00000000000462f3      0x51e /home/jfb/nacl_sdk/pepper_42/toolchain/linux_x86_newlib/bin/../lib/gcc/x86_64-nacl/4.4.3/../../../../x86_64-nacl/lib/../lib32/libstdc++.a(eh_throw.o)
 .debug_info    0x0000000000046811      0x44c /home/jfb/nacl_sdk/pepper_42/toolchain/linux_x86_newlib/bin/../lib/gcc/x86_64-nacl/4.4.3/../../../../x86_64-nacl/lib/../lib32/libstdc++.a(del_op.o)
 .debug_info    0x0000000000046c5d      0x6ea /home/jfb/nacl_sdk/pepper_42/toolchain/linux_x86_newlib/bin/../lib/gcc/x86_64-nacl/4.4.3/../../../../x86_64-nacl/lib/../lib32/libstdc++.a(eh_call.o)
 .debug_info    0x0000000000047347      0xe59 /home/jfb/nacl_sdk/pepper_42/toolchain/linux_x86_newlib/bin/../lib/gcc/x86_64-nacl/4.4.3/../../../../x86_64-nacl/lib/../lib32/libstdc++.a(guard.o)
 .debug_info    0x00000000000481a0      0x699 /home/jfb/nacl_sdk/pepper_42/toolchain/linux_x86_newlib/bin/../lib/gcc/x86_64-nacl/4.4.3/../../../../x86_64-nacl/lib/../lib32/libstdc++.a(si_class_type_info.o)
 .debug_info    0x0000000000048839      0x640 /home/jfb/nacl_sdk/pepper_42/toolchain/linux_x86_newlib/bin/../lib/gcc/x86_64-nacl/4.4.3/../../../../x86_64-nacl/lib/../lib32/libstdc++.a(eh_terminate.o)
 .debug_info    0x0000000000048e79      0x7bf /home/jfb/nacl_sdk/pepper_42/toolchain/linux_x86_newlib/bin/../lib/gcc/x86_64-nacl/4.4.3/../../../../x86_64-nacl/lib/../lib32/libstdc++.a(class_type_info.o)
 .debug_info    0x0000000000049638     0x14f0 /home/jfb/nacl_sdk/pepper_42/toolchain/linux_x86_newlib/bin/../lib/gcc/x86_64-nacl/4.4.3/../../../../x86_64-nacl/lib/../lib32/libstdc++.a(eh_alloc.o)
 .debug_info    0x000000000004ab28      0x8be /home/jfb/nacl_sdk/pepper_42/toolchain/linux_x86_newlib/bin/../lib/gcc/x86_64-nacl/4.4.3/../../../../x86_64-nacl/lib/../lib32/libstdc++.a(eh_catch.o)
 .debug_info    0x000000000004b3e6      0x528 /home/jfb/nacl_sdk/pepper_42/toolchain/linux_x86_newlib/bin/../lib/gcc/x86_64-nacl/4.4.3/../../../../x86_64-nacl/lib/../lib32/libstdc++.a(eh_exception.o)
 .debug_info    0x000000000004b90e      0x127 /home/jfb/nacl_sdk/pepper_42/toolchain/linux_x86_newlib/bin/../lib/gcc/x86_64-nacl/4.4.3/../../../../x86_64-nacl/lib/../lib32/libstdc++.a(pure.o)
 .debug_info    0x000000000004ba35      0x528 /home/jfb/nacl_sdk/pepper_42/toolchain/linux_x86_newlib/bin/../lib/gcc/x86_64-nacl/4.4.3/../../../../x86_64-nacl/lib/../lib32/libstdc++.a(new_op.o)
 .debug_info    0x000000000004bf5d      0x46e /home/jfb/nacl_sdk/pepper_42/toolchain/linux_x86_newlib/bin/../lib/gcc/x86_64-nacl/4.4.3/../../../../x86_64-nacl/lib/../lib32/libstdc++.a(tinfo.o)
 .debug_info    0x000000000004c3cb     0x5b49 /home/jfb/nacl_sdk/pepper_42/toolchain/linux_x86_newlib/bin/../lib/gcc/x86_64-nacl/4.4.3/../../../../x86_64-nacl/lib/../lib32/libstdc++.a(functexcept.o)
 .debug_info    0x0000000000051f14     0x4176 /home/jfb/nacl_sdk/pepper_42/toolchain/linux_x86_newlib/bin/../lib/gcc/x86_64-nacl/4.4.3/../../../../x86_64-nacl/lib/../lib32/libstdc++.a(ios_failure.o)
 .debug_info    0x000000000005608a     0x40de /home/jfb/nacl_sdk/pepper_42/toolchain/linux_x86_newlib/bin/../lib/gcc/x86_64-nacl/4.4.3/../../../../x86_64-nacl/lib/../lib32/libstdc++.a(stdexcept.o)
 .debug_info    0x000000000005a168     0x4179 /home/jfb/nacl_sdk/pepper_42/toolchain/linux_x86_newlib/bin/../lib/gcc/x86_64-nacl/4.4.3/../../../../x86_64-nacl/lib/../lib32/libstdc++.a(system_error.o)
 .debug_info    0x000000000005e2e1       0xfe /home/jfb/nacl_sdk/pepper_42/toolchain/linux_x86_newlib/bin/../lib/gcc/x86_64-nacl/4.4.3/../../../../x86_64-nacl/lib/../lib32/libstdc++.a(eh_unex_handler.o)
 .debug_info    0x000000000005e3df       0xfe /home/jfb/nacl_sdk/pepper_42/toolchain/linux_x86_newlib/bin/../lib/gcc/x86_64-nacl/4.4.3/../../../../x86_64-nacl/lib/../lib32/libstdc++.a(eh_term_handler.o)
 .debug_info    0x000000000005e4dd      0x180 /home/jfb/nacl_sdk/pepper_42/toolchain/linux_x86_newlib/bin/../lib/gcc/x86_64-nacl/4.4.3/../../../../x86_64-nacl/lib/../lib32/libstdc++.a(bad_typeid.o)
 .debug_info    0x000000000005e65d      0x24f /home/jfb/nacl_sdk/pepper_42/toolchain/linux_x86_newlib/bin/../lib/gcc/x86_64-nacl/4.4.3/../../../../x86_64-nacl/lib/../lib32/libstdc++.a(new_handler.o)
 .debug_info    0x000000000005e8ac      0x180 /home/jfb/nacl_sdk/pepper_42/toolchain/linux_x86_newlib/bin/../lib/gcc/x86_64-nacl/4.4.3/../../../../x86_64-nacl/lib/../lib32/libstdc++.a(bad_cast.o)
 .debug_info    0x000000000005ea2c     0x122b /home/jfb/nacl_sdk/pepper_42/toolchain/linux_x86_newlib/bin/../lib/gcc/x86_64-nacl/4.4.3/../../../../x86_64-nacl/lib/../lib32/libstdc++.a(vterminate.o)
 .debug_info    0x000000000005fc57     0x355d /home/jfb/nacl_sdk/pepper_42/toolchain/linux_x86_newlib/bin/../lib/gcc/x86_64-nacl/4.4.3/../../../../x86_64-nacl/lib/../lib32/libstdc++.a(cp-demangle.o)
 .debug_info    0x00000000000631b4      0x490 /home/jfb/nacl_sdk/pepper_42/toolchain/linux_x86_newlib/bin/../lib/gcc/x86_64-nacl/4.4.3/../../../../x86_64-nacl/lib/../lib32/libstdc++.a(eh_type.o)
 .debug_info    0x0000000000063644     0x3587 /home/jfb/nacl_sdk/pepper_42/toolchain/linux_x86_newlib/bin/../lib/gcc/x86_64-nacl/4.4.3/32/libgcc.a(unwind-dw2.o)
 .debug_info    0x0000000000066bcb     0x1b92 /home/jfb/nacl_sdk/pepper_42/toolchain/linux_x86_newlib/bin/../lib/gcc/x86_64-nacl/4.4.3/32/libgcc.a(unwind-dw2-fde-glibc.o)
 .debug_info    0x000000000006875d      0x23c /home/jfb/nacl_sdk/pepper_42/toolchain/linux_x86_newlib/bin/../lib/gcc/x86_64-nacl/4.4.3/../../../../x86_64-nacl/lib/../lib32/libnacl.a(_exit_710c7d0d.o)
 .debug_info    0x0000000000068999       0xb6 /home/jfb/nacl_sdk/pepper_42/toolchain/linux_x86_newlib/bin/../lib/gcc/x86_64-nacl/4.4.3/../../../../x86_64-nacl/lib/../lib32/libnacl.a(abort_9f6b5845.o)
 .debug_info    0x0000000000068a4f       0x6f /home/jfb/nacl_sdk/pepper_42/toolchain/linux_x86_newlib/bin/../lib/gcc/x86_64-nacl/4.4.3/../../../../x86_64-nacl/lib/../lib32/libnacl.a(environ_25cd24d8.o)
 .debug_info    0x0000000000068abe      0x32c /home/jfb/nacl_sdk/pepper_42/toolchain/linux_x86_newlib/bin/../lib/gcc/x86_64-nacl/4.4.3/../../../../x86_64-nacl/lib/../lib32/libnacl.a(start_fa9ef7de.o)
 .debug_info    0x0000000000068dea     0x3fa9 /home/jfb/nacl_sdk/pepper_42/toolchain/linux_x86_newlib/bin/../lib/gcc/x86_64-nacl/4.4.3/../../../../x86_64-nacl/lib/../lib32/libnacl.a(malloc_222c4a1e.o)
 .debug_info    0x000000000006cd93      0xd0f /home/jfb/nacl_sdk/pepper_42/toolchain/linux_x86_newlib/bin/../lib/gcc/x86_64-nacl/4.4.3/../../../../x86_64-nacl/lib/../lib32/libnacl.a(nacl_irt_6de1d53f.o)
 .debug_info    0x000000000006daa2       0xd4 /home/jfb/nacl_sdk/pepper_42/toolchain/linux_x86_newlib/bin/../lib/gcc/x86_64-nacl/4.4.3/../../../../x86_64-nacl/lib/../lib32/libnacl.a(pthread_initialize_minimal_4b6e776b.o)
 .debug_info    0x000000000006db76       0x91 /home/jfb/nacl_sdk/pepper_42/toolchain/linux_x86_newlib/bin/../lib/gcc/x86_64-nacl/4.4.3/../../../../x86_64-nacl/lib/../lib32/libnacl.a(nacl_read_tp_5748ac47.o)
 .debug_info    0x000000000006dc07      0x1f0 /home/jfb/nacl_sdk/pepper_42/toolchain/linux_x86_newlib/bin/../lib/gcc/x86_64-nacl/4.4.3/../../../../x86_64-nacl/lib/../lib32/libnacl.a(mmap_767fb080.o)
 .debug_info    0x000000000006ddf7      0x241 /home/jfb/nacl_sdk/pepper_42/toolchain/linux_x86_newlib/bin/../lib/gcc/x86_64-nacl/4.4.3/../../../../x86_64-nacl/lib/../lib32/libnacl.a(sched_yield_56c375be.o)
 .debug_info    0x000000000006e038      0x1a1 /home/jfb/nacl_sdk/pepper_42/toolchain/linux_x86_newlib/bin/../lib/gcc/x86_64-nacl/4.4.3/../../../../x86_64-nacl/lib/../lib32/libnacl.a(munmap_d4f09867.o)
 .debug_info    0x000000000006e1d9      0x73b /home/jfb/nacl_sdk/pepper_42/toolchain/linux_x86_newlib/bin/../lib/gcc/x86_64-nacl/4.4.3/../../../../x86_64-nacl/lib/../lib32/libnacl.a(tls_bba1975b.o)
 .debug_info    0x000000000006e914      0x2c0 /home/jfb/nacl_sdk/pepper_42/toolchain/linux_x86_newlib/bin/../lib/gcc/x86_64-nacl/4.4.3/../../../../x86_64-nacl/lib/../lib32/libnacl.a(write_fb49787f.o)
 .debug_info    0x000000000006ebd4       0xec /home/jfb/nacl_sdk/pepper_42/toolchain/linux_x86_newlib/bin/../lib/gcc/x86_64-nacl/4.4.3/../../../../x86_64-nacl/lib/../lib32/libnacl.a(nacl_tls_get_d2f842b5.o)
 .debug_info    0x000000000006ecc0      0x6b2 /home/jfb/nacl_sdk/pepper_42/toolchain/linux_x86_newlib/bin/../lib/gcc/x86_64-nacl/4.4.3/../../../../x86_64-nacl/lib/../lib32/libnacl.a(nacl_irt_init_7b4f826e.o)
 .debug_info    0x000000000006f372      0x25e /home/jfb/nacl_sdk/pepper_42/toolchain/linux_x86_newlib/bin/../lib/gcc/x86_64-nacl/4.4.3/../../../../x86_64-nacl/lib/../lib32/libnacl.a(sysconf_ad295ea2.o)
 .debug_info    0x000000000006f5d0       0xff /home/jfb/nacl_sdk/pepper_42/toolchain/linux_x86_newlib/bin/../lib/gcc/x86_64-nacl/4.4.3/../../../../x86_64-nacl/lib/../lib32/libnacl.a(nacl_tls_init_eb0cd232.o)
 .debug_info    0x000000000006f6cf      0x295 /home/jfb/nacl_sdk/pepper_42/toolchain/linux_x86_newlib/bin/../lib/gcc/x86_64-nacl/4.4.3/../../../../x86_64-nacl/lib/../lib32/libnacl.a(close_e9b92fbd.o)
 .debug_info    0x000000000006f964      0x338 /home/jfb/nacl_sdk/pepper_42/toolchain/linux_x86_newlib/bin/../lib/gcc/x86_64-nacl/4.4.3/../../../../x86_64-nacl/lib/../lib32/libnacl.a(isatty_02f56e94.o)
 .debug_info    0x000000000006fc9c      0x304 /home/jfb/nacl_sdk/pepper_42/toolchain/linux_x86_newlib/bin/../lib/gcc/x86_64-nacl/4.4.3/../../../../x86_64-nacl/lib/../lib32/libnacl.a(nacl_irt_fdio_b571b5e7.o)
 .debug_info    0x000000000006ffa0      0x49b /home/jfb/nacl_sdk/pepper_42/toolchain/linux_x86_newlib/bin/../lib/gcc/x86_64-nacl/4.4.3/../../../../x86_64-nacl/lib/../lib32/libnacl.a(fstat_0540ff63.o)
 .debug_info    0x000000000007043b      0x2d6 /home/jfb/nacl_sdk/pepper_42/toolchain/linux_x86_newlib/bin/../lib/gcc/x86_64-nacl/4.4.3/../../../../x86_64-nacl/lib/../lib32/libnacl.a(lseek_64d2d05c.o)
 .debug_info    0x0000000000070711      0x2c0 /home/jfb/nacl_sdk/pepper_42/toolchain/linux_x86_newlib/bin/../lib/gcc/x86_64-nacl/4.4.3/../../../../x86_64-nacl/lib/../lib32/libnacl.a(read_df872e10.o)
 .debug_info    0x00000000000709d1      0x2c6 /home/jfb/nacl_sdk/pepper_42/toolchain/linux_x86_newlib/bin/../lib/gcc/x86_64-nacl/4.4.3/32/libgcc.a(_udivdi3.o)
 .debug_info    0x0000000000070c97      0x2d0 /home/jfb/nacl_sdk/pepper_42/toolchain/linux_x86_newlib/bin/../lib/gcc/x86_64-nacl/4.4.3/32/libgcc.a(_umoddi3.o)

.debug_abbrev   0x0000000000000000     0xca90
 *(.debug_abbrev)
 .debug_abbrev  0x0000000000000000      0x36c newlib/Release/multi_platform_x86_32.o
 .debug_abbrev  0x000000000000036c      0x82e /home/jfb/nacl_sdk/pepper_42//lib/newlib_x86_32/Release/libppapi_cpp.a(instance_x86_32.o)
 .debug_abbrev  0x0000000000000b9a      0x855 /home/jfb/nacl_sdk/pepper_42//lib/newlib_x86_32/Release/libppapi_cpp.a(module_x86_32.o)
 .debug_abbrev  0x00000000000013ef      0x2dc /home/jfb/nacl_sdk/pepper_42//lib/newlib_x86_32/Release/libppapi_cpp.a(ppp_entrypoints_x86_32.o)
 .debug_abbrev  0x00000000000016cb      0x444 /home/jfb/nacl_sdk/pepper_42//lib/newlib_x86_32/Release/libppapi_cpp.a(resource_x86_32.o)
 .debug_abbrev  0x0000000000001b0f      0x4be /home/jfb/nacl_sdk/pepper_42//lib/newlib_x86_32/Release/libppapi_cpp.a(url_loader_x86_32.o)
 .debug_abbrev  0x0000000000001fcd      0x3db /home/jfb/nacl_sdk/pepper_42//lib/newlib_x86_32/Release/libppapi_cpp.a(url_response_info_x86_32.o)
 .debug_abbrev  0x00000000000023a8      0x72a /home/jfb/nacl_sdk/pepper_42//lib/newlib_x86_32/Release/libppapi_cpp.a(var_x86_32.o)
 .debug_abbrev  0x0000000000002ad2      0x48b /home/jfb/nacl_sdk/pepper_42//lib/newlib_x86_32/Release/libppapi_cpp.a(view_x86_32.o)
 .debug_abbrev  0x0000000000002f5d      0x36a /home/jfb/nacl_sdk/pepper_42//lib/newlib_x86_32/Release/libppapi_cpp.a(core_x86_32.o)
 .debug_abbrev  0x00000000000032c7      0x61e /home/jfb/nacl_sdk/pepper_42//lib/newlib_x86_32/Release/libppapi_cpp.a(file_ref_x86_32.o)
 .debug_abbrev  0x00000000000038e5      0x70b /home/jfb/nacl_sdk/pepper_42//lib/newlib_x86_32/Release/libppapi_cpp.a(input_event_x86_32.o)
 .debug_abbrev  0x0000000000003ff0       0x4a /home/jfb/nacl_sdk/pepper_42/toolchain/linux_x86_newlib/bin/../lib/gcc/x86_64-nacl/4.4.3/../../../../x86_64-nacl/lib/../lib32/libppapi_stub.a(plugin_main_irt_21ce9d26.o)
 .debug_abbrev  0x000000000000403a       0xbb /home/jfb/nacl_sdk/pepper_42/toolchain/linux_x86_newlib/bin/../lib/gcc/x86_64-nacl/4.4.3/../../../../x86_64-nacl/lib/../lib32/libppapi_stub.a(ppapi_plugin_main_399d0cf7.o)
 .debug_abbrev  0x00000000000040f5      0x1ad /home/jfb/nacl_sdk/pepper_42/toolchain/linux_x86_newlib/bin/../lib/gcc/x86_64-nacl/4.4.3/../../../../x86_64-nacl/lib/../lib32/libppapi_stub.a(ppapi_plugin_start_8da67623.o)
 .debug_abbrev  0x00000000000042a2      0x109 /home/jfb/nacl_sdk/pepper_42/toolchain/linux_x86_newlib/bin/../lib/gcc/x86_64-nacl/4.4.3/../../../../x86_64-nacl/lib/../lib32/libppapi_stub.a(thread_creator_ccf263e1.o)
 .debug_abbrev  0x00000000000043ab      0x44f /home/jfb/nacl_sdk/pepper_42/toolchain/linux_x86_newlib/bin/../lib/gcc/x86_64-nacl/4.4.3/../../../../x86_64-nacl/lib/../lib32/libpthread.a(nc_thread_7e478b15.o)
 .debug_abbrev  0x00000000000047fa      0x19c /home/jfb/nacl_sdk/pepper_42/toolchain/linux_x86_newlib/bin/../lib/gcc/x86_64-nacl/4.4.3/../../../../x86_64-nacl/lib/../lib32/libpthread.a(nc_condvar_305aa45a.o)
 .debug_abbrev  0x0000000000004996       0xfc /home/jfb/nacl_sdk/pepper_42/toolchain/linux_x86_newlib/bin/../lib/gcc/x86_64-nacl/4.4.3/../../../../x86_64-nacl/lib/../lib32/libpthread.a(dynamic_annotations_33ba59cc.o)
 .debug_abbrev  0x0000000000004a92      0x222 /home/jfb/nacl_sdk/pepper_42/toolchain/linux_x86_newlib/bin/../lib/gcc/x86_64-nacl/4.4.3/../../../../x86_64-nacl/lib/../lib32/libpthread.a(nc_mutex_86341ae1.o)
 .debug_abbrev  0x0000000000004cb4       0xed /home/jfb/nacl_sdk/pepper_42/toolchain/linux_x86_newlib/bin/../lib/gcc/x86_64-nacl/4.4.3/../../../../x86_64-nacl/lib/../lib32/libpthread.a(nc_init_irt_d3daafc0.o)
 .debug_abbrev  0x0000000000004da1      0x2eb /home/jfb/nacl_sdk/pepper_42/toolchain/linux_x86_newlib/bin/../lib/gcc/x86_64-nacl/4.4.3/../../../../x86_64-nacl/lib/../lib32/libstdc++.a(tree.o)
 .debug_abbrev  0x000000000000508c      0x7a9 /home/jfb/nacl_sdk/pepper_42/toolchain/linux_x86_newlib/bin/../lib/gcc/x86_64-nacl/4.4.3/../../../../x86_64-nacl/lib/../lib32/libstdc++.a(string-inst.o)
 .debug_abbrev  0x0000000000005835      0x4af /home/jfb/nacl_sdk/pepper_42/toolchain/linux_x86_newlib/bin/../lib/gcc/x86_64-nacl/4.4.3/../../../../x86_64-nacl/lib/../lib32/libstdc++.a(eh_personality.o)
 .debug_abbrev  0x0000000000005ce4      0x2fa /home/jfb/nacl_sdk/pepper_42/toolchain/linux_x86_newlib/bin/../lib/gcc/x86_64-nacl/4.4.3/../../../../x86_64-nacl/lib/../lib32/libstdc++.a(eh_globals.o)
 .debug_abbrev  0x0000000000005fde      0x22a /home/jfb/nacl_sdk/pepper_42/toolchain/linux_x86_newlib/bin/../lib/gcc/x86_64-nacl/4.4.3/../../../../x86_64-nacl/lib/../lib32/libstdc++.a(eh_throw.o)
 .debug_abbrev  0x0000000000006208      0x125 /home/jfb/nacl_sdk/pepper_42/toolchain/linux_x86_newlib/bin/../lib/gcc/x86_64-nacl/4.4.3/../../../../x86_64-nacl/lib/../lib32/libstdc++.a(del_op.o)
 .debug_abbrev  0x000000000000632d      0x1f3 /home/jfb/nacl_sdk/pepper_42/toolchain/linux_x86_newlib/bin/../lib/gcc/x86_64-nacl/4.4.3/../../../../x86_64-nacl/lib/../lib32/libstdc++.a(eh_call.o)
 .debug_abbrev  0x0000000000006520      0x4b1 /home/jfb/nacl_sdk/pepper_42/toolchain/linux_x86_newlib/bin/../lib/gcc/x86_64-nacl/4.4.3/../../../../x86_64-nacl/lib/../lib32/libstdc++.a(guard.o)
 .debug_abbrev  0x00000000000069d1      0x2f5 /home/jfb/nacl_sdk/pepper_42/toolchain/linux_x86_newlib/bin/../lib/gcc/x86_64-nacl/4.4.3/../../../../x86_64-nacl/lib/../lib32/libstdc++.a(si_class_type_info.o)
 .debug_abbrev  0x0000000000006cc6      0x1d2 /home/jfb/nacl_sdk/pepper_42/toolchain/linux_x86_newlib/bin/../lib/gcc/x86_64-nacl/4.4.3/../../../../x86_64-nacl/lib/../lib32/libstdc++.a(eh_terminate.o)
 .debug_abbrev  0x0000000000006e98      0x374 /home/jfb/nacl_sdk/pepper_42/toolchain/linux_x86_newlib/bin/../lib/gcc/x86_64-nacl/4.4.3/../../../../x86_64-nacl/lib/../lib32/libstdc++.a(class_type_info.o)
 .debug_abbrev  0x000000000000720c      0x478 /home/jfb/nacl_sdk/pepper_42/toolchain/linux_x86_newlib/bin/../lib/gcc/x86_64-nacl/4.4.3/../../../../x86_64-nacl/lib/../lib32/libstdc++.a(eh_alloc.o)
 .debug_abbrev  0x0000000000007684      0x284 /home/jfb/nacl_sdk/pepper_42/toolchain/linux_x86_newlib/bin/../lib/gcc/x86_64-nacl/4.4.3/../../../../x86_64-nacl/lib/../lib32/libstdc++.a(eh_catch.o)
 .debug_abbrev  0x0000000000007908      0x1df /home/jfb/nacl_sdk/pepper_42/toolchain/linux_x86_newlib/bin/../lib/gcc/x86_64-nacl/4.4.3/../../../../x86_64-nacl/lib/../lib32/libstdc++.a(eh_exception.o)
 .debug_abbrev  0x0000000000007ae7       0xb1 /home/jfb/nacl_sdk/pepper_42/toolchain/linux_x86_newlib/bin/../lib/gcc/x86_64-nacl/4.4.3/../../../../x86_64-nacl/lib/../lib32/libstdc++.a(pure.o)
 .debug_abbrev  0x0000000000007b98      0x1b7 /home/jfb/nacl_sdk/pepper_42/toolchain/linux_x86_newlib/bin/../lib/gcc/x86_64-nacl/4.4.3/../../../../x86_64-nacl/lib/../lib32/libstdc++.a(new_op.o)
 .debug_abbrev  0x0000000000007d4f      0x230 /home/jfb/nacl_sdk/pepper_42/toolchain/linux_x86_newlib/bin/../lib/gcc/x86_64-nacl/4.4.3/../../../../x86_64-nacl/lib/../lib32/libstdc++.a(tinfo.o)
 .debug_abbrev  0x0000000000007f7f      0x73b /home/jfb/nacl_sdk/pepper_42/toolchain/linux_x86_newlib/bin/../lib/gcc/x86_64-nacl/4.4.3/../../../../x86_64-nacl/lib/../lib32/libstdc++.a(functexcept.o)
 .debug_abbrev  0x00000000000086ba      0x690 /home/jfb/nacl_sdk/pepper_42/toolchain/linux_x86_newlib/bin/../lib/gcc/x86_64-nacl/4.4.3/../../../../x86_64-nacl/lib/../lib32/libstdc++.a(ios_failure.o)
 .debug_abbrev  0x0000000000008d4a      0x577 /home/jfb/nacl_sdk/pepper_42/toolchain/linux_x86_newlib/bin/../lib/gcc/x86_64-nacl/4.4.3/../../../../x86_64-nacl/lib/../lib32/libstdc++.a(stdexcept.o)
 .debug_abbrev  0x00000000000092c1      0x69a /home/jfb/nacl_sdk/pepper_42/toolchain/linux_x86_newlib/bin/../lib/gcc/x86_64-nacl/4.4.3/../../../../x86_64-nacl/lib/../lib32/libstdc++.a(system_error.o)
 .debug_abbrev  0x000000000000995b       0xb1 /home/jfb/nacl_sdk/pepper_42/toolchain/linux_x86_newlib/bin/../lib/gcc/x86_64-nacl/4.4.3/../../../../x86_64-nacl/lib/../lib32/libstdc++.a(eh_unex_handler.o)
 .debug_abbrev  0x0000000000009a0c       0xb1 /home/jfb/nacl_sdk/pepper_42/toolchain/linux_x86_newlib/bin/../lib/gcc/x86_64-nacl/4.4.3/../../../../x86_64-nacl/lib/../lib32/libstdc++.a(eh_term_handler.o)
 .debug_abbrev  0x0000000000009abd      0x10e /home/jfb/nacl_sdk/pepper_42/toolchain/linux_x86_newlib/bin/../lib/gcc/x86_64-nacl/4.4.3/../../../../x86_64-nacl/lib/../lib32/libstdc++.a(bad_typeid.o)
 .debug_abbrev  0x0000000000009bcb      0x1af /home/jfb/nacl_sdk/pepper_42/toolchain/linux_x86_newlib/bin/../lib/gcc/x86_64-nacl/4.4.3/../../../../x86_64-nacl/lib/../lib32/libstdc++.a(new_handler.o)
 .debug_abbrev  0x0000000000009d7a      0x10e /home/jfb/nacl_sdk/pepper_42/toolchain/linux_x86_newlib/bin/../lib/gcc/x86_64-nacl/4.4.3/../../../../x86_64-nacl/lib/../lib32/libstdc++.a(bad_cast.o)
 .debug_abbrev  0x0000000000009e88      0x2c6 /home/jfb/nacl_sdk/pepper_42/toolchain/linux_x86_newlib/bin/../lib/gcc/x86_64-nacl/4.4.3/../../../../x86_64-nacl/lib/../lib32/libstdc++.a(vterminate.o)
 .debug_abbrev  0x000000000000a14e      0x2fb /home/jfb/nacl_sdk/pepper_42/toolchain/linux_x86_newlib/bin/../lib/gcc/x86_64-nacl/4.4.3/../../../../x86_64-nacl/lib/../lib32/libstdc++.a(cp-demangle.o)
 .debug_abbrev  0x000000000000a449      0x1b8 /home/jfb/nacl_sdk/pepper_42/toolchain/linux_x86_newlib/bin/../lib/gcc/x86_64-nacl/4.4.3/../../../../x86_64-nacl/lib/../lib32/libstdc++.a(eh_type.o)
 .debug_abbrev  0x000000000000a601      0x506 /home/jfb/nacl_sdk/pepper_42/toolchain/linux_x86_newlib/bin/../lib/gcc/x86_64-nacl/4.4.3/32/libgcc.a(unwind-dw2.o)
 .debug_abbrev  0x000000000000ab07      0x455 /home/jfb/nacl_sdk/pepper_42/toolchain/linux_x86_newlib/bin/../lib/gcc/x86_64-nacl/4.4.3/32/libgcc.a(unwind-dw2-fde-glibc.o)
 .debug_abbrev  0x000000000000af5c       0xcb /home/jfb/nacl_sdk/pepper_42/toolchain/linux_x86_newlib/bin/../lib/gcc/x86_64-nacl/4.4.3/../../../../x86_64-nacl/lib/../lib32/libnacl.a(_exit_710c7d0d.o)
 .debug_abbrev  0x000000000000b027       0x72 /home/jfb/nacl_sdk/pepper_42/toolchain/linux_x86_newlib/bin/../lib/gcc/x86_64-nacl/4.4.3/../../../../x86_64-nacl/lib/../lib32/libnacl.a(abort_9f6b5845.o)
 .debug_abbrev  0x000000000000b099       0x63 /home/jfb/nacl_sdk/pepper_42/toolchain/linux_x86_newlib/bin/../lib/gcc/x86_64-nacl/4.4.3/../../../../x86_64-nacl/lib/../lib32/libnacl.a(environ_25cd24d8.o)
 .debug_abbrev  0x000000000000b0fc      0x197 /home/jfb/nacl_sdk/pepper_42/toolchain/linux_x86_newlib/bin/../lib/gcc/x86_64-nacl/4.4.3/../../../../x86_64-nacl/lib/../lib32/libnacl.a(start_fa9ef7de.o)
 .debug_abbrev  0x000000000000b293      0x3d8 /home/jfb/nacl_sdk/pepper_42/toolchain/linux_x86_newlib/bin/../lib/gcc/x86_64-nacl/4.4.3/../../../../x86_64-nacl/lib/../lib32/libnacl.a(malloc_222c4a1e.o)
 .debug_abbrev  0x000000000000b66b      0x1ff /home/jfb/nacl_sdk/pepper_42/toolchain/linux_x86_newlib/bin/../lib/gcc/x86_64-nacl/4.4.3/../../../../x86_64-nacl/lib/../lib32/libnacl.a(nacl_irt_6de1d53f.o)
 .debug_abbrev  0x000000000000b86a       0x89 /home/jfb/nacl_sdk/pepper_42/toolchain/linux_x86_newlib/bin/../lib/gcc/x86_64-nacl/4.4.3/../../../../x86_64-nacl/lib/../lib32/libnacl.a(pthread_initialize_minimal_4b6e776b.o)
 .debug_abbrev  0x000000000000b8f3       0x51 /home/jfb/nacl_sdk/pepper_42/toolchain/linux_x86_newlib/bin/../lib/gcc/x86_64-nacl/4.4.3/../../../../x86_64-nacl/lib/../lib32/libnacl.a(nacl_read_tp_5748ac47.o)
 .debug_abbrev  0x000000000000b944       0xd7 /home/jfb/nacl_sdk/pepper_42/toolchain/linux_x86_newlib/bin/../lib/gcc/x86_64-nacl/4.4.3/../../../../x86_64-nacl/lib/../lib32/libnacl.a(mmap_767fb080.o)
 .debug_abbrev  0x000000000000ba1b       0xcd /home/jfb/nacl_sdk/pepper_42/toolchain/linux_x86_newlib/bin/../lib/gcc/x86_64-nacl/4.4.3/../../../../x86_64-nacl/lib/../lib32/libnacl.a(sched_yield_56c375be.o)
 .debug_abbrev  0x000000000000bae8       0xc8 /home/jfb/nacl_sdk/pepper_42/toolchain/linux_x86_newlib/bin/../lib/gcc/x86_64-nacl/4.4.3/../../../../x86_64-nacl/lib/../lib32/libnacl.a(munmap_d4f09867.o)
 .debug_abbrev  0x000000000000bbb0      0x220 /home/jfb/nacl_sdk/pepper_42/toolchain/linux_x86_newlib/bin/../lib/gcc/x86_64-nacl/4.4.3/../../../../x86_64-nacl/lib/../lib32/libnacl.a(tls_bba1975b.o)
 .debug_abbrev  0x000000000000bdd0       0xf4 /home/jfb/nacl_sdk/pepper_42/toolchain/linux_x86_newlib/bin/../lib/gcc/x86_64-nacl/4.4.3/../../../../x86_64-nacl/lib/../lib32/libnacl.a(write_fb49787f.o)
 .debug_abbrev  0x000000000000bec4       0xa4 /home/jfb/nacl_sdk/pepper_42/toolchain/linux_x86_newlib/bin/../lib/gcc/x86_64-nacl/4.4.3/../../../../x86_64-nacl/lib/../lib32/libnacl.a(nacl_tls_get_d2f842b5.o)
 .debug_abbrev  0x000000000000bf68      0x1d9 /home/jfb/nacl_sdk/pepper_42/toolchain/linux_x86_newlib/bin/../lib/gcc/x86_64-nacl/4.4.3/../../../../x86_64-nacl/lib/../lib32/libnacl.a(nacl_irt_init_7b4f826e.o)
 .debug_abbrev  0x000000000000c141       0xdc /home/jfb/nacl_sdk/pepper_42/toolchain/linux_x86_newlib/bin/../lib/gcc/x86_64-nacl/4.4.3/../../../../x86_64-nacl/lib/../lib32/libnacl.a(sysconf_ad295ea2.o)
 .debug_abbrev  0x000000000000c21d       0xb5 /home/jfb/nacl_sdk/pepper_42/toolchain/linux_x86_newlib/bin/../lib/gcc/x86_64-nacl/4.4.3/../../../../x86_64-nacl/lib/../lib32/libnacl.a(nacl_tls_init_eb0cd232.o)
 .debug_abbrev  0x000000000000c2d2       0xe5 /home/jfb/nacl_sdk/pepper_42/toolchain/linux_x86_newlib/bin/../lib/gcc/x86_64-nacl/4.4.3/../../../../x86_64-nacl/lib/../lib32/libnacl.a(close_e9b92fbd.o)
 .debug_abbrev  0x000000000000c3b7       0xe5 /home/jfb/nacl_sdk/pepper_42/toolchain/linux_x86_newlib/bin/../lib/gcc/x86_64-nacl/4.4.3/../../../../x86_64-nacl/lib/../lib32/libnacl.a(isatty_02f56e94.o)
 .debug_abbrev  0x000000000000c49c       0xc3 /home/jfb/nacl_sdk/pepper_42/toolchain/linux_x86_newlib/bin/../lib/gcc/x86_64-nacl/4.4.3/../../../../x86_64-nacl/lib/../lib32/libnacl.a(nacl_irt_fdio_b571b5e7.o)
 .debug_abbrev  0x000000000000c55f       0xe5 /home/jfb/nacl_sdk/pepper_42/toolchain/linux_x86_newlib/bin/../lib/gcc/x86_64-nacl/4.4.3/../../../../x86_64-nacl/lib/../lib32/libnacl.a(fstat_0540ff63.o)
 .debug_abbrev  0x000000000000c644       0xe5 /home/jfb/nacl_sdk/pepper_42/toolchain/linux_x86_newlib/bin/../lib/gcc/x86_64-nacl/4.4.3/../../../../x86_64-nacl/lib/../lib32/libnacl.a(lseek_64d2d05c.o)
 .debug_abbrev  0x000000000000c729       0xf4 /home/jfb/nacl_sdk/pepper_42/toolchain/linux_x86_newlib/bin/../lib/gcc/x86_64-nacl/4.4.3/../../../../x86_64-nacl/lib/../lib32/libnacl.a(read_df872e10.o)
 .debug_abbrev  0x000000000000c81d      0x132 /home/jfb/nacl_sdk/pepper_42/toolchain/linux_x86_newlib/bin/../lib/gcc/x86_64-nacl/4.4.3/32/libgcc.a(_udivdi3.o)
 .debug_abbrev  0x000000000000c94f      0x141 /home/jfb/nacl_sdk/pepper_42/toolchain/linux_x86_newlib/bin/../lib/gcc/x86_64-nacl/4.4.3/32/libgcc.a(_umoddi3.o)

.debug_line     0x0000000000000000    0x1bcfc
 *(.debug_line .debug_line.* .debug_line_end)
 .debug_line    0x0000000000000000      0x651 newlib/Release/multi_platform_x86_32.o
 .debug_line    0x0000000000000651     0x1345 /home/jfb/nacl_sdk/pepper_42//lib/newlib_x86_32/Release/libppapi_cpp.a(instance_x86_32.o)
 .debug_line    0x0000000000001996     0x133c /home/jfb/nacl_sdk/pepper_42//lib/newlib_x86_32/Release/libppapi_cpp.a(module_x86_32.o)
 .debug_line    0x0000000000002cd2      0x725 /home/jfb/nacl_sdk/pepper_42//lib/newlib_x86_32/Release/libppapi_cpp.a(ppp_entrypoints_x86_32.o)
 .debug_line    0x00000000000033f7      0x8aa /home/jfb/nacl_sdk/pepper_42//lib/newlib_x86_32/Release/libppapi_cpp.a(resource_x86_32.o)
 .debug_line    0x0000000000003ca1      0xbe6 /home/jfb/nacl_sdk/pepper_42//lib/newlib_x86_32/Release/libppapi_cpp.a(url_loader_x86_32.o)
 .debug_line    0x0000000000004887      0x886 /home/jfb/nacl_sdk/pepper_42//lib/newlib_x86_32/Release/libppapi_cpp.a(url_response_info_x86_32.o)
 .debug_line    0x000000000000510d      0xdb2 /home/jfb/nacl_sdk/pepper_42//lib/newlib_x86_32/Release/libppapi_cpp.a(var_x86_32.o)
 .debug_line    0x0000000000005ebf      0xb2a /home/jfb/nacl_sdk/pepper_42//lib/newlib_x86_32/Release/libppapi_cpp.a(view_x86_32.o)
 .debug_line    0x00000000000069e9      0x74d /home/jfb/nacl_sdk/pepper_42//lib/newlib_x86_32/Release/libppapi_cpp.a(core_x86_32.o)
 .debug_line    0x0000000000007136      0xf2f /home/jfb/nacl_sdk/pepper_42//lib/newlib_x86_32/Release/libppapi_cpp.a(file_ref_x86_32.o)
 .debug_line    0x0000000000008065     0x192f /home/jfb/nacl_sdk/pepper_42//lib/newlib_x86_32/Release/libppapi_cpp.a(input_event_x86_32.o)
 .debug_line    0x0000000000009994       0x44 /home/jfb/nacl_sdk/pepper_42/toolchain/linux_x86_newlib/bin/../lib/gcc/x86_64-nacl/4.4.3/../../../../x86_64-nacl/lib/../lib32/libppapi_stub.a(plugin_main_irt_21ce9d26.o)
 .debug_line    0x00000000000099d8      0x20b /home/jfb/nacl_sdk/pepper_42/toolchain/linux_x86_newlib/bin/../lib/gcc/x86_64-nacl/4.4.3/../../../../x86_64-nacl/lib/../lib32/libppapi_stub.a(ppapi_plugin_main_399d0cf7.o)
 .debug_line    0x0000000000009be3      0x3db /home/jfb/nacl_sdk/pepper_42/toolchain/linux_x86_newlib/bin/../lib/gcc/x86_64-nacl/4.4.3/../../../../x86_64-nacl/lib/../lib32/libppapi_stub.a(ppapi_plugin_start_8da67623.o)
 .debug_line    0x0000000000009fbe      0x217 /home/jfb/nacl_sdk/pepper_42/toolchain/linux_x86_newlib/bin/../lib/gcc/x86_64-nacl/4.4.3/../../../../x86_64-nacl/lib/../lib32/libppapi_stub.a(thread_creator_ccf263e1.o)
 .debug_line    0x000000000000a1d5      0x785 /home/jfb/nacl_sdk/pepper_42/toolchain/linux_x86_newlib/bin/../lib/gcc/x86_64-nacl/4.4.3/../../../../x86_64-nacl/lib/../lib32/libpthread.a(nc_thread_7e478b15.o)
 .debug_line    0x000000000000a95a      0x2a2 /home/jfb/nacl_sdk/pepper_42/toolchain/linux_x86_newlib/bin/../lib/gcc/x86_64-nacl/4.4.3/../../../../x86_64-nacl/lib/../lib32/libpthread.a(nc_condvar_305aa45a.o)
 .debug_line    0x000000000000abfc       0xd3 /home/jfb/nacl_sdk/pepper_42/toolchain/linux_x86_newlib/bin/../lib/gcc/x86_64-nacl/4.4.3/../../../../x86_64-nacl/lib/../lib32/libpthread.a(dynamic_annotations_33ba59cc.o)
 .debug_line    0x000000000000accf      0x34b /home/jfb/nacl_sdk/pepper_42/toolchain/linux_x86_newlib/bin/../lib/gcc/x86_64-nacl/4.4.3/../../../../x86_64-nacl/lib/../lib32/libpthread.a(nc_mutex_86341ae1.o)
 .debug_line    0x000000000000b01a      0x220 /home/jfb/nacl_sdk/pepper_42/toolchain/linux_x86_newlib/bin/../lib/gcc/x86_64-nacl/4.4.3/../../../../x86_64-nacl/lib/../lib32/libpthread.a(nc_init_irt_d3daafc0.o)
 .debug_line    0x000000000000b23a      0x683 /home/jfb/nacl_sdk/pepper_42/toolchain/linux_x86_newlib/bin/../lib/gcc/x86_64-nacl/4.4.3/../../../../x86_64-nacl/lib/../lib32/libstdc++.a(tree.o)
 .debug_line    0x000000000000b8bd     0x28d4 /home/jfb/nacl_sdk/pepper_42/toolchain/linux_x86_newlib/bin/../lib/gcc/x86_64-nacl/4.4.3/../../../../x86_64-nacl/lib/../lib32/libstdc++.a(string-inst.o)
 .debug_line    0x000000000000e191      0x679 /home/jfb/nacl_sdk/pepper_42/toolchain/linux_x86_newlib/bin/../lib/gcc/x86_64-nacl/4.4.3/../../../../x86_64-nacl/lib/../lib32/libstdc++.a(eh_personality.o)
 .debug_line    0x000000000000e80a      0x436 /home/jfb/nacl_sdk/pepper_42/toolchain/linux_x86_newlib/bin/../lib/gcc/x86_64-nacl/4.4.3/../../../../x86_64-nacl/lib/../lib32/libstdc++.a(eh_globals.o)
 .debug_line    0x000000000000ec40      0x2de /home/jfb/nacl_sdk/pepper_42/toolchain/linux_x86_newlib/bin/../lib/gcc/x86_64-nacl/4.4.3/../../../../x86_64-nacl/lib/../lib32/libstdc++.a(eh_throw.o)
 .debug_line    0x000000000000ef1e      0x228 /home/jfb/nacl_sdk/pepper_42/toolchain/linux_x86_newlib/bin/../lib/gcc/x86_64-nacl/4.4.3/../../../../x86_64-nacl/lib/../lib32/libstdc++.a(del_op.o)
 .debug_line    0x000000000000f146      0x257 /home/jfb/nacl_sdk/pepper_42/toolchain/linux_x86_newlib/bin/../lib/gcc/x86_64-nacl/4.4.3/../../../../x86_64-nacl/lib/../lib32/libstdc++.a(eh_call.o)
 .debug_line    0x000000000000f39d      0x658 /home/jfb/nacl_sdk/pepper_42/toolchain/linux_x86_newlib/bin/../lib/gcc/x86_64-nacl/4.4.3/../../../../x86_64-nacl/lib/../lib32/libstdc++.a(guard.o)
 .debug_line    0x000000000000f9f5      0x28c /home/jfb/nacl_sdk/pepper_42/toolchain/linux_x86_newlib/bin/../lib/gcc/x86_64-nacl/4.4.3/../../../../x86_64-nacl/lib/../lib32/libstdc++.a(si_class_type_info.o)
 .debug_line    0x000000000000fc81      0x2b9 /home/jfb/nacl_sdk/pepper_42/toolchain/linux_x86_newlib/bin/../lib/gcc/x86_64-nacl/4.4.3/../../../../x86_64-nacl/lib/../lib32/libstdc++.a(eh_terminate.o)
 .debug_line    0x000000000000ff3a      0x2a9 /home/jfb/nacl_sdk/pepper_42/toolchain/linux_x86_newlib/bin/../lib/gcc/x86_64-nacl/4.4.3/../../../../x86_64-nacl/lib/../lib32/libstdc++.a(class_type_info.o)
 .debug_line    0x00000000000101e3      0x7a5 /home/jfb/nacl_sdk/pepper_42/toolchain/linux_x86_newlib/bin/../lib/gcc/x86_64-nacl/4.4.3/../../../../x86_64-nacl/lib/../lib32/libstdc++.a(eh_alloc.o)
 .debug_line    0x0000000000010988      0x2f0 /home/jfb/nacl_sdk/pepper_42/toolchain/linux_x86_newlib/bin/../lib/gcc/x86_64-nacl/4.4.3/../../../../x86_64-nacl/lib/../lib32/libstdc++.a(eh_catch.o)
 .debug_line    0x0000000000010c78      0x1af /home/jfb/nacl_sdk/pepper_42/toolchain/linux_x86_newlib/bin/../lib/gcc/x86_64-nacl/4.4.3/../../../../x86_64-nacl/lib/../lib32/libstdc++.a(eh_exception.o)
 .debug_line    0x0000000000010e27      0x1c8 /home/jfb/nacl_sdk/pepper_42/toolchain/linux_x86_newlib/bin/../lib/gcc/x86_64-nacl/4.4.3/../../../../x86_64-nacl/lib/../lib32/libstdc++.a(pure.o)
 .debug_line    0x0000000000010fef      0x258 /home/jfb/nacl_sdk/pepper_42/toolchain/linux_x86_newlib/bin/../lib/gcc/x86_64-nacl/4.4.3/../../../../x86_64-nacl/lib/../lib32/libstdc++.a(new_op.o)
 .debug_line    0x0000000000011247      0x1c5 /home/jfb/nacl_sdk/pepper_42/toolchain/linux_x86_newlib/bin/../lib/gcc/x86_64-nacl/4.4.3/../../../../x86_64-nacl/lib/../lib32/libstdc++.a(tinfo.o)
 .debug_line    0x000000000001140c      0xd80 /home/jfb/nacl_sdk/pepper_42/toolchain/linux_x86_newlib/bin/../lib/gcc/x86_64-nacl/4.4.3/../../../../x86_64-nacl/lib/../lib32/libstdc++.a(functexcept.o)
 .debug_line    0x000000000001218c      0x868 /home/jfb/nacl_sdk/pepper_42/toolchain/linux_x86_newlib/bin/../lib/gcc/x86_64-nacl/4.4.3/../../../../x86_64-nacl/lib/../lib32/libstdc++.a(ios_failure.o)
 .debug_line    0x00000000000129f4      0xac3 /home/jfb/nacl_sdk/pepper_42/toolchain/linux_x86_newlib/bin/../lib/gcc/x86_64-nacl/4.4.3/../../../../x86_64-nacl/lib/../lib32/libstdc++.a(stdexcept.o)
 .debug_line    0x00000000000134b7      0x96d /home/jfb/nacl_sdk/pepper_42/toolchain/linux_x86_newlib/bin/../lib/gcc/x86_64-nacl/4.4.3/../../../../x86_64-nacl/lib/../lib32/libstdc++.a(system_error.o)
 .debug_line    0x0000000000013e24      0x1c1 /home/jfb/nacl_sdk/pepper_42/toolchain/linux_x86_newlib/bin/../lib/gcc/x86_64-nacl/4.4.3/../../../../x86_64-nacl/lib/../lib32/libstdc++.a(eh_unex_handler.o)
 .debug_line    0x0000000000013fe5      0x1c1 /home/jfb/nacl_sdk/pepper_42/toolchain/linux_x86_newlib/bin/../lib/gcc/x86_64-nacl/4.4.3/../../../../x86_64-nacl/lib/../lib32/libstdc++.a(eh_term_handler.o)
 .debug_line    0x00000000000141a6       0xe8 /home/jfb/nacl_sdk/pepper_42/toolchain/linux_x86_newlib/bin/../lib/gcc/x86_64-nacl/4.4.3/../../../../x86_64-nacl/lib/../lib32/libstdc++.a(bad_typeid.o)
 .debug_line    0x000000000001428e      0x185 /home/jfb/nacl_sdk/pepper_42/toolchain/linux_x86_newlib/bin/../lib/gcc/x86_64-nacl/4.4.3/../../../../x86_64-nacl/lib/../lib32/libstdc++.a(new_handler.o)
 .debug_line    0x0000000000014413       0xe6 /home/jfb/nacl_sdk/pepper_42/toolchain/linux_x86_newlib/bin/../lib/gcc/x86_64-nacl/4.4.3/../../../../x86_64-nacl/lib/../lib32/libstdc++.a(bad_cast.o)
 .debug_line    0x00000000000144f9      0x3ce /home/jfb/nacl_sdk/pepper_42/toolchain/linux_x86_newlib/bin/../lib/gcc/x86_64-nacl/4.4.3/../../../../x86_64-nacl/lib/../lib32/libstdc++.a(vterminate.o)
 .debug_line    0x00000000000148c7     0x12dc /home/jfb/nacl_sdk/pepper_42/toolchain/linux_x86_newlib/bin/../lib/gcc/x86_64-nacl/4.4.3/../../../../x86_64-nacl/lib/../lib32/libstdc++.a(cp-demangle.o)
 .debug_line    0x0000000000015ba3      0x1e4 /home/jfb/nacl_sdk/pepper_42/toolchain/linux_x86_newlib/bin/../lib/gcc/x86_64-nacl/4.4.3/../../../../x86_64-nacl/lib/../lib32/libstdc++.a(eh_type.o)
 .debug_line    0x0000000000015d87      0xf59 /home/jfb/nacl_sdk/pepper_42/toolchain/linux_x86_newlib/bin/../lib/gcc/x86_64-nacl/4.4.3/32/libgcc.a(unwind-dw2.o)
 .debug_line    0x0000000000016ce0      0x8e0 /home/jfb/nacl_sdk/pepper_42/toolchain/linux_x86_newlib/bin/../lib/gcc/x86_64-nacl/4.4.3/32/libgcc.a(unwind-dw2-fde-glibc.o)
 .debug_line    0x00000000000175c0      0x2da /home/jfb/nacl_sdk/pepper_42/toolchain/linux_x86_newlib/bin/../lib/gcc/x86_64-nacl/4.4.3/../../../../x86_64-nacl/lib/../lib32/libnacl.a(_exit_710c7d0d.o)
 .debug_line    0x000000000001789a       0xe3 /home/jfb/nacl_sdk/pepper_42/toolchain/linux_x86_newlib/bin/../lib/gcc/x86_64-nacl/4.4.3/../../../../x86_64-nacl/lib/../lib32/libnacl.a(abort_9f6b5845.o)
 .debug_line    0x000000000001797d       0x30 /home/jfb/nacl_sdk/pepper_42/toolchain/linux_x86_newlib/bin/../lib/gcc/x86_64-nacl/4.4.3/../../../../x86_64-nacl/lib/../lib32/libnacl.a(environ_25cd24d8.o)
 .debug_line    0x00000000000179ad      0x2ef /home/jfb/nacl_sdk/pepper_42/toolchain/linux_x86_newlib/bin/../lib/gcc/x86_64-nacl/4.4.3/../../../../x86_64-nacl/lib/../lib32/libnacl.a(start_fa9ef7de.o)
 .debug_line    0x0000000000017c9c      0xcf7 /home/jfb/nacl_sdk/pepper_42/toolchain/linux_x86_newlib/bin/../lib/gcc/x86_64-nacl/4.4.3/../../../../x86_64-nacl/lib/../lib32/libnacl.a(malloc_222c4a1e.o)
 .debug_line    0x0000000000018993      0x39d /home/jfb/nacl_sdk/pepper_42/toolchain/linux_x86_newlib/bin/../lib/gcc/x86_64-nacl/4.4.3/../../../../x86_64-nacl/lib/../lib32/libnacl.a(nacl_irt_6de1d53f.o)
 .debug_line    0x0000000000018d30       0xef /home/jfb/nacl_sdk/pepper_42/toolchain/linux_x86_newlib/bin/../lib/gcc/x86_64-nacl/4.4.3/../../../../x86_64-nacl/lib/../lib32/libnacl.a(pthread_initialize_minimal_4b6e776b.o)
 .debug_line    0x0000000000018e1f       0x40 /home/jfb/nacl_sdk/pepper_42/toolchain/linux_x86_newlib/bin/../lib/gcc/x86_64-nacl/4.4.3/../../../../x86_64-nacl/lib/../lib32/libnacl.a(nacl_read_tp_5748ac47.o)
 .debug_line    0x0000000000018e5f      0x36a /home/jfb/nacl_sdk/pepper_42/toolchain/linux_x86_newlib/bin/../lib/gcc/x86_64-nacl/4.4.3/../../../../x86_64-nacl/lib/../lib32/libnacl.a(mmap_767fb080.o)
 .debug_line    0x00000000000191c9      0x2e8 /home/jfb/nacl_sdk/pepper_42/toolchain/linux_x86_newlib/bin/../lib/gcc/x86_64-nacl/4.4.3/../../../../x86_64-nacl/lib/../lib32/libnacl.a(sched_yield_56c375be.o)
 .debug_line    0x00000000000194b1      0x352 /home/jfb/nacl_sdk/pepper_42/toolchain/linux_x86_newlib/bin/../lib/gcc/x86_64-nacl/4.4.3/../../../../x86_64-nacl/lib/../lib32/libnacl.a(munmap_d4f09867.o)
 .debug_line    0x0000000000019803      0x326 /home/jfb/nacl_sdk/pepper_42/toolchain/linux_x86_newlib/bin/../lib/gcc/x86_64-nacl/4.4.3/../../../../x86_64-nacl/lib/../lib32/libnacl.a(tls_bba1975b.o)
 .debug_line    0x0000000000019b29      0x355 /home/jfb/nacl_sdk/pepper_42/toolchain/linux_x86_newlib/bin/../lib/gcc/x86_64-nacl/4.4.3/../../../../x86_64-nacl/lib/../lib32/libnacl.a(write_fb49787f.o)
 .debug_line    0x0000000000019e7e       0xb1 /home/jfb/nacl_sdk/pepper_42/toolchain/linux_x86_newlib/bin/../lib/gcc/x86_64-nacl/4.4.3/../../../../x86_64-nacl/lib/../lib32/libnacl.a(nacl_tls_get_d2f842b5.o)
 .debug_line    0x0000000000019f2f      0x3c9 /home/jfb/nacl_sdk/pepper_42/toolchain/linux_x86_newlib/bin/../lib/gcc/x86_64-nacl/4.4.3/../../../../x86_64-nacl/lib/../lib32/libnacl.a(nacl_irt_init_7b4f826e.o)
 .debug_line    0x000000000001a2f8      0x2e6 /home/jfb/nacl_sdk/pepper_42/toolchain/linux_x86_newlib/bin/../lib/gcc/x86_64-nacl/4.4.3/../../../../x86_64-nacl/lib/../lib32/libnacl.a(sysconf_ad295ea2.o)
 .debug_line    0x000000000001a5de       0xb2 /home/jfb/nacl_sdk/pepper_42/toolchain/linux_x86_newlib/bin/../lib/gcc/x86_64-nacl/4.4.3/../../../../x86_64-nacl/lib/../lib32/libnacl.a(nacl_tls_init_eb0cd232.o)
 .debug_line    0x000000000001a690      0x353 /home/jfb/nacl_sdk/pepper_42/toolchain/linux_x86_newlib/bin/../lib/gcc/x86_64-nacl/4.4.3/../../../../x86_64-nacl/lib/../lib32/libnacl.a(close_e9b92fbd.o)
 .debug_line    0x000000000001a9e3      0x375 /home/jfb/nacl_sdk/pepper_42/toolchain/linux_x86_newlib/bin/../lib/gcc/x86_64-nacl/4.4.3/../../../../x86_64-nacl/lib/../lib32/libnacl.a(isatty_02f56e94.o)
 .debug_line    0x000000000001ad58      0x368 /home/jfb/nacl_sdk/pepper_42/toolchain/linux_x86_newlib/bin/../lib/gcc/x86_64-nacl/4.4.3/../../../../x86_64-nacl/lib/../lib32/libnacl.a(nacl_irt_fdio_b571b5e7.o)
 .debug_line    0x000000000001b0c0      0x368 /home/jfb/nacl_sdk/pepper_42/toolchain/linux_x86_newlib/bin/../lib/gcc/x86_64-nacl/4.4.3/../../../../x86_64-nacl/lib/../lib32/libnacl.a(fstat_0540ff63.o)
 .debug_line    0x000000000001b428      0x36c /home/jfb/nacl_sdk/pepper_42/toolchain/linux_x86_newlib/bin/../lib/gcc/x86_64-nacl/4.4.3/../../../../x86_64-nacl/lib/../lib32/libnacl.a(lseek_64d2d05c.o)
 .debug_line    0x000000000001b794      0x354 /home/jfb/nacl_sdk/pepper_42/toolchain/linux_x86_newlib/bin/../lib/gcc/x86_64-nacl/4.4.3/../../../../x86_64-nacl/lib/../lib32/libnacl.a(read_df872e10.o)
 .debug_line    0x000000000001bae8      0x102 /home/jfb/nacl_sdk/pepper_42/toolchain/linux_x86_newlib/bin/../lib/gcc/x86_64-nacl/4.4.3/32/libgcc.a(_udivdi3.o)
 .debug_line    0x000000000001bbea      0x112 /home/jfb/nacl_sdk/pepper_42/toolchain/linux_x86_newlib/bin/../lib/gcc/x86_64-nacl/4.4.3/32/libgcc.a(_umoddi3.o)

.debug_frame    0x0000000000000000      0x450
 *(.debug_frame)
 .debug_frame   0x0000000000000000      0x450 /home/jfb/nacl_sdk/pepper_42/toolchain/linux_x86_newlib/bin/../lib/gcc/x86_64-nacl/4.4.3/../../../../x86_64-nacl/lib/../lib32/libstdc++.a(cp-demangle.o)

.debug_str      0x0000000000000000    0x1e7fb
 *(.debug_str)
 .debug_str     0x0000000000000000      0xa8a newlib/Release/multi_platform_x86_32.o
                                        0xcbc (size before relaxing)
 .debug_str     0x0000000000000a8a     0x69ff /home/jfb/nacl_sdk/pepper_42//lib/newlib_x86_32/Release/libppapi_cpp.a(instance_x86_32.o)
                                       0x7911 (size before relaxing)
 .debug_str     0x0000000000007489     0x7624 /home/jfb/nacl_sdk/pepper_42//lib/newlib_x86_32/Release/libppapi_cpp.a(module_x86_32.o)
                                       0xaa70 (size before relaxing)
 .debug_str     0x000000000000eaad       0xdb /home/jfb/nacl_sdk/pepper_42//lib/newlib_x86_32/Release/libppapi_cpp.a(ppp_entrypoints_x86_32.o)
                                       0x1019 (size before relaxing)
 .debug_str     0x000000000000eb88      0x174 /home/jfb/nacl_sdk/pepper_42//lib/newlib_x86_32/Release/libppapi_cpp.a(resource_x86_32.o)
                                        0xf77 (size before relaxing)
 .debug_str     0x000000000000ecfc     0x1049 /home/jfb/nacl_sdk/pepper_42//lib/newlib_x86_32/Release/libppapi_cpp.a(url_loader_x86_32.o)
                                       0x24f5 (size before relaxing)
 .debug_str     0x000000000000fd45       0xbe /home/jfb/nacl_sdk/pepper_42//lib/newlib_x86_32/Release/libppapi_cpp.a(url_response_info_x86_32.o)
                                       0x14ac (size before relaxing)
 .debug_str     0x000000000000fe03      0x4af /home/jfb/nacl_sdk/pepper_42//lib/newlib_x86_32/Release/libppapi_cpp.a(var_x86_32.o)
                                       0x2a65 (size before relaxing)
 .debug_str     0x00000000000102b2      0x13f /home/jfb/nacl_sdk/pepper_42//lib/newlib_x86_32/Release/libppapi_cpp.a(view_x86_32.o)
                                       0x1583 (size before relaxing)
 .debug_str     0x00000000000103f1       0x1e /home/jfb/nacl_sdk/pepper_42//lib/newlib_x86_32/Release/libppapi_cpp.a(core_x86_32.o)
                                        0xeea (size before relaxing)
 .debug_str     0x000000000001040f     0x1996 /home/jfb/nacl_sdk/pepper_42//lib/newlib_x86_32/Release/libppapi_cpp.a(file_ref_x86_32.o)
                                       0x3375 (size before relaxing)
 .debug_str     0x0000000000011da5     0x1aec /home/jfb/nacl_sdk/pepper_42//lib/newlib_x86_32/Release/libppapi_cpp.a(input_event_x86_32.o)
                                       0x32fa (size before relaxing)
 .debug_str     0x0000000000013891       0xcd /home/jfb/nacl_sdk/pepper_42/toolchain/linux_x86_newlib/bin/../lib/gcc/x86_64-nacl/4.4.3/../../../../x86_64-nacl/lib/../lib32/libppapi_stub.a(plugin_main_irt_21ce9d26.o)
                                        0x156 (size before relaxing)
 .debug_str     0x000000000001395e       0x50 /home/jfb/nacl_sdk/pepper_42/toolchain/linux_x86_newlib/bin/../lib/gcc/x86_64-nacl/4.4.3/../../../../x86_64-nacl/lib/../lib32/libppapi_stub.a(ppapi_plugin_main_399d0cf7.o)
                                        0x1e3 (size before relaxing)
 .debug_str     0x00000000000139ae       0xf9 /home/jfb/nacl_sdk/pepper_42/toolchain/linux_x86_newlib/bin/../lib/gcc/x86_64-nacl/4.4.3/../../../../x86_64-nacl/lib/../lib32/libppapi_stub.a(ppapi_plugin_start_8da67623.o)
                                        0x302 (size before relaxing)
 .debug_str     0x0000000000013aa7       0x64 /home/jfb/nacl_sdk/pepper_42/toolchain/linux_x86_newlib/bin/../lib/gcc/x86_64-nacl/4.4.3/../../../../x86_64-nacl/lib/../lib32/libppapi_stub.a(thread_creator_ccf263e1.o)
                                        0x2a6 (size before relaxing)
 .debug_str     0x0000000000013b0b      0x906 /home/jfb/nacl_sdk/pepper_42/toolchain/linux_x86_newlib/bin/../lib/gcc/x86_64-nacl/4.4.3/../../../../x86_64-nacl/lib/../lib32/libpthread.a(nc_thread_7e478b15.o)
                                        0xb83 (size before relaxing)
 .debug_str     0x0000000000014411      0x123 /home/jfb/nacl_sdk/pepper_42/toolchain/linux_x86_newlib/bin/../lib/gcc/x86_64-nacl/4.4.3/../../../../x86_64-nacl/lib/../lib32/libpthread.a(nc_condvar_305aa45a.o)
                                        0x477 (size before relaxing)
 .debug_str     0x0000000000014534      0x48c /home/jfb/nacl_sdk/pepper_42/toolchain/linux_x86_newlib/bin/../lib/gcc/x86_64-nacl/4.4.3/../../../../x86_64-nacl/lib/../lib32/libpthread.a(dynamic_annotations_33ba59cc.o)
                                        0x611 (size before relaxing)
 .debug_str     0x00000000000149c0      0x1b2 /home/jfb/nacl_sdk/pepper_42/toolchain/linux_x86_newlib/bin/../lib/gcc/x86_64-nacl/4.4.3/../../../../x86_64-nacl/lib/../lib32/libpthread.a(nc_mutex_86341ae1.o)
                                        0x637 (size before relaxing)
 .debug_str     0x0000000000014b72       0x29 /home/jfb/nacl_sdk/pepper_42/toolchain/linux_x86_newlib/bin/../lib/gcc/x86_64-nacl/4.4.3/../../../../x86_64-nacl/lib/../lib32/libpthread.a(nc_init_irt_d3daafc0.o)
                                        0x235 (size before relaxing)
 .debug_str     0x0000000000014b9b      0x2f6 /home/jfb/nacl_sdk/pepper_42/toolchain/linux_x86_newlib/bin/../lib/gcc/x86_64-nacl/4.4.3/../../../../x86_64-nacl/lib/../lib32/libstdc++.a(tree.o)
                                        0x537 (size before relaxing)
 .debug_str     0x0000000000014e91     0x1a7e /home/jfb/nacl_sdk/pepper_42/toolchain/linux_x86_newlib/bin/../lib/gcc/x86_64-nacl/4.4.3/../../../../x86_64-nacl/lib/../lib32/libstdc++.a(string-inst.o)
                                       0x3e8e (size before relaxing)
 .debug_str     0x000000000001690f      0x852 /home/jfb/nacl_sdk/pepper_42/toolchain/linux_x86_newlib/bin/../lib/gcc/x86_64-nacl/4.4.3/../../../../x86_64-nacl/lib/../lib32/libstdc++.a(eh_personality.o)
                                        0xafe (size before relaxing)
 .debug_str     0x0000000000017161      0x18b /home/jfb/nacl_sdk/pepper_42/toolchain/linux_x86_newlib/bin/../lib/gcc/x86_64-nacl/4.4.3/../../../../x86_64-nacl/lib/../lib32/libstdc++.a(eh_globals.o)
                                        0x71a (size before relaxing)
 .debug_str     0x00000000000172ec      0x19e /home/jfb/nacl_sdk/pepper_42/toolchain/linux_x86_newlib/bin/../lib/gcc/x86_64-nacl/4.4.3/../../../../x86_64-nacl/lib/../lib32/libstdc++.a(eh_throw.o)
                                        0x5e9 (size before relaxing)
 .debug_str     0x000000000001748a       0x71 /home/jfb/nacl_sdk/pepper_42/toolchain/linux_x86_newlib/bin/../lib/gcc/x86_64-nacl/4.4.3/../../../../x86_64-nacl/lib/../lib32/libstdc++.a(del_op.o)
                                        0x2aa (size before relaxing)
 .debug_str     0x00000000000174fb       0x80 /home/jfb/nacl_sdk/pepper_42/toolchain/linux_x86_newlib/bin/../lib/gcc/x86_64-nacl/4.4.3/../../../../x86_64-nacl/lib/../lib32/libstdc++.a(eh_call.o)
                                        0x594 (size before relaxing)
 .debug_str     0x000000000001757b      0x420 /home/jfb/nacl_sdk/pepper_42/toolchain/linux_x86_newlib/bin/../lib/gcc/x86_64-nacl/4.4.3/../../../../x86_64-nacl/lib/../lib32/libstdc++.a(guard.o)
                                        0x758 (size before relaxing)
 .debug_str     0x000000000001799b      0x4c8 /home/jfb/nacl_sdk/pepper_42/toolchain/linux_x86_newlib/bin/../lib/gcc/x86_64-nacl/4.4.3/../../../../x86_64-nacl/lib/../lib32/libstdc++.a(si_class_type_info.o)
                                        0x655 (size before relaxing)
 .debug_str     0x0000000000017e63      0x142 /home/jfb/nacl_sdk/pepper_42/toolchain/linux_x86_newlib/bin/../lib/gcc/x86_64-nacl/4.4.3/../../../../x86_64-nacl/lib/../lib32/libstdc++.a(eh_terminate.o)
                                        0x489 (size before relaxing)
 .debug_str     0x0000000000017fa5      0x2bc /home/jfb/nacl_sdk/pepper_42/toolchain/linux_x86_newlib/bin/../lib/gcc/x86_64-nacl/4.4.3/../../../../x86_64-nacl/lib/../lib32/libstdc++.a(class_type_info.o)
                                        0x6c7 (size before relaxing)
 .debug_str     0x0000000000018261      0x267 /home/jfb/nacl_sdk/pepper_42/toolchain/linux_x86_newlib/bin/../lib/gcc/x86_64-nacl/4.4.3/../../../../x86_64-nacl/lib/../lib32/libstdc++.a(eh_alloc.o)
                                        0xa89 (size before relaxing)
 .debug_str     0x00000000000184c8      0x104 /home/jfb/nacl_sdk/pepper_42/toolchain/linux_x86_newlib/bin/../lib/gcc/x86_64-nacl/4.4.3/../../../../x86_64-nacl/lib/../lib32/libstdc++.a(eh_catch.o)
                                        0x663 (size before relaxing)
 .debug_str     0x00000000000185cc      0x198 /home/jfb/nacl_sdk/pepper_42/toolchain/linux_x86_newlib/bin/../lib/gcc/x86_64-nacl/4.4.3/../../../../x86_64-nacl/lib/../lib32/libstdc++.a(eh_exception.o)
                                        0x309 (size before relaxing)
 .debug_str     0x0000000000018764       0x7b /home/jfb/nacl_sdk/pepper_42/toolchain/linux_x86_newlib/bin/../lib/gcc/x86_64-nacl/4.4.3/../../../../x86_64-nacl/lib/../lib32/libstdc++.a(pure.o)
                                        0x250 (size before relaxing)
 .debug_str     0x00000000000187df       0x7e /home/jfb/nacl_sdk/pepper_42/toolchain/linux_x86_newlib/bin/../lib/gcc/x86_64-nacl/4.4.3/../../../../x86_64-nacl/lib/../lib32/libstdc++.a(new_op.o)
                                        0x2e1 (size before relaxing)
 .debug_str     0x000000000001885d      0x1b9 /home/jfb/nacl_sdk/pepper_42/toolchain/linux_x86_newlib/bin/../lib/gcc/x86_64-nacl/4.4.3/../../../../x86_64-nacl/lib/../lib32/libstdc++.a(tinfo.o)
                                        0x3f4 (size before relaxing)
 .debug_str     0x0000000000018a16     0x1425 /home/jfb/nacl_sdk/pepper_42/toolchain/linux_x86_newlib/bin/../lib/gcc/x86_64-nacl/4.4.3/../../../../x86_64-nacl/lib/../lib32/libstdc++.a(functexcept.o)
                                       0x3bf5 (size before relaxing)
 .debug_str     0x0000000000019e3b       0xa1 /home/jfb/nacl_sdk/pepper_42/toolchain/linux_x86_newlib/bin/../lib/gcc/x86_64-nacl/4.4.3/../../../../x86_64-nacl/lib/../lib32/libstdc++.a(ios_failure.o)
                                       0x3074 (size before relaxing)
 .debug_str     0x0000000000019edc       0xbb /home/jfb/nacl_sdk/pepper_42/toolchain/linux_x86_newlib/bin/../lib/gcc/x86_64-nacl/4.4.3/../../../../x86_64-nacl/lib/../lib32/libstdc++.a(stdexcept.o)
                                       0x21c7 (size before relaxing)
 .debug_str     0x0000000000019f97      0x4dc /home/jfb/nacl_sdk/pepper_42/toolchain/linux_x86_newlib/bin/../lib/gcc/x86_64-nacl/4.4.3/../../../../x86_64-nacl/lib/../lib32/libstdc++.a(system_error.o)
                                       0x2c8c (size before relaxing)
 .debug_str     0x000000000001a473       0x73 /home/jfb/nacl_sdk/pepper_42/toolchain/linux_x86_newlib/bin/../lib/gcc/x86_64-nacl/4.4.3/../../../../x86_64-nacl/lib/../lib32/libstdc++.a(eh_unex_handler.o)
                                        0x256 (size before relaxing)
 .debug_str     0x000000000001a4e6       0x73 /home/jfb/nacl_sdk/pepper_42/toolchain/linux_x86_newlib/bin/../lib/gcc/x86_64-nacl/4.4.3/../../../../x86_64-nacl/lib/../lib32/libstdc++.a(eh_term_handler.o)
                                        0x253 (size before relaxing)
 .debug_str     0x000000000001a559       0x94 /home/jfb/nacl_sdk/pepper_42/toolchain/linux_x86_newlib/bin/../lib/gcc/x86_64-nacl/4.4.3/../../../../x86_64-nacl/lib/../lib32/libstdc++.a(bad_typeid.o)
                                        0x1a8 (size before relaxing)
 .debug_str     0x000000000001a5ed       0xca /home/jfb/nacl_sdk/pepper_42/toolchain/linux_x86_newlib/bin/../lib/gcc/x86_64-nacl/4.4.3/../../../../x86_64-nacl/lib/../lib32/libstdc++.a(new_handler.o)
                                        0x22b (size before relaxing)
 .debug_str     0x000000000001a6b7       0x8d /home/jfb/nacl_sdk/pepper_42/toolchain/linux_x86_newlib/bin/../lib/gcc/x86_64-nacl/4.4.3/../../../../x86_64-nacl/lib/../lib32/libstdc++.a(bad_cast.o)
                                        0x19f (size before relaxing)
 .debug_str     0x000000000001a744      0x177 /home/jfb/nacl_sdk/pepper_42/toolchain/linux_x86_newlib/bin/../lib/gcc/x86_64-nacl/4.4.3/../../../../x86_64-nacl/lib/../lib32/libstdc++.a(vterminate.o)
                                        0x83f (size before relaxing)
 .debug_str     0x000000000001a8bb     0x110a /home/jfb/nacl_sdk/pepper_42/toolchain/linux_x86_newlib/bin/../lib/gcc/x86_64-nacl/4.4.3/../../../../x86_64-nacl/lib/../lib32/libstdc++.a(cp-demangle.o)
                                       0x13cc (size before relaxing)
 .debug_str     0x000000000001b9c5       0x88 /home/jfb/nacl_sdk/pepper_42/toolchain/linux_x86_newlib/bin/../lib/gcc/x86_64-nacl/4.4.3/../../../../x86_64-nacl/lib/../lib32/libstdc++.a(eh_type.o)
                                        0x52e (size before relaxing)
 .debug_str     0x000000000001ba4d     0x18d4 /home/jfb/nacl_sdk/pepper_42/toolchain/linux_x86_newlib/bin/../lib/gcc/x86_64-nacl/4.4.3/32/libgcc.a(unwind-dw2.o)
                                       0x1dd9 (size before relaxing)
 .debug_str     0x000000000001d321      0x3ec /home/jfb/nacl_sdk/pepper_42/toolchain/linux_x86_newlib/bin/../lib/gcc/x86_64-nacl/4.4.3/32/libgcc.a(unwind-dw2-fde-glibc.o)
                                        0xe9b (size before relaxing)
 .debug_str     0x000000000001d70d       0xa4 /home/jfb/nacl_sdk/pepper_42/toolchain/linux_x86_newlib/bin/../lib/gcc/x86_64-nacl/4.4.3/../../../../x86_64-nacl/lib/../lib32/libnacl.a(_exit_710c7d0d.o)
                                        0x1ef (size before relaxing)
 .debug_str     0x000000000001d7b1        0x8 /home/jfb/nacl_sdk/pepper_42/toolchain/linux_x86_newlib/bin/../lib/gcc/x86_64-nacl/4.4.3/../../../../x86_64-nacl/lib/../lib32/libnacl.a(abort_9f6b5845.o)
                                        0x14b (size before relaxing)
 .debug_str     0x000000000001d7b9       0x16 /home/jfb/nacl_sdk/pepper_42/toolchain/linux_x86_newlib/bin/../lib/gcc/x86_64-nacl/4.4.3/../../../../x86_64-nacl/lib/../lib32/libnacl.a(environ_25cd24d8.o)
                                         0xcf (size before relaxing)
 .debug_str     0x000000000001d7cf      0x112 /home/jfb/nacl_sdk/pepper_42/toolchain/linux_x86_newlib/bin/../lib/gcc/x86_64-nacl/4.4.3/../../../../x86_64-nacl/lib/../lib32/libnacl.a(start_fa9ef7de.o)
                                        0x2ba (size before relaxing)
 .debug_str     0x000000000001d8e1      0x694 /home/jfb/nacl_sdk/pepper_42/toolchain/linux_x86_newlib/bin/../lib/gcc/x86_64-nacl/4.4.3/../../../../x86_64-nacl/lib/../lib32/libnacl.a(malloc_222c4a1e.o)
                                        0xd16 (size before relaxing)
 .debug_str     0x000000000001df75      0x298 /home/jfb/nacl_sdk/pepper_42/toolchain/linux_x86_newlib/bin/../lib/gcc/x86_64-nacl/4.4.3/../../../../x86_64-nacl/lib/../lib32/libnacl.a(nacl_irt_6de1d53f.o)
                                        0x5c4 (size before relaxing)
 .debug_str     0x000000000001e20d       0x3a /home/jfb/nacl_sdk/pepper_42/toolchain/linux_x86_newlib/bin/../lib/gcc/x86_64-nacl/4.4.3/../../../../x86_64-nacl/lib/../lib32/libnacl.a(pthread_initialize_minimal_4b6e776b.o)
                                        0x19b (size before relaxing)
 .debug_str     0x000000000001e247       0x1e /home/jfb/nacl_sdk/pepper_42/toolchain/linux_x86_newlib/bin/../lib/gcc/x86_64-nacl/4.4.3/../../../../x86_64-nacl/lib/../lib32/libnacl.a(nacl_read_tp_5748ac47.o)
                                        0x153 (size before relaxing)
 .debug_str     0x000000000001e265       0x11 /home/jfb/nacl_sdk/pepper_42/toolchain/linux_x86_newlib/bin/../lib/gcc/x86_64-nacl/4.4.3/../../../../x86_64-nacl/lib/../lib32/libnacl.a(mmap_767fb080.o)
                                        0x1d5 (size before relaxing)
 .debug_str     0x000000000001e276        0xe /home/jfb/nacl_sdk/pepper_42/toolchain/linux_x86_newlib/bin/../lib/gcc/x86_64-nacl/4.4.3/../../../../x86_64-nacl/lib/../lib32/libnacl.a(sched_yield_56c375be.o)
                                        0x1ee (size before relaxing)
 .debug_str     0x000000000001e284        0x9 /home/jfb/nacl_sdk/pepper_42/toolchain/linux_x86_newlib/bin/../lib/gcc/x86_64-nacl/4.4.3/../../../../x86_64-nacl/lib/../lib32/libnacl.a(munmap_d4f09867.o)
                                        0x1b3 (size before relaxing)
 .debug_str     0x000000000001e28d      0x2ca /home/jfb/nacl_sdk/pepper_42/toolchain/linux_x86_newlib/bin/../lib/gcc/x86_64-nacl/4.4.3/../../../../x86_64-nacl/lib/../lib32/libnacl.a(tls_bba1975b.o)
                                        0x4b2 (size before relaxing)
 .debug_str     0x000000000001e557        0x8 /home/jfb/nacl_sdk/pepper_42/toolchain/linux_x86_newlib/bin/../lib/gcc/x86_64-nacl/4.4.3/../../../../x86_64-nacl/lib/../lib32/libnacl.a(write_fb49787f.o)
                                        0x1d4 (size before relaxing)
 .debug_str     0x000000000001e55f       0x1c /home/jfb/nacl_sdk/pepper_42/toolchain/linux_x86_newlib/bin/../lib/gcc/x86_64-nacl/4.4.3/../../../../x86_64-nacl/lib/../lib32/libnacl.a(nacl_tls_get_d2f842b5.o)
                                        0x181 (size before relaxing)
 .debug_str     0x000000000001e57b       0x65 /home/jfb/nacl_sdk/pepper_42/toolchain/linux_x86_newlib/bin/../lib/gcc/x86_64-nacl/4.4.3/../../../../x86_64-nacl/lib/../lib32/libnacl.a(nacl_irt_init_7b4f826e.o)
                                        0x392 (size before relaxing)
 .debug_str     0x000000000001e5e0        0xa /home/jfb/nacl_sdk/pepper_42/toolchain/linux_x86_newlib/bin/../lib/gcc/x86_64-nacl/4.4.3/../../../../x86_64-nacl/lib/../lib32/libnacl.a(sysconf_ad295ea2.o)
                                        0x1f5 (size before relaxing)
 .debug_str     0x000000000001e5ea       0x29 /home/jfb/nacl_sdk/pepper_42/toolchain/linux_x86_newlib/bin/../lib/gcc/x86_64-nacl/4.4.3/../../../../x86_64-nacl/lib/../lib32/libnacl.a(nacl_tls_init_eb0cd232.o)
                                        0x18e (size before relaxing)
 .debug_str     0x000000000001e613        0x8 /home/jfb/nacl_sdk/pepper_42/toolchain/linux_x86_newlib/bin/../lib/gcc/x86_64-nacl/4.4.3/../../../../x86_64-nacl/lib/../lib32/libnacl.a(close_e9b92fbd.o)
                                        0x1c7 (size before relaxing)
 .debug_str     0x000000000001e61b        0x9 /home/jfb/nacl_sdk/pepper_42/toolchain/linux_x86_newlib/bin/../lib/gcc/x86_64-nacl/4.4.3/../../../../x86_64-nacl/lib/../lib32/libnacl.a(isatty_02f56e94.o)
                                        0x208 (size before relaxing)
 .debug_str     0x000000000001e624       0x2c /home/jfb/nacl_sdk/pepper_42/toolchain/linux_x86_newlib/bin/../lib/gcc/x86_64-nacl/4.4.3/../../../../x86_64-nacl/lib/../lib32/libnacl.a(nacl_irt_fdio_b571b5e7.o)
                                        0x21e (size before relaxing)
 .debug_str     0x000000000001e650       0xdd /home/jfb/nacl_sdk/pepper_42/toolchain/linux_x86_newlib/bin/../lib/gcc/x86_64-nacl/4.4.3/../../../../x86_64-nacl/lib/../lib32/libnacl.a(fstat_0540ff63.o)
                                        0x328 (size before relaxing)
 .debug_str     0x000000000001e72d        0xe /home/jfb/nacl_sdk/pepper_42/toolchain/linux_x86_newlib/bin/../lib/gcc/x86_64-nacl/4.4.3/../../../../x86_64-nacl/lib/../lib32/libnacl.a(lseek_64d2d05c.o)
                                        0x1ef (size before relaxing)
 .debug_str     0x0000000000000000        0xe /home/jfb/nacl_sdk/pepper_42/toolchain/linux_x86_newlib/bin/../lib/gcc/x86_64-nacl/4.4.3/../../../../x86_64-nacl/lib/../lib32/libnacl.a(read_df872e10.o)
                                        0x1d2 (size before relaxing)
 .debug_str     0x000000000001e73b       0xb6 /home/jfb/nacl_sdk/pepper_42/toolchain/linux_x86_newlib/bin/../lib/gcc/x86_64-nacl/4.4.3/32/libgcc.a(_udivdi3.o)
                                        0x221 (size before relaxing)
 .debug_str     0x000000000001e7f1        0xa /home/jfb/nacl_sdk/pepper_42/toolchain/linux_x86_newlib/bin/../lib/gcc/x86_64-nacl/4.4.3/32/libgcc.a(_umoddi3.o)
                                        0x221 (size before relaxing)

.debug_loc      0x0000000000000000    0x221be
 *(.debug_loc)
 .debug_loc     0x0000000000000000      0x174 newlib/Release/multi_platform_x86_32.o
 .debug_loc     0x0000000000000174     0x157b /home/jfb/nacl_sdk/pepper_42//lib/newlib_x86_32/Release/libppapi_cpp.a(instance_x86_32.o)
 .debug_loc     0x00000000000016ef     0x18c7 /home/jfb/nacl_sdk/pepper_42//lib/newlib_x86_32/Release/libppapi_cpp.a(module_x86_32.o)
 .debug_loc     0x0000000000002fb6      0x1ac /home/jfb/nacl_sdk/pepper_42//lib/newlib_x86_32/Release/libppapi_cpp.a(ppp_entrypoints_x86_32.o)
 .debug_loc     0x0000000000003162      0x545 /home/jfb/nacl_sdk/pepper_42//lib/newlib_x86_32/Release/libppapi_cpp.a(resource_x86_32.o)
 .debug_loc     0x00000000000036a7      0x719 /home/jfb/nacl_sdk/pepper_42//lib/newlib_x86_32/Release/libppapi_cpp.a(url_loader_x86_32.o)
 .debug_loc     0x0000000000003dc0      0x1b8 /home/jfb/nacl_sdk/pepper_42//lib/newlib_x86_32/Release/libppapi_cpp.a(url_response_info_x86_32.o)
 .debug_loc     0x0000000000003f78      0xf4a /home/jfb/nacl_sdk/pepper_42//lib/newlib_x86_32/Release/libppapi_cpp.a(var_x86_32.o)
 .debug_loc     0x0000000000004ec2      0x6c5 /home/jfb/nacl_sdk/pepper_42//lib/newlib_x86_32/Release/libppapi_cpp.a(view_x86_32.o)
 .debug_loc     0x0000000000005587       0x58 /home/jfb/nacl_sdk/pepper_42//lib/newlib_x86_32/Release/libppapi_cpp.a(core_x86_32.o)
 .debug_loc     0x00000000000055df      0xef1 /home/jfb/nacl_sdk/pepper_42//lib/newlib_x86_32/Release/libppapi_cpp.a(file_ref_x86_32.o)
 .debug_loc     0x00000000000064d0     0x3387 /home/jfb/nacl_sdk/pepper_42//lib/newlib_x86_32/Release/libppapi_cpp.a(input_event_x86_32.o)
 .debug_loc     0x0000000000009857       0x2c /home/jfb/nacl_sdk/pepper_42/toolchain/linux_x86_newlib/bin/../lib/gcc/x86_64-nacl/4.4.3/../../../../x86_64-nacl/lib/../lib32/libppapi_stub.a(plugin_main_irt_21ce9d26.o)
 .debug_loc     0x0000000000009883       0x20 /home/jfb/nacl_sdk/pepper_42/toolchain/linux_x86_newlib/bin/../lib/gcc/x86_64-nacl/4.4.3/../../../../x86_64-nacl/lib/../lib32/libppapi_stub.a(ppapi_plugin_main_399d0cf7.o)
 .debug_loc     0x00000000000098a3       0xd0 /home/jfb/nacl_sdk/pepper_42/toolchain/linux_x86_newlib/bin/../lib/gcc/x86_64-nacl/4.4.3/../../../../x86_64-nacl/lib/../lib32/libppapi_stub.a(ppapi_plugin_start_8da67623.o)
 .debug_loc     0x0000000000009973       0x60 /home/jfb/nacl_sdk/pepper_42/toolchain/linux_x86_newlib/bin/../lib/gcc/x86_64-nacl/4.4.3/../../../../x86_64-nacl/lib/../lib32/libppapi_stub.a(thread_creator_ccf263e1.o)
 .debug_loc     0x00000000000099d3      0xbcd /home/jfb/nacl_sdk/pepper_42/toolchain/linux_x86_newlib/bin/../lib/gcc/x86_64-nacl/4.4.3/../../../../x86_64-nacl/lib/../lib32/libpthread.a(nc_thread_7e478b15.o)
 .debug_loc     0x000000000000a5a0      0x18c /home/jfb/nacl_sdk/pepper_42/toolchain/linux_x86_newlib/bin/../lib/gcc/x86_64-nacl/4.4.3/../../../../x86_64-nacl/lib/../lib32/libpthread.a(nc_condvar_305aa45a.o)
 .debug_loc     0x000000000000a72c       0x72 /home/jfb/nacl_sdk/pepper_42/toolchain/linux_x86_newlib/bin/../lib/gcc/x86_64-nacl/4.4.3/../../../../x86_64-nacl/lib/../lib32/libpthread.a(dynamic_annotations_33ba59cc.o)
 .debug_loc     0x000000000000a79e      0x2ff /home/jfb/nacl_sdk/pepper_42/toolchain/linux_x86_newlib/bin/../lib/gcc/x86_64-nacl/4.4.3/../../../../x86_64-nacl/lib/../lib32/libpthread.a(nc_mutex_86341ae1.o)
 .debug_loc     0x000000000000aa9d       0x20 /home/jfb/nacl_sdk/pepper_42/toolchain/linux_x86_newlib/bin/../lib/gcc/x86_64-nacl/4.4.3/../../../../x86_64-nacl/lib/../lib32/libpthread.a(nc_init_irt_d3daafc0.o)
 .debug_loc     0x000000000000aabd      0xc2f /home/jfb/nacl_sdk/pepper_42/toolchain/linux_x86_newlib/bin/../lib/gcc/x86_64-nacl/4.4.3/../../../../x86_64-nacl/lib/../lib32/libstdc++.a(tree.o)
 .debug_loc     0x000000000000b6ec     0x5351 /home/jfb/nacl_sdk/pepper_42/toolchain/linux_x86_newlib/bin/../lib/gcc/x86_64-nacl/4.4.3/../../../../x86_64-nacl/lib/../lib32/libstdc++.a(string-inst.o)
 .debug_loc     0x0000000000010a3d     0x113c /home/jfb/nacl_sdk/pepper_42/toolchain/linux_x86_newlib/bin/../lib/gcc/x86_64-nacl/4.4.3/../../../../x86_64-nacl/lib/../lib32/libstdc++.a(eh_personality.o)
 .debug_loc     0x0000000000011b79      0x217 /home/jfb/nacl_sdk/pepper_42/toolchain/linux_x86_newlib/bin/../lib/gcc/x86_64-nacl/4.4.3/../../../../x86_64-nacl/lib/../lib32/libstdc++.a(eh_globals.o)
 .debug_loc     0x0000000000011d90      0x15e /home/jfb/nacl_sdk/pepper_42/toolchain/linux_x86_newlib/bin/../lib/gcc/x86_64-nacl/4.4.3/../../../../x86_64-nacl/lib/../lib32/libstdc++.a(eh_throw.o)
 .debug_loc     0x0000000000011eee       0x56 /home/jfb/nacl_sdk/pepper_42/toolchain/linux_x86_newlib/bin/../lib/gcc/x86_64-nacl/4.4.3/../../../../x86_64-nacl/lib/../lib32/libstdc++.a(del_op.o)
 .debug_loc     0x0000000000011f44       0x4b /home/jfb/nacl_sdk/pepper_42/toolchain/linux_x86_newlib/bin/../lib/gcc/x86_64-nacl/4.4.3/../../../../x86_64-nacl/lib/../lib32/libstdc++.a(eh_call.o)
 .debug_loc     0x0000000000011f8f      0x31f /home/jfb/nacl_sdk/pepper_42/toolchain/linux_x86_newlib/bin/../lib/gcc/x86_64-nacl/4.4.3/../../../../x86_64-nacl/lib/../lib32/libstdc++.a(guard.o)
 .debug_loc     0x00000000000122ae      0x4f7 /home/jfb/nacl_sdk/pepper_42/toolchain/linux_x86_newlib/bin/../lib/gcc/x86_64-nacl/4.4.3/../../../../x86_64-nacl/lib/../lib32/libstdc++.a(si_class_type_info.o)
 .debug_loc     0x00000000000127a5      0x14e /home/jfb/nacl_sdk/pepper_42/toolchain/linux_x86_newlib/bin/../lib/gcc/x86_64-nacl/4.4.3/../../../../x86_64-nacl/lib/../lib32/libstdc++.a(eh_terminate.o)
 .debug_loc     0x00000000000128f3      0x460 /home/jfb/nacl_sdk/pepper_42/toolchain/linux_x86_newlib/bin/../lib/gcc/x86_64-nacl/4.4.3/../../../../x86_64-nacl/lib/../lib32/libstdc++.a(class_type_info.o)
 .debug_loc     0x0000000000012d53      0x4e6 /home/jfb/nacl_sdk/pepper_42/toolchain/linux_x86_newlib/bin/../lib/gcc/x86_64-nacl/4.4.3/../../../../x86_64-nacl/lib/../lib32/libstdc++.a(eh_alloc.o)
 .debug_loc     0x0000000000013239      0x1f7 /home/jfb/nacl_sdk/pepper_42/toolchain/linux_x86_newlib/bin/../lib/gcc/x86_64-nacl/4.4.3/../../../../x86_64-nacl/lib/../lib32/libstdc++.a(eh_catch.o)
 .debug_loc     0x0000000000013430      0x268 /home/jfb/nacl_sdk/pepper_42/toolchain/linux_x86_newlib/bin/../lib/gcc/x86_64-nacl/4.4.3/../../../../x86_64-nacl/lib/../lib32/libstdc++.a(eh_exception.o)
 .debug_loc     0x0000000000013698       0x2c /home/jfb/nacl_sdk/pepper_42/toolchain/linux_x86_newlib/bin/../lib/gcc/x86_64-nacl/4.4.3/../../../../x86_64-nacl/lib/../lib32/libstdc++.a(pure.o)
 .debug_loc     0x00000000000136c4       0x92 /home/jfb/nacl_sdk/pepper_42/toolchain/linux_x86_newlib/bin/../lib/gcc/x86_64-nacl/4.4.3/../../../../x86_64-nacl/lib/../lib32/libstdc++.a(new_op.o)
 .debug_loc     0x0000000000013756      0x134 /home/jfb/nacl_sdk/pepper_42/toolchain/linux_x86_newlib/bin/../lib/gcc/x86_64-nacl/4.4.3/../../../../x86_64-nacl/lib/../lib32/libstdc++.a(tinfo.o)
 .debug_loc     0x000000000001388a      0x7ff /home/jfb/nacl_sdk/pepper_42/toolchain/linux_x86_newlib/bin/../lib/gcc/x86_64-nacl/4.4.3/../../../../x86_64-nacl/lib/../lib32/libstdc++.a(functexcept.o)
 .debug_loc     0x0000000000014089      0x2d1 /home/jfb/nacl_sdk/pepper_42/toolchain/linux_x86_newlib/bin/../lib/gcc/x86_64-nacl/4.4.3/../../../../x86_64-nacl/lib/../lib32/libstdc++.a(ios_failure.o)
 .debug_loc     0x000000000001435a      0xa72 /home/jfb/nacl_sdk/pepper_42/toolchain/linux_x86_newlib/bin/../lib/gcc/x86_64-nacl/4.4.3/../../../../x86_64-nacl/lib/../lib32/libstdc++.a(stdexcept.o)
 .debug_loc     0x0000000000014dcc      0x4b5 /home/jfb/nacl_sdk/pepper_42/toolchain/linux_x86_newlib/bin/../lib/gcc/x86_64-nacl/4.4.3/../../../../x86_64-nacl/lib/../lib32/libstdc++.a(system_error.o)
 .debug_loc     0x0000000000015281       0xb0 /home/jfb/nacl_sdk/pepper_42/toolchain/linux_x86_newlib/bin/../lib/gcc/x86_64-nacl/4.4.3/../../../../x86_64-nacl/lib/../lib32/libstdc++.a(bad_typeid.o)
 .debug_loc     0x0000000000015331       0xef /home/jfb/nacl_sdk/pepper_42/toolchain/linux_x86_newlib/bin/../lib/gcc/x86_64-nacl/4.4.3/../../../../x86_64-nacl/lib/../lib32/libstdc++.a(new_handler.o)
 .debug_loc     0x0000000000015420       0xb0 /home/jfb/nacl_sdk/pepper_42/toolchain/linux_x86_newlib/bin/../lib/gcc/x86_64-nacl/4.4.3/../../../../x86_64-nacl/lib/../lib32/libstdc++.a(bad_cast.o)
 .debug_loc     0x00000000000154d0       0xbc /home/jfb/nacl_sdk/pepper_42/toolchain/linux_x86_newlib/bin/../lib/gcc/x86_64-nacl/4.4.3/../../../../x86_64-nacl/lib/../lib32/libstdc++.a(vterminate.o)
 .debug_loc     0x000000000001558c     0x2f99 /home/jfb/nacl_sdk/pepper_42/toolchain/linux_x86_newlib/bin/../lib/gcc/x86_64-nacl/4.4.3/../../../../x86_64-nacl/lib/../lib32/libstdc++.a(cp-demangle.o)
 .debug_loc     0x0000000000018525       0x5d /home/jfb/nacl_sdk/pepper_42/toolchain/linux_x86_newlib/bin/../lib/gcc/x86_64-nacl/4.4.3/../../../../x86_64-nacl/lib/../lib32/libstdc++.a(eh_type.o)
 .debug_loc     0x0000000000018582     0x2dce /home/jfb/nacl_sdk/pepper_42/toolchain/linux_x86_newlib/bin/../lib/gcc/x86_64-nacl/4.4.3/32/libgcc.a(unwind-dw2.o)
 .debug_loc     0x000000000001b350     0x151c /home/jfb/nacl_sdk/pepper_42/toolchain/linux_x86_newlib/bin/../lib/gcc/x86_64-nacl/4.4.3/32/libgcc.a(unwind-dw2-fde-glibc.o)
 .debug_loc     0x000000000001c86c       0x20 /home/jfb/nacl_sdk/pepper_42/toolchain/linux_x86_newlib/bin/../lib/gcc/x86_64-nacl/4.4.3/../../../../x86_64-nacl/lib/../lib32/libnacl.a(_exit_710c7d0d.o)
 .debug_loc     0x000000000001c88c       0x20 /home/jfb/nacl_sdk/pepper_42/toolchain/linux_x86_newlib/bin/../lib/gcc/x86_64-nacl/4.4.3/../../../../x86_64-nacl/lib/../lib32/libnacl.a(abort_9f6b5845.o)
 .debug_loc     0x000000000001c8ac       0x51 /home/jfb/nacl_sdk/pepper_42/toolchain/linux_x86_newlib/bin/../lib/gcc/x86_64-nacl/4.4.3/../../../../x86_64-nacl/lib/../lib32/libnacl.a(start_fa9ef7de.o)
 .debug_loc     0x000000000001c8fd     0x4c5b /home/jfb/nacl_sdk/pepper_42/toolchain/linux_x86_newlib/bin/../lib/gcc/x86_64-nacl/4.4.3/../../../../x86_64-nacl/lib/../lib32/libnacl.a(malloc_222c4a1e.o)
 .debug_loc     0x0000000000021558      0x141 /home/jfb/nacl_sdk/pepper_42/toolchain/linux_x86_newlib/bin/../lib/gcc/x86_64-nacl/4.4.3/../../../../x86_64-nacl/lib/../lib32/libnacl.a(nacl_irt_6de1d53f.o)
 .debug_loc     0x0000000000021699       0xa6 /home/jfb/nacl_sdk/pepper_42/toolchain/linux_x86_newlib/bin/../lib/gcc/x86_64-nacl/4.4.3/../../../../x86_64-nacl/lib/../lib32/libnacl.a(pthread_initialize_minimal_4b6e776b.o)
 .debug_loc     0x000000000002173f       0x20 /home/jfb/nacl_sdk/pepper_42/toolchain/linux_x86_newlib/bin/../lib/gcc/x86_64-nacl/4.4.3/../../../../x86_64-nacl/lib/../lib32/libnacl.a(nacl_read_tp_5748ac47.o)
 .debug_loc     0x000000000002175f       0x7b /home/jfb/nacl_sdk/pepper_42/toolchain/linux_x86_newlib/bin/../lib/gcc/x86_64-nacl/4.4.3/../../../../x86_64-nacl/lib/../lib32/libnacl.a(mmap_767fb080.o)
 .debug_loc     0x00000000000217da       0x4a /home/jfb/nacl_sdk/pepper_42/toolchain/linux_x86_newlib/bin/../lib/gcc/x86_64-nacl/4.4.3/../../../../x86_64-nacl/lib/../lib32/libnacl.a(sched_yield_56c375be.o)
 .debug_loc     0x0000000000021824       0x4a /home/jfb/nacl_sdk/pepper_42/toolchain/linux_x86_newlib/bin/../lib/gcc/x86_64-nacl/4.4.3/../../../../x86_64-nacl/lib/../lib32/libnacl.a(munmap_d4f09867.o)
 .debug_loc     0x000000000002186e      0x146 /home/jfb/nacl_sdk/pepper_42/toolchain/linux_x86_newlib/bin/../lib/gcc/x86_64-nacl/4.4.3/../../../../x86_64-nacl/lib/../lib32/libnacl.a(tls_bba1975b.o)
 .debug_loc     0x00000000000219b4       0x5e /home/jfb/nacl_sdk/pepper_42/toolchain/linux_x86_newlib/bin/../lib/gcc/x86_64-nacl/4.4.3/../../../../x86_64-nacl/lib/../lib32/libnacl.a(write_fb49787f.o)
 .debug_loc     0x0000000000021a12       0x20 /home/jfb/nacl_sdk/pepper_42/toolchain/linux_x86_newlib/bin/../lib/gcc/x86_64-nacl/4.4.3/../../../../x86_64-nacl/lib/../lib32/libnacl.a(nacl_tls_get_d2f842b5.o)
 .debug_loc     0x0000000000021a32       0x57 /home/jfb/nacl_sdk/pepper_42/toolchain/linux_x86_newlib/bin/../lib/gcc/x86_64-nacl/4.4.3/../../../../x86_64-nacl/lib/../lib32/libnacl.a(nacl_irt_init_7b4f826e.o)
 .debug_loc     0x0000000000021a89       0x5e /home/jfb/nacl_sdk/pepper_42/toolchain/linux_x86_newlib/bin/../lib/gcc/x86_64-nacl/4.4.3/../../../../x86_64-nacl/lib/../lib32/libnacl.a(sysconf_ad295ea2.o)
 .debug_loc     0x0000000000021ae7       0x20 /home/jfb/nacl_sdk/pepper_42/toolchain/linux_x86_newlib/bin/../lib/gcc/x86_64-nacl/4.4.3/../../../../x86_64-nacl/lib/../lib32/libnacl.a(nacl_tls_init_eb0cd232.o)
 .debug_loc     0x0000000000021b07       0x4a /home/jfb/nacl_sdk/pepper_42/toolchain/linux_x86_newlib/bin/../lib/gcc/x86_64-nacl/4.4.3/../../../../x86_64-nacl/lib/../lib32/libnacl.a(close_e9b92fbd.o)
 .debug_loc     0x0000000000021b51       0x69 /home/jfb/nacl_sdk/pepper_42/toolchain/linux_x86_newlib/bin/../lib/gcc/x86_64-nacl/4.4.3/../../../../x86_64-nacl/lib/../lib32/libnacl.a(isatty_02f56e94.o)
 .debug_loc     0x0000000000021bba       0x20 /home/jfb/nacl_sdk/pepper_42/toolchain/linux_x86_newlib/bin/../lib/gcc/x86_64-nacl/4.4.3/../../../../x86_64-nacl/lib/../lib32/libnacl.a(nacl_irt_fdio_b571b5e7.o)
 .debug_loc     0x0000000000021bda       0x4a /home/jfb/nacl_sdk/pepper_42/toolchain/linux_x86_newlib/bin/../lib/gcc/x86_64-nacl/4.4.3/../../../../x86_64-nacl/lib/../lib32/libnacl.a(fstat_0540ff63.o)
 .debug_loc     0x0000000000021c24       0x5f /home/jfb/nacl_sdk/pepper_42/toolchain/linux_x86_newlib/bin/../lib/gcc/x86_64-nacl/4.4.3/../../../../x86_64-nacl/lib/../lib32/libnacl.a(lseek_64d2d05c.o)
 .debug_loc     0x0000000000021c83       0x5e /home/jfb/nacl_sdk/pepper_42/toolchain/linux_x86_newlib/bin/../lib/gcc/x86_64-nacl/4.4.3/../../../../x86_64-nacl/lib/../lib32/libnacl.a(read_df872e10.o)
 .debug_loc     0x0000000000021ce1      0x23e /home/jfb/nacl_sdk/pepper_42/toolchain/linux_x86_newlib/bin/../lib/gcc/x86_64-nacl/4.4.3/32/libgcc.a(_udivdi3.o)
 .debug_loc     0x0000000000021f1f      0x29f /home/jfb/nacl_sdk/pepper_42/toolchain/linux_x86_newlib/bin/../lib/gcc/x86_64-nacl/4.4.3/32/libgcc.a(_umoddi3.o)

.debug_macinfo
 *(.debug_macinfo)

.debug_weaknames
 *(.debug_weaknames)

.debug_funcnames
 *(.debug_funcnames)

.debug_typenames
 *(.debug_typenames)

.debug_varnames
 *(.debug_varnames)

.debug_pubtypes
 *(.debug_pubtypes)

.debug_ranges   0x0000000000000000     0xf270
 *(.debug_ranges)
 .debug_ranges  0x0000000000000000       0x48 newlib/Release/multi_platform_x86_32.o
 .debug_ranges  0x0000000000000048     0x1528 /home/jfb/nacl_sdk/pepper_42//lib/newlib_x86_32/Release/libppapi_cpp.a(instance_x86_32.o)
 .debug_ranges  0x0000000000001570     0x10d0 /home/jfb/nacl_sdk/pepper_42//lib/newlib_x86_32/Release/libppapi_cpp.a(module_x86_32.o)
 .debug_ranges  0x0000000000002640       0x18 /home/jfb/nacl_sdk/pepper_42//lib/newlib_x86_32/Release/libppapi_cpp.a(ppp_entrypoints_x86_32.o)
 .debug_ranges  0x0000000000002658       0x90 /home/jfb/nacl_sdk/pepper_42//lib/newlib_x86_32/Release/libppapi_cpp.a(resource_x86_32.o)
 .debug_ranges  0x00000000000026e8      0x708 /home/jfb/nacl_sdk/pepper_42//lib/newlib_x86_32/Release/libppapi_cpp.a(url_loader_x86_32.o)
 .debug_ranges  0x0000000000002df0      0x180 /home/jfb/nacl_sdk/pepper_42//lib/newlib_x86_32/Release/libppapi_cpp.a(url_response_info_x86_32.o)
 .debug_ranges  0x0000000000002f70      0xa20 /home/jfb/nacl_sdk/pepper_42//lib/newlib_x86_32/Release/libppapi_cpp.a(var_x86_32.o)
 .debug_ranges  0x0000000000003990      0xc90 /home/jfb/nacl_sdk/pepper_42//lib/newlib_x86_32/Release/libppapi_cpp.a(view_x86_32.o)
 .debug_ranges  0x0000000000004620     0x15b8 /home/jfb/nacl_sdk/pepper_42//lib/newlib_x86_32/Release/libppapi_cpp.a(file_ref_x86_32.o)
 .debug_ranges  0x0000000000005bd8     0x1b38 /home/jfb/nacl_sdk/pepper_42//lib/newlib_x86_32/Release/libppapi_cpp.a(input_event_x86_32.o)
 .debug_ranges  0x0000000000007710      0x220 /home/jfb/nacl_sdk/pepper_42/toolchain/linux_x86_newlib/bin/../lib/gcc/x86_64-nacl/4.4.3/../../../../x86_64-nacl/lib/../lib32/libpthread.a(nc_thread_7e478b15.o)
 .debug_ranges  0x0000000000007930       0x20 /home/jfb/nacl_sdk/pepper_42/toolchain/linux_x86_newlib/bin/../lib/gcc/x86_64-nacl/4.4.3/../../../../x86_64-nacl/lib/../lib32/libpthread.a(nc_mutex_86341ae1.o)
 .debug_ranges  0x0000000000007950      0x500 /home/jfb/nacl_sdk/pepper_42/toolchain/linux_x86_newlib/bin/../lib/gcc/x86_64-nacl/4.4.3/../../../../x86_64-nacl/lib/../lib32/libstdc++.a(tree.o)
 .debug_ranges  0x0000000000007e50     0x24f8 /home/jfb/nacl_sdk/pepper_42/toolchain/linux_x86_newlib/bin/../lib/gcc/x86_64-nacl/4.4.3/../../../../x86_64-nacl/lib/../lib32/libstdc++.a(string-inst.o)
 .debug_ranges  0x000000000000a348      0x320 /home/jfb/nacl_sdk/pepper_42/toolchain/linux_x86_newlib/bin/../lib/gcc/x86_64-nacl/4.4.3/../../../../x86_64-nacl/lib/../lib32/libstdc++.a(eh_personality.o)
 .debug_ranges  0x000000000000a668       0xd8 /home/jfb/nacl_sdk/pepper_42/toolchain/linux_x86_newlib/bin/../lib/gcc/x86_64-nacl/4.4.3/../../../../x86_64-nacl/lib/../lib32/libstdc++.a(eh_globals.o)
 .debug_ranges  0x000000000000a740       0x48 /home/jfb/nacl_sdk/pepper_42/toolchain/linux_x86_newlib/bin/../lib/gcc/x86_64-nacl/4.4.3/../../../../x86_64-nacl/lib/../lib32/libstdc++.a(eh_throw.o)
 .debug_ranges  0x000000000000a788       0x18 /home/jfb/nacl_sdk/pepper_42/toolchain/linux_x86_newlib/bin/../lib/gcc/x86_64-nacl/4.4.3/../../../../x86_64-nacl/lib/../lib32/libstdc++.a(del_op.o)
 .debug_ranges  0x000000000000a7a0       0x18 /home/jfb/nacl_sdk/pepper_42/toolchain/linux_x86_newlib/bin/../lib/gcc/x86_64-nacl/4.4.3/../../../../x86_64-nacl/lib/../lib32/libstdc++.a(eh_call.o)
 .debug_ranges  0x000000000000a7b8      0x148 /home/jfb/nacl_sdk/pepper_42/toolchain/linux_x86_newlib/bin/../lib/gcc/x86_64-nacl/4.4.3/../../../../x86_64-nacl/lib/../lib32/libstdc++.a(guard.o)
 .debug_ranges  0x000000000000a900       0x58 /home/jfb/nacl_sdk/pepper_42/toolchain/linux_x86_newlib/bin/../lib/gcc/x86_64-nacl/4.4.3/../../../../x86_64-nacl/lib/../lib32/libstdc++.a(si_class_type_info.o)
 .debug_ranges  0x000000000000a958       0x80 /home/jfb/nacl_sdk/pepper_42/toolchain/linux_x86_newlib/bin/../lib/gcc/x86_64-nacl/4.4.3/../../../../x86_64-nacl/lib/../lib32/libstdc++.a(eh_terminate.o)
 .debug_ranges  0x000000000000a9d8       0x68 /home/jfb/nacl_sdk/pepper_42/toolchain/linux_x86_newlib/bin/../lib/gcc/x86_64-nacl/4.4.3/../../../../x86_64-nacl/lib/../lib32/libstdc++.a(class_type_info.o)
 .debug_ranges  0x000000000000aa40      0x430 /home/jfb/nacl_sdk/pepper_42/toolchain/linux_x86_newlib/bin/../lib/gcc/x86_64-nacl/4.4.3/../../../../x86_64-nacl/lib/../lib32/libstdc++.a(eh_alloc.o)
 .debug_ranges  0x000000000000ae70       0x78 /home/jfb/nacl_sdk/pepper_42/toolchain/linux_x86_newlib/bin/../lib/gcc/x86_64-nacl/4.4.3/../../../../x86_64-nacl/lib/../lib32/libstdc++.a(eh_catch.o)
 .debug_ranges  0x000000000000aee8       0x80 /home/jfb/nacl_sdk/pepper_42/toolchain/linux_x86_newlib/bin/../lib/gcc/x86_64-nacl/4.4.3/../../../../x86_64-nacl/lib/../lib32/libstdc++.a(eh_exception.o)
 .debug_ranges  0x000000000000af68       0x18 /home/jfb/nacl_sdk/pepper_42/toolchain/linux_x86_newlib/bin/../lib/gcc/x86_64-nacl/4.4.3/../../../../x86_64-nacl/lib/../lib32/libstdc++.a(pure.o)
 .debug_ranges  0x000000000000af80       0x50 /home/jfb/nacl_sdk/pepper_42/toolchain/linux_x86_newlib/bin/../lib/gcc/x86_64-nacl/4.4.3/../../../../x86_64-nacl/lib/../lib32/libstdc++.a(new_op.o)
 .debug_ranges  0x000000000000afd0       0x48 /home/jfb/nacl_sdk/pepper_42/toolchain/linux_x86_newlib/bin/../lib/gcc/x86_64-nacl/4.4.3/../../../../x86_64-nacl/lib/../lib32/libstdc++.a(tinfo.o)
 .debug_ranges  0x000000000000b018      0x4e0 /home/jfb/nacl_sdk/pepper_42/toolchain/linux_x86_newlib/bin/../lib/gcc/x86_64-nacl/4.4.3/../../../../x86_64-nacl/lib/../lib32/libstdc++.a(functexcept.o)
 .debug_ranges  0x000000000000b4f8      0x178 /home/jfb/nacl_sdk/pepper_42/toolchain/linux_x86_newlib/bin/../lib/gcc/x86_64-nacl/4.4.3/../../../../x86_64-nacl/lib/../lib32/libstdc++.a(ios_failure.o)
 .debug_ranges  0x000000000000b670      0x3c0 /home/jfb/nacl_sdk/pepper_42/toolchain/linux_x86_newlib/bin/../lib/gcc/x86_64-nacl/4.4.3/../../../../x86_64-nacl/lib/../lib32/libstdc++.a(stdexcept.o)
 .debug_ranges  0x000000000000ba30       0xd8 /home/jfb/nacl_sdk/pepper_42/toolchain/linux_x86_newlib/bin/../lib/gcc/x86_64-nacl/4.4.3/../../../../x86_64-nacl/lib/../lib32/libstdc++.a(system_error.o)
 .debug_ranges  0x000000000000bb08       0x30 /home/jfb/nacl_sdk/pepper_42/toolchain/linux_x86_newlib/bin/../lib/gcc/x86_64-nacl/4.4.3/../../../../x86_64-nacl/lib/../lib32/libstdc++.a(bad_typeid.o)
 .debug_ranges  0x000000000000bb38       0x58 /home/jfb/nacl_sdk/pepper_42/toolchain/linux_x86_newlib/bin/../lib/gcc/x86_64-nacl/4.4.3/../../../../x86_64-nacl/lib/../lib32/libstdc++.a(new_handler.o)
 .debug_ranges  0x000000000000bb90       0x30 /home/jfb/nacl_sdk/pepper_42/toolchain/linux_x86_newlib/bin/../lib/gcc/x86_64-nacl/4.4.3/../../../../x86_64-nacl/lib/../lib32/libstdc++.a(bad_cast.o)
 .debug_ranges  0x000000000000bbc0       0x68 /home/jfb/nacl_sdk/pepper_42/toolchain/linux_x86_newlib/bin/../lib/gcc/x86_64-nacl/4.4.3/../../../../x86_64-nacl/lib/../lib32/libstdc++.a(vterminate.o)
 .debug_ranges  0x000000000000bc28     0x1090 /home/jfb/nacl_sdk/pepper_42/toolchain/linux_x86_newlib/bin/../lib/gcc/x86_64-nacl/4.4.3/../../../../x86_64-nacl/lib/../lib32/libstdc++.a(cp-demangle.o)
 .debug_ranges  0x000000000000ccb8       0x30 /home/jfb/nacl_sdk/pepper_42/toolchain/linux_x86_newlib/bin/../lib/gcc/x86_64-nacl/4.4.3/../../../../x86_64-nacl/lib/../lib32/libstdc++.a(eh_type.o)
 .debug_ranges  0x000000000000cce8      0x9e8 /home/jfb/nacl_sdk/pepper_42/toolchain/linux_x86_newlib/bin/../lib/gcc/x86_64-nacl/4.4.3/32/libgcc.a(unwind-dw2.o)
 .debug_ranges  0x000000000000d6d0      0x3a8 /home/jfb/nacl_sdk/pepper_42/toolchain/linux_x86_newlib/bin/../lib/gcc/x86_64-nacl/4.4.3/32/libgcc.a(unwind-dw2-fde-glibc.o)
 .debug_ranges  0x000000000000da78       0x30 /home/jfb/nacl_sdk/pepper_42/toolchain/linux_x86_newlib/bin/../lib/gcc/x86_64-nacl/4.4.3/../../../../x86_64-nacl/lib/../lib32/libnacl.a(start_fa9ef7de.o)
 .debug_ranges  0x000000000000daa8     0x15e0 /home/jfb/nacl_sdk/pepper_42/toolchain/linux_x86_newlib/bin/../lib/gcc/x86_64-nacl/4.4.3/../../../../x86_64-nacl/lib/../lib32/libnacl.a(malloc_222c4a1e.o)
 .debug_ranges  0x000000000000f088       0xd8 /home/jfb/nacl_sdk/pepper_42/toolchain/linux_x86_newlib/bin/../lib/gcc/x86_64-nacl/4.4.3/../../../../x86_64-nacl/lib/../lib32/libnacl.a(tls_bba1975b.o)
 .debug_ranges  0x000000000000f160       0x18 /home/jfb/nacl_sdk/pepper_42/toolchain/linux_x86_newlib/bin/../lib/gcc/x86_64-nacl/4.4.3/../../../../x86_64-nacl/lib/../lib32/libnacl.a(nacl_irt_init_7b4f826e.o)
 .debug_ranges  0x000000000000f178       0x70 /home/jfb/nacl_sdk/pepper_42/toolchain/linux_x86_newlib/bin/../lib/gcc/x86_64-nacl/4.4.3/32/libgcc.a(_udivdi3.o)
 .debug_ranges  0x000000000000f1e8       0x88 /home/jfb/nacl_sdk/pepper_42/toolchain/linux_x86_newlib/bin/../lib/gcc/x86_64-nacl/4.4.3/32/libgcc.a(_umoddi3.o)

.debug_macro
 *(.debug_macro)

.gnu.attributes
 *(.gnu.attributes)

/DISCARD/
 *(.note.GNU-stack)
 *(.gnu_debuglink)
 *(.gnu.lto_*)
OUTPUT(newlib/Release/_platform_specific/x86-32/multi_platform_unstripped_x86_32.nexe elf32-i386-nacl)
