Archive member included to satisfy reference by file (symbol)

/home/jfb/nacl_sdk/pepper_42//lib/newlib_arm/Release/liberror_handling.a(error_handling_arm.o)
                              newlib/Release/debugging_arm.o (EHRequestExceptionsJson)
/home/jfb/nacl_sdk/pepper_42//lib/newlib_arm/Release/liberror_handling.a(string_stream_arm.o)
                              /home/jfb/nacl_sdk/pepper_42//lib/newlib_arm/Release/liberror_handling.a(error_handling_arm.o) (ssinit)
/home/jfb/nacl_sdk/pepper_42/toolchain/linux_arm_newlib/bin/../lib/gcc/arm-nacl/4.9.2/../../../../arm-nacl/lib/libppapi_stub.a(plugin_main_irt_21ce9d26.o)
                              (main)
/home/jfb/nacl_sdk/pepper_42/toolchain/linux_arm_newlib/bin/../lib/gcc/arm-nacl/4.9.2/../../../../arm-nacl/lib/libppapi_stub.a(ppapi_plugin_main_399d0cf7.o)
                              /home/jfb/nacl_sdk/pepper_42/toolchain/linux_arm_newlib/bin/../lib/gcc/arm-nacl/4.9.2/../../../../arm-nacl/lib/libppapi_stub.a(plugin_main_irt_21ce9d26.o) (PpapiPluginMain)
/home/jfb/nacl_sdk/pepper_42/toolchain/linux_arm_newlib/bin/../lib/gcc/arm-nacl/4.9.2/../../../../arm-nacl/lib/libppapi_stub.a(ppapi_plugin_start_8da67623.o)
                              /home/jfb/nacl_sdk/pepper_42/toolchain/linux_arm_newlib/bin/../lib/gcc/arm-nacl/4.9.2/../../../../arm-nacl/lib/libppapi_stub.a(ppapi_plugin_main_399d0cf7.o) (PpapiPluginStart)
/home/jfb/nacl_sdk/pepper_42/toolchain/linux_arm_newlib/bin/../lib/gcc/arm-nacl/4.9.2/../../../../arm-nacl/lib/libppapi_stub.a(thread_creator_ccf263e1.o)
                              /home/jfb/nacl_sdk/pepper_42/toolchain/linux_arm_newlib/bin/../lib/gcc/arm-nacl/4.9.2/../../../../arm-nacl/lib/libppapi_stub.a(ppapi_plugin_start_8da67623.o) (__nacl_register_thread_creator)
/home/jfb/nacl_sdk/pepper_42/toolchain/linux_arm_newlib/bin/../lib/gcc/arm-nacl/4.9.2/../../../../arm-nacl/lib/libpthread.a(nc_thread_7e478b15.o)
                              newlib/Release/debugging_arm.o (pthread_create)
/home/jfb/nacl_sdk/pepper_42/toolchain/linux_arm_newlib/bin/../lib/gcc/arm-nacl/4.9.2/../../../../arm-nacl/lib/libpthread.a(nc_condvar_305aa45a.o)
                              /home/jfb/nacl_sdk/pepper_42/toolchain/linux_arm_newlib/bin/../lib/gcc/arm-nacl/4.9.2/../../../../arm-nacl/lib/libpthread.a(nc_thread_7e478b15.o) (pthread_cond_init)
/home/jfb/nacl_sdk/pepper_42/toolchain/linux_arm_newlib/bin/../lib/gcc/arm-nacl/4.9.2/../../../../arm-nacl/lib/libpthread.a(dynamic_annotations_33ba59cc.o)
                              /home/jfb/nacl_sdk/pepper_42/toolchain/linux_arm_newlib/bin/../lib/gcc/arm-nacl/4.9.2/../../../../arm-nacl/lib/libpthread.a(nc_thread_7e478b15.o) (NACL_AnnotateCondVarWait)
/home/jfb/nacl_sdk/pepper_42/toolchain/linux_arm_newlib/bin/../lib/gcc/arm-nacl/4.9.2/../../../../arm-nacl/lib/libpthread.a(nc_mutex_86341ae1.o)
                              /home/jfb/nacl_sdk/pepper_42/toolchain/linux_arm_newlib/bin/../lib/gcc/arm-nacl/4.9.2/../../../../arm-nacl/lib/libpthread.a(nc_thread_7e478b15.o) (pthread_mutex_init)
/home/jfb/nacl_sdk/pepper_42/toolchain/linux_arm_newlib/bin/../lib/gcc/arm-nacl/4.9.2/../../../../arm-nacl/lib/libpthread.a(nc_init_irt_d3daafc0.o)
                              /home/jfb/nacl_sdk/pepper_42/toolchain/linux_arm_newlib/bin/../lib/gcc/arm-nacl/4.9.2/../../../../arm-nacl/lib/libpthread.a(nc_thread_7e478b15.o) (__nc_initialize_interfaces)
/home/jfb/nacl_sdk/pepper_42/toolchain/linux_arm_newlib/bin/../lib/gcc/arm-nacl/4.9.2/libgcc.a(unwind-arm.o)
                              /home/jfb/nacl_sdk/pepper_42/toolchain/linux_arm_newlib/bin/../lib/gcc/arm-nacl/4.9.2/../../../../arm-nacl/lib/libppapi_stub.a(plugin_main_irt_21ce9d26.o) (__aeabi_unwind_cpp_pr0)
/home/jfb/nacl_sdk/pepper_42/toolchain/linux_arm_newlib/bin/../lib/gcc/arm-nacl/4.9.2/libgcc.a(libunwind.o)
                              /home/jfb/nacl_sdk/pepper_42/toolchain/linux_arm_newlib/bin/../lib/gcc/arm-nacl/4.9.2/libgcc.a(unwind-arm.o) (restore_core_regs)
/home/jfb/nacl_sdk/pepper_42/toolchain/linux_arm_newlib/bin/../lib/gcc/arm-nacl/4.9.2/libgcc.a(pr-support.o)
                              /home/jfb/nacl_sdk/pepper_42/toolchain/linux_arm_newlib/bin/../lib/gcc/arm-nacl/4.9.2/libgcc.a(unwind-arm.o) (__gnu_unwind_execute)
/home/jfb/nacl_sdk/pepper_42/toolchain/linux_arm_newlib/bin/../lib/gcc/arm-nacl/4.9.2/../../../../arm-nacl/lib/libnacl.a(_exit_710c7d0d.o)
                              /home/jfb/nacl_sdk/pepper_42/toolchain/linux_arm_newlib/bin/../lib/gcc/arm-nacl/4.9.2/../../../../arm-nacl/lib/libppapi_stub.a(ppapi_plugin_start_8da67623.o) (_exit)
/home/jfb/nacl_sdk/pepper_42/toolchain/linux_arm_newlib/bin/../lib/gcc/arm-nacl/4.9.2/../../../../arm-nacl/lib/libnacl.a(abort_9f6b5845.o)
                              /home/jfb/nacl_sdk/pepper_42/toolchain/linux_arm_newlib/bin/../lib/gcc/arm-nacl/4.9.2/libgcc.a(unwind-arm.o) (abort)
/home/jfb/nacl_sdk/pepper_42/toolchain/linux_arm_newlib/bin/../lib/gcc/arm-nacl/4.9.2/../../../../arm-nacl/lib/libnacl.a(environ_25cd24d8.o)
                              /home/jfb/nacl_sdk/pepper_42/toolchain/linux_arm_newlib/bin/../lib/gcc/arm-nacl/4.9.2/../../../../arm-nacl/lib/libppapi_stub.a(ppapi_plugin_start_8da67623.o) (environ)
/home/jfb/nacl_sdk/pepper_42/toolchain/linux_arm_newlib/bin/../lib/gcc/arm-nacl/4.9.2/../../../../arm-nacl/lib/libnacl.a(start_fa9ef7de.o)
                              (_start)
/home/jfb/nacl_sdk/pepper_42/toolchain/linux_arm_newlib/bin/../lib/gcc/arm-nacl/4.9.2/../../../../arm-nacl/lib/libnacl.a(malloc_222c4a1e.o)
                              newlib/Release/debugging_arm.o (malloc)
/home/jfb/nacl_sdk/pepper_42/toolchain/linux_arm_newlib/bin/../lib/gcc/arm-nacl/4.9.2/../../../../arm-nacl/lib/libnacl.a(nacl_irt_6de1d53f.o)
                              /home/jfb/nacl_sdk/pepper_42/toolchain/linux_arm_newlib/bin/../lib/gcc/arm-nacl/4.9.2/../../../../arm-nacl/lib/libpthread.a(nc_init_irt_d3daafc0.o) (__libnacl_mandatory_irt_query)
/home/jfb/nacl_sdk/pepper_42/toolchain/linux_arm_newlib/bin/../lib/gcc/arm-nacl/4.9.2/../../../../arm-nacl/lib/libnacl.a(pthread_initialize_minimal_4b6e776b.o)
                              /home/jfb/nacl_sdk/pepper_42/toolchain/linux_arm_newlib/bin/../lib/gcc/arm-nacl/4.9.2/../../../../arm-nacl/lib/libpthread.a(nc_thread_7e478b15.o) (__pthread_initialize_minimal)
/home/jfb/nacl_sdk/pepper_42/toolchain/linux_arm_newlib/bin/../lib/gcc/arm-nacl/4.9.2/../../../../arm-nacl/lib/libnacl.a(nacl_read_tp_5748ac47.o)
                              /home/jfb/nacl_sdk/pepper_42/toolchain/linux_arm_newlib/bin/../lib/gcc/arm-nacl/4.9.2/../../../../arm-nacl/lib/libpthread.a(nc_thread_7e478b15.o) (__nacl_read_tp)
/home/jfb/nacl_sdk/pepper_42/toolchain/linux_arm_newlib/bin/../lib/gcc/arm-nacl/4.9.2/../../../../arm-nacl/lib/libnacl.a(nacl_interface_query_ef8a99f1.o)
                              /home/jfb/nacl_sdk/pepper_42//lib/newlib_arm/Release/liberror_handling.a(error_handling_arm.o) (nacl_interface_query)
/home/jfb/nacl_sdk/pepper_42/toolchain/linux_arm_newlib/bin/../lib/gcc/arm-nacl/4.9.2/../../../../arm-nacl/lib/libnacl.a(mmap_767fb080.o)
                              /home/jfb/nacl_sdk/pepper_42//lib/newlib_arm/Release/liberror_handling.a(error_handling_arm.o) (mmap)
/home/jfb/nacl_sdk/pepper_42/toolchain/linux_arm_newlib/bin/../lib/gcc/arm-nacl/4.9.2/../../../../arm-nacl/lib/libnacl.a(sched_yield_56c375be.o)
                              /home/jfb/nacl_sdk/pepper_42/toolchain/linux_arm_newlib/bin/../lib/gcc/arm-nacl/4.9.2/../../../../arm-nacl/lib/libnacl.a(malloc_222c4a1e.o) (sched_yield)
/home/jfb/nacl_sdk/pepper_42/toolchain/linux_arm_newlib/bin/../lib/gcc/arm-nacl/4.9.2/../../../../arm-nacl/lib/libnacl.a(munmap_d4f09867.o)
                              /home/jfb/nacl_sdk/pepper_42//lib/newlib_arm/Release/liberror_handling.a(error_handling_arm.o) (munmap)
/home/jfb/nacl_sdk/pepper_42/toolchain/linux_arm_newlib/bin/../lib/gcc/arm-nacl/4.9.2/../../../../arm-nacl/lib/libnacl.a(tls_bba1975b.o)
                              /home/jfb/nacl_sdk/pepper_42/toolchain/linux_arm_newlib/bin/../lib/gcc/arm-nacl/4.9.2/../../../../arm-nacl/lib/libpthread.a(nc_thread_7e478b15.o) (__nacl_tls_combined_size)
/home/jfb/nacl_sdk/pepper_42/toolchain/linux_arm_newlib/bin/../lib/gcc/arm-nacl/4.9.2/../../../../arm-nacl/lib/libnacl.a(write_fb49787f.o)
                              /home/jfb/nacl_sdk/pepper_42/toolchain/linux_arm_newlib/bin/../lib/gcc/arm-nacl/4.9.2/../../../../arm-nacl/lib/libppapi_stub.a(ppapi_plugin_start_8da67623.o) (write)
/home/jfb/nacl_sdk/pepper_42/toolchain/linux_arm_newlib/bin/../lib/gcc/arm-nacl/4.9.2/../../../../arm-nacl/lib/libnacl.a(nacl_tls_get_d2f842b5.o)
                              /home/jfb/nacl_sdk/pepper_42/toolchain/linux_arm_newlib/bin/../lib/gcc/arm-nacl/4.9.2/../../../../arm-nacl/lib/libnacl.a(nacl_read_tp_5748ac47.o) (nacl_tls_get)
/home/jfb/nacl_sdk/pepper_42/toolchain/linux_arm_newlib/bin/../lib/gcc/arm-nacl/4.9.2/../../../../arm-nacl/lib/libnacl.a(nacl_irt_init_7b4f826e.o)
                              /home/jfb/nacl_sdk/pepper_42/toolchain/linux_arm_newlib/bin/../lib/gcc/arm-nacl/4.9.2/../../../../arm-nacl/lib/libnacl.a(start_fa9ef7de.o) (__libnacl_irt_init)
/home/jfb/nacl_sdk/pepper_42/toolchain/linux_arm_newlib/bin/../lib/gcc/arm-nacl/4.9.2/../../../../arm-nacl/lib/libnacl.a(sysconf_ad295ea2.o)
                              /home/jfb/nacl_sdk/pepper_42/toolchain/linux_arm_newlib/bin/../lib/gcc/arm-nacl/4.9.2/../../../../arm-nacl/lib/libnacl.a(malloc_222c4a1e.o) (sysconf)
/home/jfb/nacl_sdk/pepper_42/toolchain/linux_arm_newlib/bin/../lib/gcc/arm-nacl/4.9.2/../../../../arm-nacl/lib/libnacl.a(nacl_tls_init_eb0cd232.o)
                              /home/jfb/nacl_sdk/pepper_42/toolchain/linux_arm_newlib/bin/../lib/gcc/arm-nacl/4.9.2/../../../../arm-nacl/lib/libnacl.a(pthread_initialize_minimal_4b6e776b.o) (nacl_tls_init)
/home/jfb/nacl_sdk/pepper_42/toolchain/linux_arm_newlib/bin/../lib/gcc/arm-nacl/4.9.2/../../../../arm-nacl/lib/libcrt_common.a(lib_a-atexit.o)
                              /home/jfb/nacl_sdk/pepper_42/toolchain/linux_arm_newlib/bin/../lib/gcc/arm-nacl/4.9.2/../../../../arm-nacl/lib/libnacl.a(start_fa9ef7de.o) (atexit)
/home/jfb/nacl_sdk/pepper_42/toolchain/linux_arm_newlib/bin/../lib/gcc/arm-nacl/4.9.2/../../../../arm-nacl/lib/libcrt_common.a(lib_a-errno.o)
                              /home/jfb/nacl_sdk/pepper_42/toolchain/linux_arm_newlib/bin/../lib/gcc/arm-nacl/4.9.2/../../../../arm-nacl/lib/libnacl.a(malloc_222c4a1e.o) (__errno)
/home/jfb/nacl_sdk/pepper_42/toolchain/linux_arm_newlib/bin/../lib/gcc/arm-nacl/4.9.2/../../../../arm-nacl/lib/libcrt_common.a(lib_a-exit.o)
                              /home/jfb/nacl_sdk/pepper_42/toolchain/linux_arm_newlib/bin/../lib/gcc/arm-nacl/4.9.2/../../../../arm-nacl/lib/libpthread.a(nc_thread_7e478b15.o) (exit)
/home/jfb/nacl_sdk/pepper_42/toolchain/linux_arm_newlib/bin/../lib/gcc/arm-nacl/4.9.2/../../../../arm-nacl/lib/libcrt_common.a(lib_a-fflush.o)
                              newlib/Release/debugging_arm.o (fflush)
/home/jfb/nacl_sdk/pepper_42/toolchain/linux_arm_newlib/bin/../lib/gcc/arm-nacl/4.9.2/../../../../arm-nacl/lib/libcrt_common.a(lib_a-findfp.o)
                              /home/jfb/nacl_sdk/pepper_42/toolchain/linux_arm_newlib/bin/../lib/gcc/arm-nacl/4.9.2/../../../../arm-nacl/lib/libcrt_common.a(lib_a-fflush.o) (__sinit)
/home/jfb/nacl_sdk/pepper_42/toolchain/linux_arm_newlib/bin/../lib/gcc/arm-nacl/4.9.2/../../../../arm-nacl/lib/libcrt_common.a(lib_a-fini.o)
                              /home/jfb/nacl_sdk/pepper_42/toolchain/linux_arm_newlib/bin/../lib/gcc/arm-nacl/4.9.2/../../../../arm-nacl/lib/libnacl.a(start_fa9ef7de.o) (__libc_fini_array)
/home/jfb/nacl_sdk/pepper_42/toolchain/linux_arm_newlib/bin/../lib/gcc/arm-nacl/4.9.2/../../../../arm-nacl/lib/libcrt_common.a(lib_a-fprintf.o)
                              newlib/Release/debugging_arm.o (fprintf)
/home/jfb/nacl_sdk/pepper_42/toolchain/linux_arm_newlib/bin/../lib/gcc/arm-nacl/4.9.2/../../../../arm-nacl/lib/libcrt_common.a(lib_a-fwalk.o)
                              /home/jfb/nacl_sdk/pepper_42/toolchain/linux_arm_newlib/bin/../lib/gcc/arm-nacl/4.9.2/../../../../arm-nacl/lib/libcrt_common.a(lib_a-findfp.o) (_fwalk)
/home/jfb/nacl_sdk/pepper_42/toolchain/linux_arm_newlib/bin/../lib/gcc/arm-nacl/4.9.2/../../../../arm-nacl/lib/libcrt_common.a(lib_a-fwrite.o)
                              /home/jfb/nacl_sdk/pepper_42//lib/newlib_arm/Release/liberror_handling.a(error_handling_arm.o) (fwrite)
/home/jfb/nacl_sdk/pepper_42/toolchain/linux_arm_newlib/bin/../lib/gcc/arm-nacl/4.9.2/../../../../arm-nacl/lib/libcrt_common.a(lib_a-getenv.o)
                              /home/jfb/nacl_sdk/pepper_42/toolchain/linux_arm_newlib/bin/../lib/gcc/arm-nacl/4.9.2/../../../../arm-nacl/lib/libpthread.a(dynamic_annotations_33ba59cc.o) (getenv)
/home/jfb/nacl_sdk/pepper_42/toolchain/linux_arm_newlib/bin/../lib/gcc/arm-nacl/4.9.2/../../../../arm-nacl/lib/libcrt_common.a(lib_a-getenv_r.o)
                              /home/jfb/nacl_sdk/pepper_42/toolchain/linux_arm_newlib/bin/../lib/gcc/arm-nacl/4.9.2/../../../../arm-nacl/lib/libcrt_common.a(lib_a-getenv.o) (_findenv_r)
/home/jfb/nacl_sdk/pepper_42/toolchain/linux_arm_newlib/bin/../lib/gcc/arm-nacl/4.9.2/../../../../arm-nacl/lib/libcrt_common.a(lib_a-impure.o)
                              /home/jfb/nacl_sdk/pepper_42/toolchain/linux_arm_newlib/bin/../lib/gcc/arm-nacl/4.9.2/../../../../arm-nacl/lib/libpthread.a(nc_thread_7e478b15.o) (__newlib_thread_init)
/home/jfb/nacl_sdk/pepper_42/toolchain/linux_arm_newlib/bin/../lib/gcc/arm-nacl/4.9.2/../../../../arm-nacl/lib/libcrt_common.a(lib_a-init.o)
                              /home/jfb/nacl_sdk/pepper_42/toolchain/linux_arm_newlib/bin/../lib/gcc/arm-nacl/4.9.2/../../../../arm-nacl/lib/libnacl.a(start_fa9ef7de.o) (__libc_init_array)
/home/jfb/nacl_sdk/pepper_42/toolchain/linux_arm_newlib/bin/../lib/gcc/arm-nacl/4.9.2/../../../../arm-nacl/lib/libcrt_common.a(lib_a-memcpy.o)
                              newlib/Release/debugging_arm.o (memcpy)
/home/jfb/nacl_sdk/pepper_42/toolchain/linux_arm_newlib/bin/../lib/gcc/arm-nacl/4.9.2/../../../../arm-nacl/lib/libcrt_common.a(lib_a-memset.o)
                              /home/jfb/nacl_sdk/pepper_42/toolchain/linux_arm_newlib/bin/../lib/gcc/arm-nacl/4.9.2/../../../../arm-nacl/lib/libpthread.a(nc_thread_7e478b15.o) (memset)
/home/jfb/nacl_sdk/pepper_42/toolchain/linux_arm_newlib/bin/../lib/gcc/arm-nacl/4.9.2/../../../../arm-nacl/lib/libcrt_common.a(lib_a-sleep.o)
                              /home/jfb/nacl_sdk/pepper_42//lib/newlib_arm/Release/liberror_handling.a(error_handling_arm.o) (sleep)
/home/jfb/nacl_sdk/pepper_42/toolchain/linux_arm_newlib/bin/../lib/gcc/arm-nacl/4.9.2/../../../../arm-nacl/lib/libcrt_common.a(lib_a-stdio.o)
                              /home/jfb/nacl_sdk/pepper_42/toolchain/linux_arm_newlib/bin/../lib/gcc/arm-nacl/4.9.2/../../../../arm-nacl/lib/libcrt_common.a(lib_a-findfp.o) (__sread)
/home/jfb/nacl_sdk/pepper_42/toolchain/linux_arm_newlib/bin/../lib/gcc/arm-nacl/4.9.2/../../../../arm-nacl/lib/libcrt_common.a(lib_a-strcmp.o)
                              newlib/Release/debugging_arm.o (strcmp)
/home/jfb/nacl_sdk/pepper_42/toolchain/linux_arm_newlib/bin/../lib/gcc/arm-nacl/4.9.2/../../../../arm-nacl/lib/libcrt_common.a(lib_a-strlen-armv7.o)
                              newlib/Release/debugging_arm.o (strlen)
/home/jfb/nacl_sdk/pepper_42/toolchain/linux_arm_newlib/bin/../lib/gcc/arm-nacl/4.9.2/../../../../arm-nacl/lib/libcrt_common.a(lib_a-strncmp.o)
                              /home/jfb/nacl_sdk/pepper_42/toolchain/linux_arm_newlib/bin/../lib/gcc/arm-nacl/4.9.2/../../../../arm-nacl/lib/libcrt_common.a(lib_a-getenv_r.o) (strncmp)
/home/jfb/nacl_sdk/pepper_42/toolchain/linux_arm_newlib/bin/../lib/gcc/arm-nacl/4.9.2/../../../../arm-nacl/lib/libcrt_common.a(lib_a-vfprintf.o)
                              /home/jfb/nacl_sdk/pepper_42/toolchain/linux_arm_newlib/bin/../lib/gcc/arm-nacl/4.9.2/../../../../arm-nacl/lib/libcrt_common.a(lib_a-fprintf.o) (_vfprintf_r)
/home/jfb/nacl_sdk/pepper_42/toolchain/linux_arm_newlib/bin/../lib/gcc/arm-nacl/4.9.2/../../../../arm-nacl/lib/libcrt_common.a(lib_a-vsnprintf.o)
                              /home/jfb/nacl_sdk/pepper_42//lib/newlib_arm/Release/liberror_handling.a(string_stream_arm.o) (vsnprintf)
/home/jfb/nacl_sdk/pepper_42/toolchain/linux_arm_newlib/bin/../lib/gcc/arm-nacl/4.9.2/../../../../arm-nacl/lib/libcrt_common.a(lib_a-vsprintf.o)
                              /home/jfb/nacl_sdk/pepper_42//lib/newlib_arm/Release/liberror_handling.a(string_stream_arm.o) (vsprintf)
/home/jfb/nacl_sdk/pepper_42/toolchain/linux_arm_newlib/bin/../lib/gcc/arm-nacl/4.9.2/../../../../arm-nacl/lib/libcrt_common.a(lib_a-wcrtomb.o)
                              /home/jfb/nacl_sdk/pepper_42/toolchain/linux_arm_newlib/bin/../lib/gcc/arm-nacl/4.9.2/../../../../arm-nacl/lib/libcrt_common.a(lib_a-vfprintf.o) (_wcrtomb_r)
/home/jfb/nacl_sdk/pepper_42/toolchain/linux_arm_newlib/bin/../lib/gcc/arm-nacl/4.9.2/../../../../arm-nacl/lib/libcrt_common.a(lib_a-wcsrtombs.o)
                              /home/jfb/nacl_sdk/pepper_42/toolchain/linux_arm_newlib/bin/../lib/gcc/arm-nacl/4.9.2/../../../../arm-nacl/lib/libcrt_common.a(lib_a-vfprintf.o) (_wcsrtombs_r)
/home/jfb/nacl_sdk/pepper_42/toolchain/linux_arm_newlib/bin/../lib/gcc/arm-nacl/4.9.2/../../../../arm-nacl/lib/libcrt_common.a(lib_a-wctomb_r.o)
                              /home/jfb/nacl_sdk/pepper_42/toolchain/linux_arm_newlib/bin/../lib/gcc/arm-nacl/4.9.2/../../../../arm-nacl/lib/libcrt_common.a(lib_a-wcrtomb.o) (__wctomb)
/home/jfb/nacl_sdk/pepper_42/toolchain/linux_arm_newlib/bin/../lib/gcc/arm-nacl/4.9.2/../../../../arm-nacl/lib/libcrt_common.a(lib_a-wsetup.o)
                              /home/jfb/nacl_sdk/pepper_42/toolchain/linux_arm_newlib/bin/../lib/gcc/arm-nacl/4.9.2/../../../../arm-nacl/lib/libcrt_common.a(lib_a-vfprintf.o) (__swsetup_r)
/home/jfb/nacl_sdk/pepper_42/toolchain/linux_arm_newlib/bin/../lib/gcc/arm-nacl/4.9.2/../../../../arm-nacl/lib/libcrt_common.a(lib_a-__atexit.o)
                              /home/jfb/nacl_sdk/pepper_42/toolchain/linux_arm_newlib/bin/../lib/gcc/arm-nacl/4.9.2/../../../../arm-nacl/lib/libcrt_common.a(lib_a-atexit.o) (__register_exitproc)
/home/jfb/nacl_sdk/pepper_42/toolchain/linux_arm_newlib/bin/../lib/gcc/arm-nacl/4.9.2/../../../../arm-nacl/lib/libcrt_common.a(lib_a-__call_atexit.o)
                              /home/jfb/nacl_sdk/pepper_42/toolchain/linux_arm_newlib/bin/../lib/gcc/arm-nacl/4.9.2/../../../../arm-nacl/lib/libcrt_common.a(lib_a-exit.o) (__call_exitprocs)
/home/jfb/nacl_sdk/pepper_42/toolchain/linux_arm_newlib/bin/../lib/gcc/arm-nacl/4.9.2/../../../../arm-nacl/lib/libcrt_common.a(lib_a-dtoa.o)
                              /home/jfb/nacl_sdk/pepper_42/toolchain/linux_arm_newlib/bin/../lib/gcc/arm-nacl/4.9.2/../../../../arm-nacl/lib/libcrt_common.a(lib_a-vfprintf.o) (_dtoa_r)
/home/jfb/nacl_sdk/pepper_42/toolchain/linux_arm_newlib/bin/../lib/gcc/arm-nacl/4.9.2/../../../../arm-nacl/lib/libcrt_common.a(lib_a-envlock.o)
                              /home/jfb/nacl_sdk/pepper_42/toolchain/linux_arm_newlib/bin/../lib/gcc/arm-nacl/4.9.2/../../../../arm-nacl/lib/libcrt_common.a(lib_a-getenv_r.o) (__env_lock)
/home/jfb/nacl_sdk/pepper_42/toolchain/linux_arm_newlib/bin/../lib/gcc/arm-nacl/4.9.2/../../../../arm-nacl/lib/libcrt_common.a(lib_a-fclose.o)
                              /home/jfb/nacl_sdk/pepper_42/toolchain/linux_arm_newlib/bin/../lib/gcc/arm-nacl/4.9.2/../../../../arm-nacl/lib/libcrt_common.a(lib_a-findfp.o) (_fclose_r)
/home/jfb/nacl_sdk/pepper_42/toolchain/linux_arm_newlib/bin/../lib/gcc/arm-nacl/4.9.2/../../../../arm-nacl/lib/libcrt_common.a(lib_a-fvwrite.o)
                              /home/jfb/nacl_sdk/pepper_42/toolchain/linux_arm_newlib/bin/../lib/gcc/arm-nacl/4.9.2/../../../../arm-nacl/lib/libcrt_common.a(lib_a-fwrite.o) (__sfvwrite_r)
/home/jfb/nacl_sdk/pepper_42/toolchain/linux_arm_newlib/bin/../lib/gcc/arm-nacl/4.9.2/../../../../arm-nacl/lib/libcrt_common.a(lib_a-locale.o)
                              /home/jfb/nacl_sdk/pepper_42/toolchain/linux_arm_newlib/bin/../lib/gcc/arm-nacl/4.9.2/../../../../arm-nacl/lib/libcrt_common.a(lib_a-vfprintf.o) (__locale_charset)
/home/jfb/nacl_sdk/pepper_42/toolchain/linux_arm_newlib/bin/../lib/gcc/arm-nacl/4.9.2/../../../../arm-nacl/lib/libcrt_common.a(lib_a-makebuf.o)
                              /home/jfb/nacl_sdk/pepper_42/toolchain/linux_arm_newlib/bin/../lib/gcc/arm-nacl/4.9.2/../../../../arm-nacl/lib/libcrt_common.a(lib_a-wsetup.o) (__smakebuf_r)
/home/jfb/nacl_sdk/pepper_42/toolchain/linux_arm_newlib/bin/../lib/gcc/arm-nacl/4.9.2/../../../../arm-nacl/lib/libcrt_common.a(lib_a-mbtowc_r.o)
                              /home/jfb/nacl_sdk/pepper_42/toolchain/linux_arm_newlib/bin/../lib/gcc/arm-nacl/4.9.2/../../../../arm-nacl/lib/libcrt_common.a(lib_a-locale.o) (__ascii_mbtowc)
/home/jfb/nacl_sdk/pepper_42/toolchain/linux_arm_newlib/bin/../lib/gcc/arm-nacl/4.9.2/../../../../arm-nacl/lib/libcrt_common.a(lib_a-memchr.o)
                              /home/jfb/nacl_sdk/pepper_42/toolchain/linux_arm_newlib/bin/../lib/gcc/arm-nacl/4.9.2/../../../../arm-nacl/lib/libcrt_common.a(lib_a-vfprintf.o) (memchr)
/home/jfb/nacl_sdk/pepper_42/toolchain/linux_arm_newlib/bin/../lib/gcc/arm-nacl/4.9.2/../../../../arm-nacl/lib/libcrt_common.a(lib_a-memmove.o)
                              /home/jfb/nacl_sdk/pepper_42/toolchain/linux_arm_newlib/bin/../lib/gcc/arm-nacl/4.9.2/../../../../arm-nacl/lib/libcrt_common.a(lib_a-fvwrite.o) (memmove)
/home/jfb/nacl_sdk/pepper_42/toolchain/linux_arm_newlib/bin/../lib/gcc/arm-nacl/4.9.2/../../../../arm-nacl/lib/libcrt_common.a(lib_a-mprec.o)
                              /home/jfb/nacl_sdk/pepper_42/toolchain/linux_arm_newlib/bin/../lib/gcc/arm-nacl/4.9.2/../../../../arm-nacl/lib/libcrt_common.a(lib_a-dtoa.o) (_Balloc)
/home/jfb/nacl_sdk/pepper_42/toolchain/linux_arm_newlib/bin/../lib/gcc/arm-nacl/4.9.2/../../../../arm-nacl/lib/libcrt_common.a(lib_a-s_fpclassify.o)
                              /home/jfb/nacl_sdk/pepper_42/toolchain/linux_arm_newlib/bin/../lib/gcc/arm-nacl/4.9.2/../../../../arm-nacl/lib/libcrt_common.a(lib_a-vfprintf.o) (__fpclassifyd)
/home/jfb/nacl_sdk/pepper_42/toolchain/linux_arm_newlib/bin/../lib/gcc/arm-nacl/4.9.2/../../../../arm-nacl/lib/libcrt_common.a(lib_a-s_frexp.o)
                              /home/jfb/nacl_sdk/pepper_42/toolchain/linux_arm_newlib/bin/../lib/gcc/arm-nacl/4.9.2/../../../../arm-nacl/lib/libcrt_common.a(lib_a-vfprintf.o) (frexp)
/home/jfb/nacl_sdk/pepper_42/toolchain/linux_arm_newlib/bin/../lib/gcc/arm-nacl/4.9.2/../../../../arm-nacl/lib/libcrt_common.a(lib_a-strcasecmp.o)
                              /home/jfb/nacl_sdk/pepper_42/toolchain/linux_arm_newlib/bin/../lib/gcc/arm-nacl/4.9.2/../../../../arm-nacl/lib/libcrt_common.a(lib_a-locale.o) (strcasecmp)
/home/jfb/nacl_sdk/pepper_42/toolchain/linux_arm_newlib/bin/../lib/gcc/arm-nacl/4.9.2/../../../../arm-nacl/lib/libcrt_common.a(lib_a-strcat.o)
                              /home/jfb/nacl_sdk/pepper_42/toolchain/linux_arm_newlib/bin/../lib/gcc/arm-nacl/4.9.2/../../../../arm-nacl/lib/libcrt_common.a(lib_a-locale.o) (strcat)
/home/jfb/nacl_sdk/pepper_42/toolchain/linux_arm_newlib/bin/../lib/gcc/arm-nacl/4.9.2/../../../../arm-nacl/lib/libcrt_common.a(lib_a-strchr.o)
                              /home/jfb/nacl_sdk/pepper_42/toolchain/linux_arm_newlib/bin/../lib/gcc/arm-nacl/4.9.2/../../../../arm-nacl/lib/libcrt_common.a(lib_a-locale.o) (strchr)
/home/jfb/nacl_sdk/pepper_42/toolchain/linux_arm_newlib/bin/../lib/gcc/arm-nacl/4.9.2/../../../../arm-nacl/lib/libcrt_common.a(lib_a-strcpy.o)
                              /home/jfb/nacl_sdk/pepper_42/toolchain/linux_arm_newlib/bin/../lib/gcc/arm-nacl/4.9.2/../../../../arm-nacl/lib/libcrt_common.a(lib_a-locale.o) (strcpy)
/home/jfb/nacl_sdk/pepper_42/toolchain/linux_arm_newlib/bin/../lib/gcc/arm-nacl/4.9.2/../../../../arm-nacl/lib/libcrt_common.a(lib_a-strlcpy.o)
                              /home/jfb/nacl_sdk/pepper_42/toolchain/linux_arm_newlib/bin/../lib/gcc/arm-nacl/4.9.2/../../../../arm-nacl/lib/libcrt_common.a(lib_a-locale.o) (strlcpy)
/home/jfb/nacl_sdk/pepper_42/toolchain/linux_arm_newlib/bin/../lib/gcc/arm-nacl/4.9.2/../../../../arm-nacl/lib/libcrt_common.a(lib_a-strncasecmp.o)
                              /home/jfb/nacl_sdk/pepper_42/toolchain/linux_arm_newlib/bin/../lib/gcc/arm-nacl/4.9.2/../../../../arm-nacl/lib/libcrt_common.a(lib_a-locale.o) (strncasecmp)
/home/jfb/nacl_sdk/pepper_42/toolchain/linux_arm_newlib/bin/../lib/gcc/arm-nacl/4.9.2/../../../../arm-nacl/lib/libcrt_common.a(lib_a-strncpy.o)
                              /home/jfb/nacl_sdk/pepper_42/toolchain/linux_arm_newlib/bin/../lib/gcc/arm-nacl/4.9.2/../../../../arm-nacl/lib/libcrt_common.a(lib_a-vfprintf.o) (strncpy)
/home/jfb/nacl_sdk/pepper_42/toolchain/linux_arm_newlib/bin/../lib/gcc/arm-nacl/4.9.2/../../../../arm-nacl/lib/libcrt_common.a(lib_a-strtol.o)
                              /home/jfb/nacl_sdk/pepper_42/toolchain/linux_arm_newlib/bin/../lib/gcc/arm-nacl/4.9.2/../../../../arm-nacl/lib/libcrt_common.a(lib_a-locale.o) (_strtol_r)
/home/jfb/nacl_sdk/pepper_42/toolchain/linux_arm_newlib/bin/../lib/gcc/arm-nacl/4.9.2/../../../../arm-nacl/lib/libcrt_common.a(lib_a-svfprintf.o)
                              /home/jfb/nacl_sdk/pepper_42/toolchain/linux_arm_newlib/bin/../lib/gcc/arm-nacl/4.9.2/../../../../arm-nacl/lib/libcrt_common.a(lib_a-vsnprintf.o) (_svfprintf_r)
/home/jfb/nacl_sdk/pepper_42/toolchain/linux_arm_newlib/bin/../lib/gcc/arm-nacl/4.9.2/../../../../arm-nacl/lib/libcrt_common.a(lib_a-vfiprintf.o)
                              /home/jfb/nacl_sdk/pepper_42/toolchain/linux_arm_newlib/bin/../lib/gcc/arm-nacl/4.9.2/../../../../arm-nacl/lib/libcrt_common.a(lib_a-vfprintf.o) (__sprint_r)
/home/jfb/nacl_sdk/pepper_42/toolchain/linux_arm_newlib/bin/../lib/gcc/arm-nacl/4.9.2/../../../../arm-nacl/lib/libcrt_common.a(lib_a-wcsnrtombs.o)
                              /home/jfb/nacl_sdk/pepper_42/toolchain/linux_arm_newlib/bin/../lib/gcc/arm-nacl/4.9.2/../../../../arm-nacl/lib/libcrt_common.a(lib_a-wcsrtombs.o) (_wcsnrtombs_r)
/home/jfb/nacl_sdk/pepper_42/toolchain/linux_arm_newlib/bin/../lib/gcc/arm-nacl/4.9.2/../../../../arm-nacl/lib/libcrt_common.a(lib_a-ctype_.o)
                              /home/jfb/nacl_sdk/pepper_42/toolchain/linux_arm_newlib/bin/../lib/gcc/arm-nacl/4.9.2/../../../../arm-nacl/lib/libcrt_common.a(lib_a-locale.o) (__set_ctype)
/home/jfb/nacl_sdk/pepper_42/toolchain/linux_arm_newlib/bin/../lib/gcc/arm-nacl/4.9.2/../../../../arm-nacl/lib/libcrt_common.a(lib_a-fputwc.o)
                              /home/jfb/nacl_sdk/pepper_42/toolchain/linux_arm_newlib/bin/../lib/gcc/arm-nacl/4.9.2/../../../../arm-nacl/lib/libcrt_common.a(lib_a-vfiprintf.o) (_fputwc_r)
/home/jfb/nacl_sdk/pepper_42/toolchain/linux_arm_newlib/bin/../lib/gcc/arm-nacl/4.9.2/../../../../arm-nacl/lib/libcrt_common.a(lib_a-svfiprintf.o)
                              /home/jfb/nacl_sdk/pepper_42/toolchain/linux_arm_newlib/bin/../lib/gcc/arm-nacl/4.9.2/../../../../arm-nacl/lib/libcrt_common.a(lib_a-svfprintf.o) (__ssprint_r)
/home/jfb/nacl_sdk/pepper_42/toolchain/linux_arm_newlib/bin/../lib/gcc/arm-nacl/4.9.2/../../../../arm-nacl/lib/libcrt_common.a(lib_a-wbuf.o)
                              /home/jfb/nacl_sdk/pepper_42/toolchain/linux_arm_newlib/bin/../lib/gcc/arm-nacl/4.9.2/../../../../arm-nacl/lib/libcrt_common.a(lib_a-fputwc.o) (__swbuf_r)
/home/jfb/nacl_sdk/pepper_42/toolchain/linux_arm_newlib/bin/../lib/gcc/arm-nacl/4.9.2/../../../../arm-nacl/lib/libnacl.a(close_e9b92fbd.o)
                              /home/jfb/nacl_sdk/pepper_42/toolchain/linux_arm_newlib/bin/../lib/gcc/arm-nacl/4.9.2/../../../../arm-nacl/lib/libcrt_common.a(lib_a-stdio.o) (close)
/home/jfb/nacl_sdk/pepper_42/toolchain/linux_arm_newlib/bin/../lib/gcc/arm-nacl/4.9.2/../../../../arm-nacl/lib/libnacl.a(isatty_02f56e94.o)
                              /home/jfb/nacl_sdk/pepper_42/toolchain/linux_arm_newlib/bin/../lib/gcc/arm-nacl/4.9.2/../../../../arm-nacl/lib/libcrt_common.a(lib_a-makebuf.o) (isatty)
/home/jfb/nacl_sdk/pepper_42/toolchain/linux_arm_newlib/bin/../lib/gcc/arm-nacl/4.9.2/../../../../arm-nacl/lib/libnacl.a(nacl_irt_fdio_b571b5e7.o)
                              /home/jfb/nacl_sdk/pepper_42/toolchain/linux_arm_newlib/bin/../lib/gcc/arm-nacl/4.9.2/../../../../arm-nacl/lib/libnacl.a(isatty_02f56e94.o) (__libnacl_irt_dev_fdio_init)
/home/jfb/nacl_sdk/pepper_42/toolchain/linux_arm_newlib/bin/../lib/gcc/arm-nacl/4.9.2/../../../../arm-nacl/lib/libnacl.a(fstat_0540ff63.o)
                              /home/jfb/nacl_sdk/pepper_42/toolchain/linux_arm_newlib/bin/../lib/gcc/arm-nacl/4.9.2/../../../../arm-nacl/lib/libcrt_common.a(lib_a-makebuf.o) (fstat)
/home/jfb/nacl_sdk/pepper_42/toolchain/linux_arm_newlib/bin/../lib/gcc/arm-nacl/4.9.2/../../../../arm-nacl/lib/libnacl.a(lseek_64d2d05c.o)
                              /home/jfb/nacl_sdk/pepper_42/toolchain/linux_arm_newlib/bin/../lib/gcc/arm-nacl/4.9.2/../../../../arm-nacl/lib/libcrt_common.a(lib_a-stdio.o) (lseek)
/home/jfb/nacl_sdk/pepper_42/toolchain/linux_arm_newlib/bin/../lib/gcc/arm-nacl/4.9.2/../../../../arm-nacl/lib/libnacl.a(read_df872e10.o)
                              /home/jfb/nacl_sdk/pepper_42/toolchain/linux_arm_newlib/bin/../lib/gcc/arm-nacl/4.9.2/../../../../arm-nacl/lib/libcrt_common.a(lib_a-stdio.o) (read)
/home/jfb/nacl_sdk/pepper_42/toolchain/linux_arm_newlib/bin/../lib/gcc/arm-nacl/4.9.2/../../../../arm-nacl/lib/libnacl.a(nanosleep_e59fdef1.o)
                              /home/jfb/nacl_sdk/pepper_42/toolchain/linux_arm_newlib/bin/../lib/gcc/arm-nacl/4.9.2/../../../../arm-nacl/lib/libcrt_common.a(lib_a-sleep.o) (nanosleep)
/home/jfb/nacl_sdk/pepper_42/toolchain/linux_arm_newlib/bin/../lib/gcc/arm-nacl/4.9.2/libgcc.a(_udivsi3.o)
                              /home/jfb/nacl_sdk/pepper_42/toolchain/linux_arm_newlib/bin/../lib/gcc/arm-nacl/4.9.2/../../../../arm-nacl/lib/libnacl.a(malloc_222c4a1e.o) (__aeabi_uidiv)
/home/jfb/nacl_sdk/pepper_42/toolchain/linux_arm_newlib/bin/../lib/gcc/arm-nacl/4.9.2/libgcc.a(_divsi3.o)
                              /home/jfb/nacl_sdk/pepper_42/toolchain/linux_arm_newlib/bin/../lib/gcc/arm-nacl/4.9.2/../../../../arm-nacl/lib/libcrt_common.a(lib_a-fvwrite.o) (__aeabi_idiv)
/home/jfb/nacl_sdk/pepper_42/toolchain/linux_arm_newlib/bin/../lib/gcc/arm-nacl/4.9.2/libgcc.a(_aeabi_uldivmod.o)
                              /home/jfb/nacl_sdk/pepper_42/toolchain/linux_arm_newlib/bin/../lib/gcc/arm-nacl/4.9.2/../../../../arm-nacl/lib/libcrt_common.a(lib_a-vfprintf.o) (__aeabi_uldivmod)
/home/jfb/nacl_sdk/pepper_42/toolchain/linux_arm_newlib/bin/../lib/gcc/arm-nacl/4.9.2/libgcc.a(_dvmd_nacl.o)
                              /home/jfb/nacl_sdk/pepper_42/toolchain/linux_arm_newlib/bin/../lib/gcc/arm-nacl/4.9.2/libgcc.a(_udivsi3.o) (__aeabi_idiv0)
/home/jfb/nacl_sdk/pepper_42/toolchain/linux_arm_newlib/bin/../lib/gcc/arm-nacl/4.9.2/libgcc.a(bpabi.o)
                              /home/jfb/nacl_sdk/pepper_42/toolchain/linux_arm_newlib/bin/../lib/gcc/arm-nacl/4.9.2/libgcc.a(_aeabi_uldivmod.o) (__gnu_uldivmod_helper)
/home/jfb/nacl_sdk/pepper_42/toolchain/linux_arm_newlib/bin/../lib/gcc/arm-nacl/4.9.2/libgcc.a(_divdi3.o)
                              /home/jfb/nacl_sdk/pepper_42/toolchain/linux_arm_newlib/bin/../lib/gcc/arm-nacl/4.9.2/libgcc.a(bpabi.o) (__divdi3)
/home/jfb/nacl_sdk/pepper_42/toolchain/linux_arm_newlib/bin/../lib/gcc/arm-nacl/4.9.2/libgcc.a(_udivdi3.o)
                              /home/jfb/nacl_sdk/pepper_42/toolchain/linux_arm_newlib/bin/../lib/gcc/arm-nacl/4.9.2/libgcc.a(bpabi.o) (__udivdi3)

Allocating common symbols
Common symbol       size              file

__nacl_irt_query    0x4               /home/jfb/nacl_sdk/pepper_42/toolchain/linux_arm_newlib/bin/../lib/gcc/arm-nacl/4.9.2/../../../../arm-nacl/lib/libnacl.a(nacl_irt_6de1d53f.o)
__libnacl_irt_dev_filename
                    0x40              /home/jfb/nacl_sdk/pepper_42/toolchain/linux_arm_newlib/bin/../lib/gcc/arm-nacl/4.9.2/../../../../arm-nacl/lib/libnacl.a(nacl_irt_6de1d53f.o)
__nc_thread_initialized
                    0x4               /home/jfb/nacl_sdk/pepper_42/toolchain/linux_arm_newlib/bin/../lib/gcc/arm-nacl/4.9.2/../../../../arm-nacl/lib/libpthread.a(nc_thread_7e478b15.o)
g_PPAPIThread       0x4               newlib/Release/debugging_arm.o
__libnacl_irt_clock
                    0x8               /home/jfb/nacl_sdk/pepper_42/toolchain/linux_arm_newlib/bin/../lib/gcc/arm-nacl/4.9.2/../../../../arm-nacl/lib/libnacl.a(nacl_irt_6de1d53f.o)
__nc_thread_management_lock
                    0x14              /home/jfb/nacl_sdk/pepper_42/toolchain/linux_arm_newlib/bin/../lib/gcc/arm-nacl/4.9.2/../../../../arm-nacl/lib/libpthread.a(nc_thread_7e478b15.o)
__libnacl_irt_futex
                    0x8               /home/jfb/nacl_sdk/pepper_42/toolchain/linux_arm_newlib/bin/../lib/gcc/arm-nacl/4.9.2/../../../../arm-nacl/lib/libpthread.a(nc_init_irt_d3daafc0.o)
g_Instance          0x4               newlib/Release/debugging_arm.o
__nc_memory_block_counter
                    0x8               /home/jfb/nacl_sdk/pepper_42/toolchain/linux_arm_newlib/bin/../lib/gcc/arm-nacl/4.9.2/../../../../arm-nacl/lib/libpthread.a(nc_thread_7e478b15.o)
__nacl_initial_thread_stack_end
                    0x4               /home/jfb/nacl_sdk/pepper_42/toolchain/linux_arm_newlib/bin/../lib/gcc/arm-nacl/4.9.2/../../../../arm-nacl/lib/libnacl.a(start_fa9ef7de.o)
__libnacl_irt_memory
                    0xc               /home/jfb/nacl_sdk/pepper_42/toolchain/linux_arm_newlib/bin/../lib/gcc/arm-nacl/4.9.2/../../../../arm-nacl/lib/libnacl.a(nacl_irt_6de1d53f.o)
__nc_initial_thread_id
                    0x4               /home/jfb/nacl_sdk/pepper_42/toolchain/linux_arm_newlib/bin/../lib/gcc/arm-nacl/4.9.2/../../../../arm-nacl/lib/libpthread.a(nc_thread_7e478b15.o)
__libnacl_irt_dev_fdio
                    0x38              /home/jfb/nacl_sdk/pepper_42/toolchain/linux_arm_newlib/bin/../lib/gcc/arm-nacl/4.9.2/../../../../arm-nacl/lib/libnacl.a(nacl_irt_6de1d53f.o)
g_NexeThread        0x4               newlib/Release/debugging_arm.o
__libnacl_irt_basic
                    0x18              /home/jfb/nacl_sdk/pepper_42/toolchain/linux_arm_newlib/bin/../lib/gcc/arm-nacl/4.9.2/../../../../arm-nacl/lib/libnacl.a(nacl_irt_6de1d53f.o)
__nc_thread_memory_blocks
                    0x10              /home/jfb/nacl_sdk/pepper_42/toolchain/linux_arm_newlib/bin/../lib/gcc/arm-nacl/4.9.2/../../../../arm-nacl/lib/libpthread.a(nc_thread_7e478b15.o)
__libnacl_irt_thread
                    0xc               /home/jfb/nacl_sdk/pepper_42/toolchain/linux_arm_newlib/bin/../lib/gcc/arm-nacl/4.9.2/../../../../arm-nacl/lib/libpthread.a(nc_thread_7e478b15.o)
__libnacl_irt_tls   0x8               /home/jfb/nacl_sdk/pepper_42/toolchain/linux_arm_newlib/bin/../lib/gcc/arm-nacl/4.9.2/../../../../arm-nacl/lib/libnacl.a(nacl_irt_6de1d53f.o)
__libnacl_irt_dev_getpid
                    0x4               /home/jfb/nacl_sdk/pepper_42/toolchain/linux_arm_newlib/bin/../lib/gcc/arm-nacl/4.9.2/../../../../arm-nacl/lib/libnacl.a(nacl_irt_6de1d53f.o)

Discarded input sections

 .group         0x00000000        0x8 /home/jfb/nacl_sdk/pepper_42/toolchain/linux_arm_newlib/bin/../lib/gcc/arm-nacl/4.9.2/../../../../arm-nacl/lib/crti.o
 .group         0x00000000        0x8 /home/jfb/nacl_sdk/pepper_42/toolchain/linux_arm_newlib/bin/../lib/gcc/arm-nacl/4.9.2/crtbegin.o
 .note.NaCl.ABI.arm
                0x00000000       0x18 /home/jfb/nacl_sdk/pepper_42/toolchain/linux_arm_newlib/bin/../lib/gcc/arm-nacl/4.9.2/crtbegin.o
 .note.GNU-stack
                0x00000000        0x0 /home/jfb/nacl_sdk/pepper_42/toolchain/linux_arm_newlib/bin/../lib/gcc/arm-nacl/4.9.2/crtbegin.o
 .group         0x00000000        0x8 newlib/Release/debugging_arm.o
 .note.NaCl.ABI.arm
                0x00000000       0x18 newlib/Release/debugging_arm.o
 .note.GNU-stack
                0x00000000        0x0 newlib/Release/debugging_arm.o
 .group         0x00000000        0x8 /home/jfb/nacl_sdk/pepper_42//lib/newlib_arm/Release/liberror_handling.a(error_handling_arm.o)
 .note.NaCl.ABI.arm
                0x00000000       0x18 /home/jfb/nacl_sdk/pepper_42//lib/newlib_arm/Release/liberror_handling.a(error_handling_arm.o)
 .note.GNU-stack
                0x00000000        0x0 /home/jfb/nacl_sdk/pepper_42//lib/newlib_arm/Release/liberror_handling.a(error_handling_arm.o)
 .group         0x00000000        0x8 /home/jfb/nacl_sdk/pepper_42//lib/newlib_arm/Release/liberror_handling.a(string_stream_arm.o)
 .note.NaCl.ABI.arm
                0x00000000       0x18 /home/jfb/nacl_sdk/pepper_42//lib/newlib_arm/Release/liberror_handling.a(string_stream_arm.o)
 .note.GNU-stack
                0x00000000        0x0 /home/jfb/nacl_sdk/pepper_42//lib/newlib_arm/Release/liberror_handling.a(string_stream_arm.o)
 .group         0x00000000        0x8 /home/jfb/nacl_sdk/pepper_42/toolchain/linux_arm_newlib/bin/../lib/gcc/arm-nacl/4.9.2/../../../../arm-nacl/lib/libppapi_stub.a(plugin_main_irt_21ce9d26.o)
 .note.NaCl.ABI.arm
                0x00000000       0x18 /home/jfb/nacl_sdk/pepper_42/toolchain/linux_arm_newlib/bin/../lib/gcc/arm-nacl/4.9.2/../../../../arm-nacl/lib/libppapi_stub.a(plugin_main_irt_21ce9d26.o)
 .note.GNU-stack
                0x00000000        0x0 /home/jfb/nacl_sdk/pepper_42/toolchain/linux_arm_newlib/bin/../lib/gcc/arm-nacl/4.9.2/../../../../arm-nacl/lib/libppapi_stub.a(plugin_main_irt_21ce9d26.o)
 .group         0x00000000        0x8 /home/jfb/nacl_sdk/pepper_42/toolchain/linux_arm_newlib/bin/../lib/gcc/arm-nacl/4.9.2/../../../../arm-nacl/lib/libppapi_stub.a(ppapi_plugin_main_399d0cf7.o)
 .note.NaCl.ABI.arm
                0x00000000       0x18 /home/jfb/nacl_sdk/pepper_42/toolchain/linux_arm_newlib/bin/../lib/gcc/arm-nacl/4.9.2/../../../../arm-nacl/lib/libppapi_stub.a(ppapi_plugin_main_399d0cf7.o)
 .note.GNU-stack
                0x00000000        0x0 /home/jfb/nacl_sdk/pepper_42/toolchain/linux_arm_newlib/bin/../lib/gcc/arm-nacl/4.9.2/../../../../arm-nacl/lib/libppapi_stub.a(ppapi_plugin_main_399d0cf7.o)
 .group         0x00000000        0x8 /home/jfb/nacl_sdk/pepper_42/toolchain/linux_arm_newlib/bin/../lib/gcc/arm-nacl/4.9.2/../../../../arm-nacl/lib/libppapi_stub.a(ppapi_plugin_start_8da67623.o)
 .note.NaCl.ABI.arm
                0x00000000       0x18 /home/jfb/nacl_sdk/pepper_42/toolchain/linux_arm_newlib/bin/../lib/gcc/arm-nacl/4.9.2/../../../../arm-nacl/lib/libppapi_stub.a(ppapi_plugin_start_8da67623.o)
 .note.GNU-stack
                0x00000000        0x0 /home/jfb/nacl_sdk/pepper_42/toolchain/linux_arm_newlib/bin/../lib/gcc/arm-nacl/4.9.2/../../../../arm-nacl/lib/libppapi_stub.a(ppapi_plugin_start_8da67623.o)
 .group         0x00000000        0x8 /home/jfb/nacl_sdk/pepper_42/toolchain/linux_arm_newlib/bin/../lib/gcc/arm-nacl/4.9.2/../../../../arm-nacl/lib/libppapi_stub.a(thread_creator_ccf263e1.o)
 .note.NaCl.ABI.arm
                0x00000000       0x18 /home/jfb/nacl_sdk/pepper_42/toolchain/linux_arm_newlib/bin/../lib/gcc/arm-nacl/4.9.2/../../../../arm-nacl/lib/libppapi_stub.a(thread_creator_ccf263e1.o)
 .note.GNU-stack
                0x00000000        0x0 /home/jfb/nacl_sdk/pepper_42/toolchain/linux_arm_newlib/bin/../lib/gcc/arm-nacl/4.9.2/../../../../arm-nacl/lib/libppapi_stub.a(thread_creator_ccf263e1.o)
 .group         0x00000000        0x8 /home/jfb/nacl_sdk/pepper_42/toolchain/linux_arm_newlib/bin/../lib/gcc/arm-nacl/4.9.2/../../../../arm-nacl/lib/libpthread.a(nc_thread_7e478b15.o)
 .note.NaCl.ABI.arm
                0x00000000       0x18 /home/jfb/nacl_sdk/pepper_42/toolchain/linux_arm_newlib/bin/../lib/gcc/arm-nacl/4.9.2/../../../../arm-nacl/lib/libpthread.a(nc_thread_7e478b15.o)
 .note.GNU-stack
                0x00000000        0x0 /home/jfb/nacl_sdk/pepper_42/toolchain/linux_arm_newlib/bin/../lib/gcc/arm-nacl/4.9.2/../../../../arm-nacl/lib/libpthread.a(nc_thread_7e478b15.o)
 .group         0x00000000        0x8 /home/jfb/nacl_sdk/pepper_42/toolchain/linux_arm_newlib/bin/../lib/gcc/arm-nacl/4.9.2/../../../../arm-nacl/lib/libpthread.a(nc_condvar_305aa45a.o)
 .note.NaCl.ABI.arm
                0x00000000       0x18 /home/jfb/nacl_sdk/pepper_42/toolchain/linux_arm_newlib/bin/../lib/gcc/arm-nacl/4.9.2/../../../../arm-nacl/lib/libpthread.a(nc_condvar_305aa45a.o)
 .note.GNU-stack
                0x00000000        0x0 /home/jfb/nacl_sdk/pepper_42/toolchain/linux_arm_newlib/bin/../lib/gcc/arm-nacl/4.9.2/../../../../arm-nacl/lib/libpthread.a(nc_condvar_305aa45a.o)
 .group         0x00000000        0x8 /home/jfb/nacl_sdk/pepper_42/toolchain/linux_arm_newlib/bin/../lib/gcc/arm-nacl/4.9.2/../../../../arm-nacl/lib/libpthread.a(dynamic_annotations_33ba59cc.o)
 .note.NaCl.ABI.arm
                0x00000000       0x18 /home/jfb/nacl_sdk/pepper_42/toolchain/linux_arm_newlib/bin/../lib/gcc/arm-nacl/4.9.2/../../../../arm-nacl/lib/libpthread.a(dynamic_annotations_33ba59cc.o)
 .note.GNU-stack
                0x00000000        0x0 /home/jfb/nacl_sdk/pepper_42/toolchain/linux_arm_newlib/bin/../lib/gcc/arm-nacl/4.9.2/../../../../arm-nacl/lib/libpthread.a(dynamic_annotations_33ba59cc.o)
 .group         0x00000000        0x8 /home/jfb/nacl_sdk/pepper_42/toolchain/linux_arm_newlib/bin/../lib/gcc/arm-nacl/4.9.2/../../../../arm-nacl/lib/libpthread.a(nc_mutex_86341ae1.o)
 .note.NaCl.ABI.arm
                0x00000000       0x18 /home/jfb/nacl_sdk/pepper_42/toolchain/linux_arm_newlib/bin/../lib/gcc/arm-nacl/4.9.2/../../../../arm-nacl/lib/libpthread.a(nc_mutex_86341ae1.o)
 .note.GNU-stack
                0x00000000        0x0 /home/jfb/nacl_sdk/pepper_42/toolchain/linux_arm_newlib/bin/../lib/gcc/arm-nacl/4.9.2/../../../../arm-nacl/lib/libpthread.a(nc_mutex_86341ae1.o)
 .group         0x00000000        0x8 /home/jfb/nacl_sdk/pepper_42/toolchain/linux_arm_newlib/bin/../lib/gcc/arm-nacl/4.9.2/../../../../arm-nacl/lib/libpthread.a(nc_init_irt_d3daafc0.o)
 .note.NaCl.ABI.arm
                0x00000000       0x18 /home/jfb/nacl_sdk/pepper_42/toolchain/linux_arm_newlib/bin/../lib/gcc/arm-nacl/4.9.2/../../../../arm-nacl/lib/libpthread.a(nc_init_irt_d3daafc0.o)
 .note.GNU-stack
                0x00000000        0x0 /home/jfb/nacl_sdk/pepper_42/toolchain/linux_arm_newlib/bin/../lib/gcc/arm-nacl/4.9.2/../../../../arm-nacl/lib/libpthread.a(nc_init_irt_d3daafc0.o)
 .group         0x00000000        0x8 /home/jfb/nacl_sdk/pepper_42/toolchain/linux_arm_newlib/bin/../lib/gcc/arm-nacl/4.9.2/libgcc.a(unwind-arm.o)
 .note.NaCl.ABI.arm
                0x00000000       0x18 /home/jfb/nacl_sdk/pepper_42/toolchain/linux_arm_newlib/bin/../lib/gcc/arm-nacl/4.9.2/libgcc.a(unwind-arm.o)
 .note.GNU-stack
                0x00000000        0x0 /home/jfb/nacl_sdk/pepper_42/toolchain/linux_arm_newlib/bin/../lib/gcc/arm-nacl/4.9.2/libgcc.a(unwind-arm.o)
 .group         0x00000000        0x8 /home/jfb/nacl_sdk/pepper_42/toolchain/linux_arm_newlib/bin/../lib/gcc/arm-nacl/4.9.2/libgcc.a(libunwind.o)
 .note.NaCl.ABI.arm
                0x00000000       0x18 /home/jfb/nacl_sdk/pepper_42/toolchain/linux_arm_newlib/bin/../lib/gcc/arm-nacl/4.9.2/libgcc.a(libunwind.o)
 .note.GNU-stack
                0x00000000        0x0 /home/jfb/nacl_sdk/pepper_42/toolchain/linux_arm_newlib/bin/../lib/gcc/arm-nacl/4.9.2/libgcc.a(libunwind.o)
 .group         0x00000000        0x8 /home/jfb/nacl_sdk/pepper_42/toolchain/linux_arm_newlib/bin/../lib/gcc/arm-nacl/4.9.2/libgcc.a(pr-support.o)
 .note.NaCl.ABI.arm
                0x00000000       0x18 /home/jfb/nacl_sdk/pepper_42/toolchain/linux_arm_newlib/bin/../lib/gcc/arm-nacl/4.9.2/libgcc.a(pr-support.o)
 .note.GNU-stack
                0x00000000        0x0 /home/jfb/nacl_sdk/pepper_42/toolchain/linux_arm_newlib/bin/../lib/gcc/arm-nacl/4.9.2/libgcc.a(pr-support.o)
 .group         0x00000000        0x8 /home/jfb/nacl_sdk/pepper_42/toolchain/linux_arm_newlib/bin/../lib/gcc/arm-nacl/4.9.2/../../../../arm-nacl/lib/libnacl.a(_exit_710c7d0d.o)
 .note.NaCl.ABI.arm
                0x00000000       0x18 /home/jfb/nacl_sdk/pepper_42/toolchain/linux_arm_newlib/bin/../lib/gcc/arm-nacl/4.9.2/../../../../arm-nacl/lib/libnacl.a(_exit_710c7d0d.o)
 .note.GNU-stack
                0x00000000        0x0 /home/jfb/nacl_sdk/pepper_42/toolchain/linux_arm_newlib/bin/../lib/gcc/arm-nacl/4.9.2/../../../../arm-nacl/lib/libnacl.a(_exit_710c7d0d.o)
 .group         0x00000000        0x8 /home/jfb/nacl_sdk/pepper_42/toolchain/linux_arm_newlib/bin/../lib/gcc/arm-nacl/4.9.2/../../../../arm-nacl/lib/libnacl.a(abort_9f6b5845.o)
 .note.NaCl.ABI.arm
                0x00000000       0x18 /home/jfb/nacl_sdk/pepper_42/toolchain/linux_arm_newlib/bin/../lib/gcc/arm-nacl/4.9.2/../../../../arm-nacl/lib/libnacl.a(abort_9f6b5845.o)
 .note.GNU-stack
                0x00000000        0x0 /home/jfb/nacl_sdk/pepper_42/toolchain/linux_arm_newlib/bin/../lib/gcc/arm-nacl/4.9.2/../../../../arm-nacl/lib/libnacl.a(abort_9f6b5845.o)
 .group         0x00000000        0x8 /home/jfb/nacl_sdk/pepper_42/toolchain/linux_arm_newlib/bin/../lib/gcc/arm-nacl/4.9.2/../../../../arm-nacl/lib/libnacl.a(environ_25cd24d8.o)
 .note.NaCl.ABI.arm
                0x00000000       0x18 /home/jfb/nacl_sdk/pepper_42/toolchain/linux_arm_newlib/bin/../lib/gcc/arm-nacl/4.9.2/../../../../arm-nacl/lib/libnacl.a(environ_25cd24d8.o)
 .note.GNU-stack
                0x00000000        0x0 /home/jfb/nacl_sdk/pepper_42/toolchain/linux_arm_newlib/bin/../lib/gcc/arm-nacl/4.9.2/../../../../arm-nacl/lib/libnacl.a(environ_25cd24d8.o)
 .group         0x00000000        0x8 /home/jfb/nacl_sdk/pepper_42/toolchain/linux_arm_newlib/bin/../lib/gcc/arm-nacl/4.9.2/../../../../arm-nacl/lib/libnacl.a(start_fa9ef7de.o)
 .note.NaCl.ABI.arm
                0x00000000       0x18 /home/jfb/nacl_sdk/pepper_42/toolchain/linux_arm_newlib/bin/../lib/gcc/arm-nacl/4.9.2/../../../../arm-nacl/lib/libnacl.a(start_fa9ef7de.o)
 .note.GNU-stack
                0x00000000        0x0 /home/jfb/nacl_sdk/pepper_42/toolchain/linux_arm_newlib/bin/../lib/gcc/arm-nacl/4.9.2/../../../../arm-nacl/lib/libnacl.a(start_fa9ef7de.o)
 .group         0x00000000        0x8 /home/jfb/nacl_sdk/pepper_42/toolchain/linux_arm_newlib/bin/../lib/gcc/arm-nacl/4.9.2/../../../../arm-nacl/lib/libnacl.a(malloc_222c4a1e.o)
 .note.NaCl.ABI.arm
                0x00000000       0x18 /home/jfb/nacl_sdk/pepper_42/toolchain/linux_arm_newlib/bin/../lib/gcc/arm-nacl/4.9.2/../../../../arm-nacl/lib/libnacl.a(malloc_222c4a1e.o)
 .note.GNU-stack
                0x00000000        0x0 /home/jfb/nacl_sdk/pepper_42/toolchain/linux_arm_newlib/bin/../lib/gcc/arm-nacl/4.9.2/../../../../arm-nacl/lib/libnacl.a(malloc_222c4a1e.o)
 .group         0x00000000        0x8 /home/jfb/nacl_sdk/pepper_42/toolchain/linux_arm_newlib/bin/../lib/gcc/arm-nacl/4.9.2/../../../../arm-nacl/lib/libnacl.a(nacl_irt_6de1d53f.o)
 .note.NaCl.ABI.arm
                0x00000000       0x18 /home/jfb/nacl_sdk/pepper_42/toolchain/linux_arm_newlib/bin/../lib/gcc/arm-nacl/4.9.2/../../../../arm-nacl/lib/libnacl.a(nacl_irt_6de1d53f.o)
 .note.GNU-stack
                0x00000000        0x0 /home/jfb/nacl_sdk/pepper_42/toolchain/linux_arm_newlib/bin/../lib/gcc/arm-nacl/4.9.2/../../../../arm-nacl/lib/libnacl.a(nacl_irt_6de1d53f.o)
 .group         0x00000000        0x8 /home/jfb/nacl_sdk/pepper_42/toolchain/linux_arm_newlib/bin/../lib/gcc/arm-nacl/4.9.2/../../../../arm-nacl/lib/libnacl.a(pthread_initialize_minimal_4b6e776b.o)
 .note.NaCl.ABI.arm
                0x00000000       0x18 /home/jfb/nacl_sdk/pepper_42/toolchain/linux_arm_newlib/bin/../lib/gcc/arm-nacl/4.9.2/../../../../arm-nacl/lib/libnacl.a(pthread_initialize_minimal_4b6e776b.o)
 .note.GNU-stack
                0x00000000        0x0 /home/jfb/nacl_sdk/pepper_42/toolchain/linux_arm_newlib/bin/../lib/gcc/arm-nacl/4.9.2/../../../../arm-nacl/lib/libnacl.a(pthread_initialize_minimal_4b6e776b.o)
 .group         0x00000000        0x8 /home/jfb/nacl_sdk/pepper_42/toolchain/linux_arm_newlib/bin/../lib/gcc/arm-nacl/4.9.2/../../../../arm-nacl/lib/libnacl.a(nacl_read_tp_5748ac47.o)
 .note.NaCl.ABI.arm
                0x00000000       0x18 /home/jfb/nacl_sdk/pepper_42/toolchain/linux_arm_newlib/bin/../lib/gcc/arm-nacl/4.9.2/../../../../arm-nacl/lib/libnacl.a(nacl_read_tp_5748ac47.o)
 .note.GNU-stack
                0x00000000        0x0 /home/jfb/nacl_sdk/pepper_42/toolchain/linux_arm_newlib/bin/../lib/gcc/arm-nacl/4.9.2/../../../../arm-nacl/lib/libnacl.a(nacl_read_tp_5748ac47.o)
 .group         0x00000000        0x8 /home/jfb/nacl_sdk/pepper_42/toolchain/linux_arm_newlib/bin/../lib/gcc/arm-nacl/4.9.2/../../../../arm-nacl/lib/libnacl.a(nacl_interface_query_ef8a99f1.o)
 .note.NaCl.ABI.arm
                0x00000000       0x18 /home/jfb/nacl_sdk/pepper_42/toolchain/linux_arm_newlib/bin/../lib/gcc/arm-nacl/4.9.2/../../../../arm-nacl/lib/libnacl.a(nacl_interface_query_ef8a99f1.o)
 .note.GNU-stack
                0x00000000        0x0 /home/jfb/nacl_sdk/pepper_42/toolchain/linux_arm_newlib/bin/../lib/gcc/arm-nacl/4.9.2/../../../../arm-nacl/lib/libnacl.a(nacl_interface_query_ef8a99f1.o)
 .group         0x00000000        0x8 /home/jfb/nacl_sdk/pepper_42/toolchain/linux_arm_newlib/bin/../lib/gcc/arm-nacl/4.9.2/../../../../arm-nacl/lib/libnacl.a(mmap_767fb080.o)
 .note.NaCl.ABI.arm
                0x00000000       0x18 /home/jfb/nacl_sdk/pepper_42/toolchain/linux_arm_newlib/bin/../lib/gcc/arm-nacl/4.9.2/../../../../arm-nacl/lib/libnacl.a(mmap_767fb080.o)
 .note.GNU-stack
                0x00000000        0x0 /home/jfb/nacl_sdk/pepper_42/toolchain/linux_arm_newlib/bin/../lib/gcc/arm-nacl/4.9.2/../../../../arm-nacl/lib/libnacl.a(mmap_767fb080.o)
 .group         0x00000000        0x8 /home/jfb/nacl_sdk/pepper_42/toolchain/linux_arm_newlib/bin/../lib/gcc/arm-nacl/4.9.2/../../../../arm-nacl/lib/libnacl.a(sched_yield_56c375be.o)
 .note.NaCl.ABI.arm
                0x00000000       0x18 /home/jfb/nacl_sdk/pepper_42/toolchain/linux_arm_newlib/bin/../lib/gcc/arm-nacl/4.9.2/../../../../arm-nacl/lib/libnacl.a(sched_yield_56c375be.o)
 .note.GNU-stack
                0x00000000        0x0 /home/jfb/nacl_sdk/pepper_42/toolchain/linux_arm_newlib/bin/../lib/gcc/arm-nacl/4.9.2/../../../../arm-nacl/lib/libnacl.a(sched_yield_56c375be.o)
 .group         0x00000000        0x8 /home/jfb/nacl_sdk/pepper_42/toolchain/linux_arm_newlib/bin/../lib/gcc/arm-nacl/4.9.2/../../../../arm-nacl/lib/libnacl.a(munmap_d4f09867.o)
 .note.NaCl.ABI.arm
                0x00000000       0x18 /home/jfb/nacl_sdk/pepper_42/toolchain/linux_arm_newlib/bin/../lib/gcc/arm-nacl/4.9.2/../../../../arm-nacl/lib/libnacl.a(munmap_d4f09867.o)
 .note.GNU-stack
                0x00000000        0x0 /home/jfb/nacl_sdk/pepper_42/toolchain/linux_arm_newlib/bin/../lib/gcc/arm-nacl/4.9.2/../../../../arm-nacl/lib/libnacl.a(munmap_d4f09867.o)
 .group         0x00000000        0x8 /home/jfb/nacl_sdk/pepper_42/toolchain/linux_arm_newlib/bin/../lib/gcc/arm-nacl/4.9.2/../../../../arm-nacl/lib/libnacl.a(tls_bba1975b.o)
 .note.NaCl.ABI.arm
                0x00000000       0x18 /home/jfb/nacl_sdk/pepper_42/toolchain/linux_arm_newlib/bin/../lib/gcc/arm-nacl/4.9.2/../../../../arm-nacl/lib/libnacl.a(tls_bba1975b.o)
 .note.GNU-stack
                0x00000000        0x0 /home/jfb/nacl_sdk/pepper_42/toolchain/linux_arm_newlib/bin/../lib/gcc/arm-nacl/4.9.2/../../../../arm-nacl/lib/libnacl.a(tls_bba1975b.o)
 .group         0x00000000        0x8 /home/jfb/nacl_sdk/pepper_42/toolchain/linux_arm_newlib/bin/../lib/gcc/arm-nacl/4.9.2/../../../../arm-nacl/lib/libnacl.a(write_fb49787f.o)
 .note.NaCl.ABI.arm
                0x00000000       0x18 /home/jfb/nacl_sdk/pepper_42/toolchain/linux_arm_newlib/bin/../lib/gcc/arm-nacl/4.9.2/../../../../arm-nacl/lib/libnacl.a(write_fb49787f.o)
 .note.GNU-stack
                0x00000000        0x0 /home/jfb/nacl_sdk/pepper_42/toolchain/linux_arm_newlib/bin/../lib/gcc/arm-nacl/4.9.2/../../../../arm-nacl/lib/libnacl.a(write_fb49787f.o)
 .group         0x00000000        0x8 /home/jfb/nacl_sdk/pepper_42/toolchain/linux_arm_newlib/bin/../lib/gcc/arm-nacl/4.9.2/../../../../arm-nacl/lib/libnacl.a(nacl_tls_get_d2f842b5.o)
 .note.NaCl.ABI.arm
                0x00000000       0x18 /home/jfb/nacl_sdk/pepper_42/toolchain/linux_arm_newlib/bin/../lib/gcc/arm-nacl/4.9.2/../../../../arm-nacl/lib/libnacl.a(nacl_tls_get_d2f842b5.o)
 .note.GNU-stack
                0x00000000        0x0 /home/jfb/nacl_sdk/pepper_42/toolchain/linux_arm_newlib/bin/../lib/gcc/arm-nacl/4.9.2/../../../../arm-nacl/lib/libnacl.a(nacl_tls_get_d2f842b5.o)
 .group         0x00000000        0x8 /home/jfb/nacl_sdk/pepper_42/toolchain/linux_arm_newlib/bin/../lib/gcc/arm-nacl/4.9.2/../../../../arm-nacl/lib/libnacl.a(nacl_irt_init_7b4f826e.o)
 .note.NaCl.ABI.arm
                0x00000000       0x18 /home/jfb/nacl_sdk/pepper_42/toolchain/linux_arm_newlib/bin/../lib/gcc/arm-nacl/4.9.2/../../../../arm-nacl/lib/libnacl.a(nacl_irt_init_7b4f826e.o)
 .note.GNU-stack
                0x00000000        0x0 /home/jfb/nacl_sdk/pepper_42/toolchain/linux_arm_newlib/bin/../lib/gcc/arm-nacl/4.9.2/../../../../arm-nacl/lib/libnacl.a(nacl_irt_init_7b4f826e.o)
 .group         0x00000000        0x8 /home/jfb/nacl_sdk/pepper_42/toolchain/linux_arm_newlib/bin/../lib/gcc/arm-nacl/4.9.2/../../../../arm-nacl/lib/libnacl.a(sysconf_ad295ea2.o)
 .note.NaCl.ABI.arm
                0x00000000       0x18 /home/jfb/nacl_sdk/pepper_42/toolchain/linux_arm_newlib/bin/../lib/gcc/arm-nacl/4.9.2/../../../../arm-nacl/lib/libnacl.a(sysconf_ad295ea2.o)
 .note.GNU-stack
                0x00000000        0x0 /home/jfb/nacl_sdk/pepper_42/toolchain/linux_arm_newlib/bin/../lib/gcc/arm-nacl/4.9.2/../../../../arm-nacl/lib/libnacl.a(sysconf_ad295ea2.o)
 .group         0x00000000        0x8 /home/jfb/nacl_sdk/pepper_42/toolchain/linux_arm_newlib/bin/../lib/gcc/arm-nacl/4.9.2/../../../../arm-nacl/lib/libnacl.a(nacl_tls_init_eb0cd232.o)
 .note.NaCl.ABI.arm
                0x00000000       0x18 /home/jfb/nacl_sdk/pepper_42/toolchain/linux_arm_newlib/bin/../lib/gcc/arm-nacl/4.9.2/../../../../arm-nacl/lib/libnacl.a(nacl_tls_init_eb0cd232.o)
 .note.GNU-stack
                0x00000000        0x0 /home/jfb/nacl_sdk/pepper_42/toolchain/linux_arm_newlib/bin/../lib/gcc/arm-nacl/4.9.2/../../../../arm-nacl/lib/libnacl.a(nacl_tls_init_eb0cd232.o)
 .group         0x00000000        0x8 /home/jfb/nacl_sdk/pepper_42/toolchain/linux_arm_newlib/bin/../lib/gcc/arm-nacl/4.9.2/../../../../arm-nacl/lib/libcrt_common.a(lib_a-atexit.o)
 .note.NaCl.ABI.arm
                0x00000000       0x18 /home/jfb/nacl_sdk/pepper_42/toolchain/linux_arm_newlib/bin/../lib/gcc/arm-nacl/4.9.2/../../../../arm-nacl/lib/libcrt_common.a(lib_a-atexit.o)
 .note.GNU-stack
                0x00000000        0x0 /home/jfb/nacl_sdk/pepper_42/toolchain/linux_arm_newlib/bin/../lib/gcc/arm-nacl/4.9.2/../../../../arm-nacl/lib/libcrt_common.a(lib_a-atexit.o)
 .group         0x00000000        0x8 /home/jfb/nacl_sdk/pepper_42/toolchain/linux_arm_newlib/bin/../lib/gcc/arm-nacl/4.9.2/../../../../arm-nacl/lib/libcrt_common.a(lib_a-errno.o)
 .note.NaCl.ABI.arm
                0x00000000       0x18 /home/jfb/nacl_sdk/pepper_42/toolchain/linux_arm_newlib/bin/../lib/gcc/arm-nacl/4.9.2/../../../../arm-nacl/lib/libcrt_common.a(lib_a-errno.o)
 .note.GNU-stack
                0x00000000        0x0 /home/jfb/nacl_sdk/pepper_42/toolchain/linux_arm_newlib/bin/../lib/gcc/arm-nacl/4.9.2/../../../../arm-nacl/lib/libcrt_common.a(lib_a-errno.o)
 .group         0x00000000        0x8 /home/jfb/nacl_sdk/pepper_42/toolchain/linux_arm_newlib/bin/../lib/gcc/arm-nacl/4.9.2/../../../../arm-nacl/lib/libcrt_common.a(lib_a-exit.o)
 .note.NaCl.ABI.arm
                0x00000000       0x18 /home/jfb/nacl_sdk/pepper_42/toolchain/linux_arm_newlib/bin/../lib/gcc/arm-nacl/4.9.2/../../../../arm-nacl/lib/libcrt_common.a(lib_a-exit.o)
 .note.GNU-stack
                0x00000000        0x0 /home/jfb/nacl_sdk/pepper_42/toolchain/linux_arm_newlib/bin/../lib/gcc/arm-nacl/4.9.2/../../../../arm-nacl/lib/libcrt_common.a(lib_a-exit.o)
 .group         0x00000000        0x8 /home/jfb/nacl_sdk/pepper_42/toolchain/linux_arm_newlib/bin/../lib/gcc/arm-nacl/4.9.2/../../../../arm-nacl/lib/libcrt_common.a(lib_a-fflush.o)
 .note.NaCl.ABI.arm
                0x00000000       0x18 /home/jfb/nacl_sdk/pepper_42/toolchain/linux_arm_newlib/bin/../lib/gcc/arm-nacl/4.9.2/../../../../arm-nacl/lib/libcrt_common.a(lib_a-fflush.o)
 .note.GNU-stack
                0x00000000        0x0 /home/jfb/nacl_sdk/pepper_42/toolchain/linux_arm_newlib/bin/../lib/gcc/arm-nacl/4.9.2/../../../../arm-nacl/lib/libcrt_common.a(lib_a-fflush.o)
 .group         0x00000000        0x8 /home/jfb/nacl_sdk/pepper_42/toolchain/linux_arm_newlib/bin/../lib/gcc/arm-nacl/4.9.2/../../../../arm-nacl/lib/libcrt_common.a(lib_a-findfp.o)
 .note.NaCl.ABI.arm
                0x00000000       0x18 /home/jfb/nacl_sdk/pepper_42/toolchain/linux_arm_newlib/bin/../lib/gcc/arm-nacl/4.9.2/../../../../arm-nacl/lib/libcrt_common.a(lib_a-findfp.o)
 .note.GNU-stack
                0x00000000        0x0 /home/jfb/nacl_sdk/pepper_42/toolchain/linux_arm_newlib/bin/../lib/gcc/arm-nacl/4.9.2/../../../../arm-nacl/lib/libcrt_common.a(lib_a-findfp.o)
 .group         0x00000000        0x8 /home/jfb/nacl_sdk/pepper_42/toolchain/linux_arm_newlib/bin/../lib/gcc/arm-nacl/4.9.2/../../../../arm-nacl/lib/libcrt_common.a(lib_a-fini.o)
 .note.NaCl.ABI.arm
                0x00000000       0x18 /home/jfb/nacl_sdk/pepper_42/toolchain/linux_arm_newlib/bin/../lib/gcc/arm-nacl/4.9.2/../../../../arm-nacl/lib/libcrt_common.a(lib_a-fini.o)
 .note.GNU-stack
                0x00000000        0x0 /home/jfb/nacl_sdk/pepper_42/toolchain/linux_arm_newlib/bin/../lib/gcc/arm-nacl/4.9.2/../../../../arm-nacl/lib/libcrt_common.a(lib_a-fini.o)
 .group         0x00000000        0x8 /home/jfb/nacl_sdk/pepper_42/toolchain/linux_arm_newlib/bin/../lib/gcc/arm-nacl/4.9.2/../../../../arm-nacl/lib/libcrt_common.a(lib_a-fprintf.o)
 .note.NaCl.ABI.arm
                0x00000000       0x18 /home/jfb/nacl_sdk/pepper_42/toolchain/linux_arm_newlib/bin/../lib/gcc/arm-nacl/4.9.2/../../../../arm-nacl/lib/libcrt_common.a(lib_a-fprintf.o)
 .note.GNU-stack
                0x00000000        0x0 /home/jfb/nacl_sdk/pepper_42/toolchain/linux_arm_newlib/bin/../lib/gcc/arm-nacl/4.9.2/../../../../arm-nacl/lib/libcrt_common.a(lib_a-fprintf.o)
 .group         0x00000000        0x8 /home/jfb/nacl_sdk/pepper_42/toolchain/linux_arm_newlib/bin/../lib/gcc/arm-nacl/4.9.2/../../../../arm-nacl/lib/libcrt_common.a(lib_a-fwalk.o)
 .note.NaCl.ABI.arm
                0x00000000       0x18 /home/jfb/nacl_sdk/pepper_42/toolchain/linux_arm_newlib/bin/../lib/gcc/arm-nacl/4.9.2/../../../../arm-nacl/lib/libcrt_common.a(lib_a-fwalk.o)
 .note.GNU-stack
                0x00000000        0x0 /home/jfb/nacl_sdk/pepper_42/toolchain/linux_arm_newlib/bin/../lib/gcc/arm-nacl/4.9.2/../../../../arm-nacl/lib/libcrt_common.a(lib_a-fwalk.o)
 .group         0x00000000        0x8 /home/jfb/nacl_sdk/pepper_42/toolchain/linux_arm_newlib/bin/../lib/gcc/arm-nacl/4.9.2/../../../../arm-nacl/lib/libcrt_common.a(lib_a-fwrite.o)
 .note.NaCl.ABI.arm
                0x00000000       0x18 /home/jfb/nacl_sdk/pepper_42/toolchain/linux_arm_newlib/bin/../lib/gcc/arm-nacl/4.9.2/../../../../arm-nacl/lib/libcrt_common.a(lib_a-fwrite.o)
 .note.GNU-stack
                0x00000000        0x0 /home/jfb/nacl_sdk/pepper_42/toolchain/linux_arm_newlib/bin/../lib/gcc/arm-nacl/4.9.2/../../../../arm-nacl/lib/libcrt_common.a(lib_a-fwrite.o)
 .group         0x00000000        0x8 /home/jfb/nacl_sdk/pepper_42/toolchain/linux_arm_newlib/bin/../lib/gcc/arm-nacl/4.9.2/../../../../arm-nacl/lib/libcrt_common.a(lib_a-getenv.o)
 .note.NaCl.ABI.arm
                0x00000000       0x18 /home/jfb/nacl_sdk/pepper_42/toolchain/linux_arm_newlib/bin/../lib/gcc/arm-nacl/4.9.2/../../../../arm-nacl/lib/libcrt_common.a(lib_a-getenv.o)
 .note.GNU-stack
                0x00000000        0x0 /home/jfb/nacl_sdk/pepper_42/toolchain/linux_arm_newlib/bin/../lib/gcc/arm-nacl/4.9.2/../../../../arm-nacl/lib/libcrt_common.a(lib_a-getenv.o)
 .group         0x00000000        0x8 /home/jfb/nacl_sdk/pepper_42/toolchain/linux_arm_newlib/bin/../lib/gcc/arm-nacl/4.9.2/../../../../arm-nacl/lib/libcrt_common.a(lib_a-getenv_r.o)
 .note.NaCl.ABI.arm
                0x00000000       0x18 /home/jfb/nacl_sdk/pepper_42/toolchain/linux_arm_newlib/bin/../lib/gcc/arm-nacl/4.9.2/../../../../arm-nacl/lib/libcrt_common.a(lib_a-getenv_r.o)
 .note.GNU-stack
                0x00000000        0x0 /home/jfb/nacl_sdk/pepper_42/toolchain/linux_arm_newlib/bin/../lib/gcc/arm-nacl/4.9.2/../../../../arm-nacl/lib/libcrt_common.a(lib_a-getenv_r.o)
 .group         0x00000000        0x8 /home/jfb/nacl_sdk/pepper_42/toolchain/linux_arm_newlib/bin/../lib/gcc/arm-nacl/4.9.2/../../../../arm-nacl/lib/libcrt_common.a(lib_a-impure.o)
 .note.NaCl.ABI.arm
                0x00000000       0x18 /home/jfb/nacl_sdk/pepper_42/toolchain/linux_arm_newlib/bin/../lib/gcc/arm-nacl/4.9.2/../../../../arm-nacl/lib/libcrt_common.a(lib_a-impure.o)
 .note.GNU-stack
                0x00000000        0x0 /home/jfb/nacl_sdk/pepper_42/toolchain/linux_arm_newlib/bin/../lib/gcc/arm-nacl/4.9.2/../../../../arm-nacl/lib/libcrt_common.a(lib_a-impure.o)
 .group         0x00000000        0x8 /home/jfb/nacl_sdk/pepper_42/toolchain/linux_arm_newlib/bin/../lib/gcc/arm-nacl/4.9.2/../../../../arm-nacl/lib/libcrt_common.a(lib_a-init.o)
 .note.NaCl.ABI.arm
                0x00000000       0x18 /home/jfb/nacl_sdk/pepper_42/toolchain/linux_arm_newlib/bin/../lib/gcc/arm-nacl/4.9.2/../../../../arm-nacl/lib/libcrt_common.a(lib_a-init.o)
 .note.GNU-stack
                0x00000000        0x0 /home/jfb/nacl_sdk/pepper_42/toolchain/linux_arm_newlib/bin/../lib/gcc/arm-nacl/4.9.2/../../../../arm-nacl/lib/libcrt_common.a(lib_a-init.o)
 .group         0x00000000        0x8 /home/jfb/nacl_sdk/pepper_42/toolchain/linux_arm_newlib/bin/../lib/gcc/arm-nacl/4.9.2/../../../../arm-nacl/lib/libcrt_common.a(lib_a-memcpy.o)
 .note.NaCl.ABI.arm
                0x00000000       0x18 /home/jfb/nacl_sdk/pepper_42/toolchain/linux_arm_newlib/bin/../lib/gcc/arm-nacl/4.9.2/../../../../arm-nacl/lib/libcrt_common.a(lib_a-memcpy.o)
 .group         0x00000000        0x8 /home/jfb/nacl_sdk/pepper_42/toolchain/linux_arm_newlib/bin/../lib/gcc/arm-nacl/4.9.2/../../../../arm-nacl/lib/libcrt_common.a(lib_a-memset.o)
 .note.NaCl.ABI.arm
                0x00000000       0x18 /home/jfb/nacl_sdk/pepper_42/toolchain/linux_arm_newlib/bin/../lib/gcc/arm-nacl/4.9.2/../../../../arm-nacl/lib/libcrt_common.a(lib_a-memset.o)
 .note.GNU-stack
                0x00000000        0x0 /home/jfb/nacl_sdk/pepper_42/toolchain/linux_arm_newlib/bin/../lib/gcc/arm-nacl/4.9.2/../../../../arm-nacl/lib/libcrt_common.a(lib_a-memset.o)
 .group         0x00000000        0x8 /home/jfb/nacl_sdk/pepper_42/toolchain/linux_arm_newlib/bin/../lib/gcc/arm-nacl/4.9.2/../../../../arm-nacl/lib/libcrt_common.a(lib_a-sleep.o)
 .note.NaCl.ABI.arm
                0x00000000       0x18 /home/jfb/nacl_sdk/pepper_42/toolchain/linux_arm_newlib/bin/../lib/gcc/arm-nacl/4.9.2/../../../../arm-nacl/lib/libcrt_common.a(lib_a-sleep.o)
 .note.GNU-stack
                0x00000000        0x0 /home/jfb/nacl_sdk/pepper_42/toolchain/linux_arm_newlib/bin/../lib/gcc/arm-nacl/4.9.2/../../../../arm-nacl/lib/libcrt_common.a(lib_a-sleep.o)
 .group         0x00000000        0x8 /home/jfb/nacl_sdk/pepper_42/toolchain/linux_arm_newlib/bin/../lib/gcc/arm-nacl/4.9.2/../../../../arm-nacl/lib/libcrt_common.a(lib_a-stdio.o)
 .note.NaCl.ABI.arm
                0x00000000       0x18 /home/jfb/nacl_sdk/pepper_42/toolchain/linux_arm_newlib/bin/../lib/gcc/arm-nacl/4.9.2/../../../../arm-nacl/lib/libcrt_common.a(lib_a-stdio.o)
 .note.GNU-stack
                0x00000000        0x0 /home/jfb/nacl_sdk/pepper_42/toolchain/linux_arm_newlib/bin/../lib/gcc/arm-nacl/4.9.2/../../../../arm-nacl/lib/libcrt_common.a(lib_a-stdio.o)
 .group         0x00000000        0x8 /home/jfb/nacl_sdk/pepper_42/toolchain/linux_arm_newlib/bin/../lib/gcc/arm-nacl/4.9.2/../../../../arm-nacl/lib/libcrt_common.a(lib_a-strcmp.o)
 .note.NaCl.ABI.arm
                0x00000000       0x18 /home/jfb/nacl_sdk/pepper_42/toolchain/linux_arm_newlib/bin/../lib/gcc/arm-nacl/4.9.2/../../../../arm-nacl/lib/libcrt_common.a(lib_a-strcmp.o)
 .group         0x00000000        0x8 /home/jfb/nacl_sdk/pepper_42/toolchain/linux_arm_newlib/bin/../lib/gcc/arm-nacl/4.9.2/../../../../arm-nacl/lib/libcrt_common.a(lib_a-strlen-armv7.o)
 .note.NaCl.ABI.arm
                0x00000000       0x18 /home/jfb/nacl_sdk/pepper_42/toolchain/linux_arm_newlib/bin/../lib/gcc/arm-nacl/4.9.2/../../../../arm-nacl/lib/libcrt_common.a(lib_a-strlen-armv7.o)
 .group         0x00000000        0x8 /home/jfb/nacl_sdk/pepper_42/toolchain/linux_arm_newlib/bin/../lib/gcc/arm-nacl/4.9.2/../../../../arm-nacl/lib/libcrt_common.a(lib_a-strncmp.o)
 .note.NaCl.ABI.arm
                0x00000000       0x18 /home/jfb/nacl_sdk/pepper_42/toolchain/linux_arm_newlib/bin/../lib/gcc/arm-nacl/4.9.2/../../../../arm-nacl/lib/libcrt_common.a(lib_a-strncmp.o)
 .note.GNU-stack
                0x00000000        0x0 /home/jfb/nacl_sdk/pepper_42/toolchain/linux_arm_newlib/bin/../lib/gcc/arm-nacl/4.9.2/../../../../arm-nacl/lib/libcrt_common.a(lib_a-strncmp.o)
 .group         0x00000000        0x8 /home/jfb/nacl_sdk/pepper_42/toolchain/linux_arm_newlib/bin/../lib/gcc/arm-nacl/4.9.2/../../../../arm-nacl/lib/libcrt_common.a(lib_a-vfprintf.o)
 .note.NaCl.ABI.arm
                0x00000000       0x18 /home/jfb/nacl_sdk/pepper_42/toolchain/linux_arm_newlib/bin/../lib/gcc/arm-nacl/4.9.2/../../../../arm-nacl/lib/libcrt_common.a(lib_a-vfprintf.o)
 .note.GNU-stack
                0x00000000        0x0 /home/jfb/nacl_sdk/pepper_42/toolchain/linux_arm_newlib/bin/../lib/gcc/arm-nacl/4.9.2/../../../../arm-nacl/lib/libcrt_common.a(lib_a-vfprintf.o)
 .group         0x00000000        0x8 /home/jfb/nacl_sdk/pepper_42/toolchain/linux_arm_newlib/bin/../lib/gcc/arm-nacl/4.9.2/../../../../arm-nacl/lib/libcrt_common.a(lib_a-vsnprintf.o)
 .note.NaCl.ABI.arm
                0x00000000       0x18 /home/jfb/nacl_sdk/pepper_42/toolchain/linux_arm_newlib/bin/../lib/gcc/arm-nacl/4.9.2/../../../../arm-nacl/lib/libcrt_common.a(lib_a-vsnprintf.o)
 .note.GNU-stack
                0x00000000        0x0 /home/jfb/nacl_sdk/pepper_42/toolchain/linux_arm_newlib/bin/../lib/gcc/arm-nacl/4.9.2/../../../../arm-nacl/lib/libcrt_common.a(lib_a-vsnprintf.o)
 .group         0x00000000        0x8 /home/jfb/nacl_sdk/pepper_42/toolchain/linux_arm_newlib/bin/../lib/gcc/arm-nacl/4.9.2/../../../../arm-nacl/lib/libcrt_common.a(lib_a-vsprintf.o)
 .note.NaCl.ABI.arm
                0x00000000       0x18 /home/jfb/nacl_sdk/pepper_42/toolchain/linux_arm_newlib/bin/../lib/gcc/arm-nacl/4.9.2/../../../../arm-nacl/lib/libcrt_common.a(lib_a-vsprintf.o)
 .note.GNU-stack
                0x00000000        0x0 /home/jfb/nacl_sdk/pepper_42/toolchain/linux_arm_newlib/bin/../lib/gcc/arm-nacl/4.9.2/../../../../arm-nacl/lib/libcrt_common.a(lib_a-vsprintf.o)
 .group         0x00000000        0x8 /home/jfb/nacl_sdk/pepper_42/toolchain/linux_arm_newlib/bin/../lib/gcc/arm-nacl/4.9.2/../../../../arm-nacl/lib/libcrt_common.a(lib_a-wcrtomb.o)
 .note.NaCl.ABI.arm
                0x00000000       0x18 /home/jfb/nacl_sdk/pepper_42/toolchain/linux_arm_newlib/bin/../lib/gcc/arm-nacl/4.9.2/../../../../arm-nacl/lib/libcrt_common.a(lib_a-wcrtomb.o)
 .note.GNU-stack
                0x00000000        0x0 /home/jfb/nacl_sdk/pepper_42/toolchain/linux_arm_newlib/bin/../lib/gcc/arm-nacl/4.9.2/../../../../arm-nacl/lib/libcrt_common.a(lib_a-wcrtomb.o)
 .group         0x00000000        0x8 /home/jfb/nacl_sdk/pepper_42/toolchain/linux_arm_newlib/bin/../lib/gcc/arm-nacl/4.9.2/../../../../arm-nacl/lib/libcrt_common.a(lib_a-wcsrtombs.o)
 .note.NaCl.ABI.arm
                0x00000000       0x18 /home/jfb/nacl_sdk/pepper_42/toolchain/linux_arm_newlib/bin/../lib/gcc/arm-nacl/4.9.2/../../../../arm-nacl/lib/libcrt_common.a(lib_a-wcsrtombs.o)
 .note.GNU-stack
                0x00000000        0x0 /home/jfb/nacl_sdk/pepper_42/toolchain/linux_arm_newlib/bin/../lib/gcc/arm-nacl/4.9.2/../../../../arm-nacl/lib/libcrt_common.a(lib_a-wcsrtombs.o)
 .group         0x00000000        0x8 /home/jfb/nacl_sdk/pepper_42/toolchain/linux_arm_newlib/bin/../lib/gcc/arm-nacl/4.9.2/../../../../arm-nacl/lib/libcrt_common.a(lib_a-wctomb_r.o)
 .note.NaCl.ABI.arm
                0x00000000       0x18 /home/jfb/nacl_sdk/pepper_42/toolchain/linux_arm_newlib/bin/../lib/gcc/arm-nacl/4.9.2/../../../../arm-nacl/lib/libcrt_common.a(lib_a-wctomb_r.o)
 .note.GNU-stack
                0x00000000        0x0 /home/jfb/nacl_sdk/pepper_42/toolchain/linux_arm_newlib/bin/../lib/gcc/arm-nacl/4.9.2/../../../../arm-nacl/lib/libcrt_common.a(lib_a-wctomb_r.o)
 .group         0x00000000        0x8 /home/jfb/nacl_sdk/pepper_42/toolchain/linux_arm_newlib/bin/../lib/gcc/arm-nacl/4.9.2/../../../../arm-nacl/lib/libcrt_common.a(lib_a-wsetup.o)
 .note.NaCl.ABI.arm
                0x00000000       0x18 /home/jfb/nacl_sdk/pepper_42/toolchain/linux_arm_newlib/bin/../lib/gcc/arm-nacl/4.9.2/../../../../arm-nacl/lib/libcrt_common.a(lib_a-wsetup.o)
 .note.GNU-stack
                0x00000000        0x0 /home/jfb/nacl_sdk/pepper_42/toolchain/linux_arm_newlib/bin/../lib/gcc/arm-nacl/4.9.2/../../../../arm-nacl/lib/libcrt_common.a(lib_a-wsetup.o)
 .group         0x00000000        0x8 /home/jfb/nacl_sdk/pepper_42/toolchain/linux_arm_newlib/bin/../lib/gcc/arm-nacl/4.9.2/../../../../arm-nacl/lib/libcrt_common.a(lib_a-__atexit.o)
 .note.NaCl.ABI.arm
                0x00000000       0x18 /home/jfb/nacl_sdk/pepper_42/toolchain/linux_arm_newlib/bin/../lib/gcc/arm-nacl/4.9.2/../../../../arm-nacl/lib/libcrt_common.a(lib_a-__atexit.o)
 .note.GNU-stack
                0x00000000        0x0 /home/jfb/nacl_sdk/pepper_42/toolchain/linux_arm_newlib/bin/../lib/gcc/arm-nacl/4.9.2/../../../../arm-nacl/lib/libcrt_common.a(lib_a-__atexit.o)
 .group         0x00000000        0x8 /home/jfb/nacl_sdk/pepper_42/toolchain/linux_arm_newlib/bin/../lib/gcc/arm-nacl/4.9.2/../../../../arm-nacl/lib/libcrt_common.a(lib_a-__call_atexit.o)
 .note.NaCl.ABI.arm
                0x00000000       0x18 /home/jfb/nacl_sdk/pepper_42/toolchain/linux_arm_newlib/bin/../lib/gcc/arm-nacl/4.9.2/../../../../arm-nacl/lib/libcrt_common.a(lib_a-__call_atexit.o)
 .note.GNU-stack
                0x00000000        0x0 /home/jfb/nacl_sdk/pepper_42/toolchain/linux_arm_newlib/bin/../lib/gcc/arm-nacl/4.9.2/../../../../arm-nacl/lib/libcrt_common.a(lib_a-__call_atexit.o)
 .group         0x00000000        0x8 /home/jfb/nacl_sdk/pepper_42/toolchain/linux_arm_newlib/bin/../lib/gcc/arm-nacl/4.9.2/../../../../arm-nacl/lib/libcrt_common.a(lib_a-dtoa.o)
 .note.NaCl.ABI.arm
                0x00000000       0x18 /home/jfb/nacl_sdk/pepper_42/toolchain/linux_arm_newlib/bin/../lib/gcc/arm-nacl/4.9.2/../../../../arm-nacl/lib/libcrt_common.a(lib_a-dtoa.o)
 .note.GNU-stack
                0x00000000        0x0 /home/jfb/nacl_sdk/pepper_42/toolchain/linux_arm_newlib/bin/../lib/gcc/arm-nacl/4.9.2/../../../../arm-nacl/lib/libcrt_common.a(lib_a-dtoa.o)
 .group         0x00000000        0x8 /home/jfb/nacl_sdk/pepper_42/toolchain/linux_arm_newlib/bin/../lib/gcc/arm-nacl/4.9.2/../../../../arm-nacl/lib/libcrt_common.a(lib_a-envlock.o)
 .note.NaCl.ABI.arm
                0x00000000       0x18 /home/jfb/nacl_sdk/pepper_42/toolchain/linux_arm_newlib/bin/../lib/gcc/arm-nacl/4.9.2/../../../../arm-nacl/lib/libcrt_common.a(lib_a-envlock.o)
 .note.GNU-stack
                0x00000000        0x0 /home/jfb/nacl_sdk/pepper_42/toolchain/linux_arm_newlib/bin/../lib/gcc/arm-nacl/4.9.2/../../../../arm-nacl/lib/libcrt_common.a(lib_a-envlock.o)
 .group         0x00000000        0x8 /home/jfb/nacl_sdk/pepper_42/toolchain/linux_arm_newlib/bin/../lib/gcc/arm-nacl/4.9.2/../../../../arm-nacl/lib/libcrt_common.a(lib_a-fclose.o)
 .note.NaCl.ABI.arm
                0x00000000       0x18 /home/jfb/nacl_sdk/pepper_42/toolchain/linux_arm_newlib/bin/../lib/gcc/arm-nacl/4.9.2/../../../../arm-nacl/lib/libcrt_common.a(lib_a-fclose.o)
 .note.GNU-stack
                0x00000000        0x0 /home/jfb/nacl_sdk/pepper_42/toolchain/linux_arm_newlib/bin/../lib/gcc/arm-nacl/4.9.2/../../../../arm-nacl/lib/libcrt_common.a(lib_a-fclose.o)
 .group         0x00000000        0x8 /home/jfb/nacl_sdk/pepper_42/toolchain/linux_arm_newlib/bin/../lib/gcc/arm-nacl/4.9.2/../../../../arm-nacl/lib/libcrt_common.a(lib_a-fvwrite.o)
 .note.NaCl.ABI.arm
                0x00000000       0x18 /home/jfb/nacl_sdk/pepper_42/toolchain/linux_arm_newlib/bin/../lib/gcc/arm-nacl/4.9.2/../../../../arm-nacl/lib/libcrt_common.a(lib_a-fvwrite.o)
 .note.GNU-stack
                0x00000000        0x0 /home/jfb/nacl_sdk/pepper_42/toolchain/linux_arm_newlib/bin/../lib/gcc/arm-nacl/4.9.2/../../../../arm-nacl/lib/libcrt_common.a(lib_a-fvwrite.o)
 .group         0x00000000        0x8 /home/jfb/nacl_sdk/pepper_42/toolchain/linux_arm_newlib/bin/../lib/gcc/arm-nacl/4.9.2/../../../../arm-nacl/lib/libcrt_common.a(lib_a-locale.o)
 .note.NaCl.ABI.arm
                0x00000000       0x18 /home/jfb/nacl_sdk/pepper_42/toolchain/linux_arm_newlib/bin/../lib/gcc/arm-nacl/4.9.2/../../../../arm-nacl/lib/libcrt_common.a(lib_a-locale.o)
 .note.GNU-stack
                0x00000000        0x0 /home/jfb/nacl_sdk/pepper_42/toolchain/linux_arm_newlib/bin/../lib/gcc/arm-nacl/4.9.2/../../../../arm-nacl/lib/libcrt_common.a(lib_a-locale.o)
 .group         0x00000000        0x8 /home/jfb/nacl_sdk/pepper_42/toolchain/linux_arm_newlib/bin/../lib/gcc/arm-nacl/4.9.2/../../../../arm-nacl/lib/libcrt_common.a(lib_a-makebuf.o)
 .note.NaCl.ABI.arm
                0x00000000       0x18 /home/jfb/nacl_sdk/pepper_42/toolchain/linux_arm_newlib/bin/../lib/gcc/arm-nacl/4.9.2/../../../../arm-nacl/lib/libcrt_common.a(lib_a-makebuf.o)
 .note.GNU-stack
                0x00000000        0x0 /home/jfb/nacl_sdk/pepper_42/toolchain/linux_arm_newlib/bin/../lib/gcc/arm-nacl/4.9.2/../../../../arm-nacl/lib/libcrt_common.a(lib_a-makebuf.o)
 .group         0x00000000        0x8 /home/jfb/nacl_sdk/pepper_42/toolchain/linux_arm_newlib/bin/../lib/gcc/arm-nacl/4.9.2/../../../../arm-nacl/lib/libcrt_common.a(lib_a-mbtowc_r.o)
 .note.NaCl.ABI.arm
                0x00000000       0x18 /home/jfb/nacl_sdk/pepper_42/toolchain/linux_arm_newlib/bin/../lib/gcc/arm-nacl/4.9.2/../../../../arm-nacl/lib/libcrt_common.a(lib_a-mbtowc_r.o)
 .note.GNU-stack
                0x00000000        0x0 /home/jfb/nacl_sdk/pepper_42/toolchain/linux_arm_newlib/bin/../lib/gcc/arm-nacl/4.9.2/../../../../arm-nacl/lib/libcrt_common.a(lib_a-mbtowc_r.o)
 .group         0x00000000        0x8 /home/jfb/nacl_sdk/pepper_42/toolchain/linux_arm_newlib/bin/../lib/gcc/arm-nacl/4.9.2/../../../../arm-nacl/lib/libcrt_common.a(lib_a-memchr.o)
 .note.NaCl.ABI.arm
                0x00000000       0x18 /home/jfb/nacl_sdk/pepper_42/toolchain/linux_arm_newlib/bin/../lib/gcc/arm-nacl/4.9.2/../../../../arm-nacl/lib/libcrt_common.a(lib_a-memchr.o)
 .group         0x00000000        0x8 /home/jfb/nacl_sdk/pepper_42/toolchain/linux_arm_newlib/bin/../lib/gcc/arm-nacl/4.9.2/../../../../arm-nacl/lib/libcrt_common.a(lib_a-memmove.o)
 .note.NaCl.ABI.arm
                0x00000000       0x18 /home/jfb/nacl_sdk/pepper_42/toolchain/linux_arm_newlib/bin/../lib/gcc/arm-nacl/4.9.2/../../../../arm-nacl/lib/libcrt_common.a(lib_a-memmove.o)
 .note.GNU-stack
                0x00000000        0x0 /home/jfb/nacl_sdk/pepper_42/toolchain/linux_arm_newlib/bin/../lib/gcc/arm-nacl/4.9.2/../../../../arm-nacl/lib/libcrt_common.a(lib_a-memmove.o)
 .group         0x00000000        0x8 /home/jfb/nacl_sdk/pepper_42/toolchain/linux_arm_newlib/bin/../lib/gcc/arm-nacl/4.9.2/../../../../arm-nacl/lib/libcrt_common.a(lib_a-mprec.o)
 .note.NaCl.ABI.arm
                0x00000000       0x18 /home/jfb/nacl_sdk/pepper_42/toolchain/linux_arm_newlib/bin/../lib/gcc/arm-nacl/4.9.2/../../../../arm-nacl/lib/libcrt_common.a(lib_a-mprec.o)
 .note.GNU-stack
                0x00000000        0x0 /home/jfb/nacl_sdk/pepper_42/toolchain/linux_arm_newlib/bin/../lib/gcc/arm-nacl/4.9.2/../../../../arm-nacl/lib/libcrt_common.a(lib_a-mprec.o)
 .group         0x00000000        0x8 /home/jfb/nacl_sdk/pepper_42/toolchain/linux_arm_newlib/bin/../lib/gcc/arm-nacl/4.9.2/../../../../arm-nacl/lib/libcrt_common.a(lib_a-s_fpclassify.o)
 .note.NaCl.ABI.arm
                0x00000000       0x18 /home/jfb/nacl_sdk/pepper_42/toolchain/linux_arm_newlib/bin/../lib/gcc/arm-nacl/4.9.2/../../../../arm-nacl/lib/libcrt_common.a(lib_a-s_fpclassify.o)
 .note.GNU-stack
                0x00000000        0x0 /home/jfb/nacl_sdk/pepper_42/toolchain/linux_arm_newlib/bin/../lib/gcc/arm-nacl/4.9.2/../../../../arm-nacl/lib/libcrt_common.a(lib_a-s_fpclassify.o)
 .group         0x00000000        0x8 /home/jfb/nacl_sdk/pepper_42/toolchain/linux_arm_newlib/bin/../lib/gcc/arm-nacl/4.9.2/../../../../arm-nacl/lib/libcrt_common.a(lib_a-s_frexp.o)
 .note.NaCl.ABI.arm
                0x00000000       0x18 /home/jfb/nacl_sdk/pepper_42/toolchain/linux_arm_newlib/bin/../lib/gcc/arm-nacl/4.9.2/../../../../arm-nacl/lib/libcrt_common.a(lib_a-s_frexp.o)
 .note.GNU-stack
                0x00000000        0x0 /home/jfb/nacl_sdk/pepper_42/toolchain/linux_arm_newlib/bin/../lib/gcc/arm-nacl/4.9.2/../../../../arm-nacl/lib/libcrt_common.a(lib_a-s_frexp.o)
 .group         0x00000000        0x8 /home/jfb/nacl_sdk/pepper_42/toolchain/linux_arm_newlib/bin/../lib/gcc/arm-nacl/4.9.2/../../../../arm-nacl/lib/libcrt_common.a(lib_a-strcasecmp.o)
 .note.NaCl.ABI.arm
                0x00000000       0x18 /home/jfb/nacl_sdk/pepper_42/toolchain/linux_arm_newlib/bin/../lib/gcc/arm-nacl/4.9.2/../../../../arm-nacl/lib/libcrt_common.a(lib_a-strcasecmp.o)
 .note.GNU-stack
                0x00000000        0x0 /home/jfb/nacl_sdk/pepper_42/toolchain/linux_arm_newlib/bin/../lib/gcc/arm-nacl/4.9.2/../../../../arm-nacl/lib/libcrt_common.a(lib_a-strcasecmp.o)
 .group         0x00000000        0x8 /home/jfb/nacl_sdk/pepper_42/toolchain/linux_arm_newlib/bin/../lib/gcc/arm-nacl/4.9.2/../../../../arm-nacl/lib/libcrt_common.a(lib_a-strcat.o)
 .note.NaCl.ABI.arm
                0x00000000       0x18 /home/jfb/nacl_sdk/pepper_42/toolchain/linux_arm_newlib/bin/../lib/gcc/arm-nacl/4.9.2/../../../../arm-nacl/lib/libcrt_common.a(lib_a-strcat.o)
 .note.GNU-stack
                0x00000000        0x0 /home/jfb/nacl_sdk/pepper_42/toolchain/linux_arm_newlib/bin/../lib/gcc/arm-nacl/4.9.2/../../../../arm-nacl/lib/libcrt_common.a(lib_a-strcat.o)
 .group         0x00000000        0x8 /home/jfb/nacl_sdk/pepper_42/toolchain/linux_arm_newlib/bin/../lib/gcc/arm-nacl/4.9.2/../../../../arm-nacl/lib/libcrt_common.a(lib_a-strchr.o)
 .note.NaCl.ABI.arm
                0x00000000       0x18 /home/jfb/nacl_sdk/pepper_42/toolchain/linux_arm_newlib/bin/../lib/gcc/arm-nacl/4.9.2/../../../../arm-nacl/lib/libcrt_common.a(lib_a-strchr.o)
 .note.GNU-stack
                0x00000000        0x0 /home/jfb/nacl_sdk/pepper_42/toolchain/linux_arm_newlib/bin/../lib/gcc/arm-nacl/4.9.2/../../../../arm-nacl/lib/libcrt_common.a(lib_a-strchr.o)
 .group         0x00000000        0x8 /home/jfb/nacl_sdk/pepper_42/toolchain/linux_arm_newlib/bin/../lib/gcc/arm-nacl/4.9.2/../../../../arm-nacl/lib/libcrt_common.a(lib_a-strcpy.o)
 .note.NaCl.ABI.arm
                0x00000000       0x18 /home/jfb/nacl_sdk/pepper_42/toolchain/linux_arm_newlib/bin/../lib/gcc/arm-nacl/4.9.2/../../../../arm-nacl/lib/libcrt_common.a(lib_a-strcpy.o)
 .note.GNU-stack
                0x00000000        0x0 /home/jfb/nacl_sdk/pepper_42/toolchain/linux_arm_newlib/bin/../lib/gcc/arm-nacl/4.9.2/../../../../arm-nacl/lib/libcrt_common.a(lib_a-strcpy.o)
 .group         0x00000000        0x8 /home/jfb/nacl_sdk/pepper_42/toolchain/linux_arm_newlib/bin/../lib/gcc/arm-nacl/4.9.2/../../../../arm-nacl/lib/libcrt_common.a(lib_a-strlcpy.o)
 .note.NaCl.ABI.arm
                0x00000000       0x18 /home/jfb/nacl_sdk/pepper_42/toolchain/linux_arm_newlib/bin/../lib/gcc/arm-nacl/4.9.2/../../../../arm-nacl/lib/libcrt_common.a(lib_a-strlcpy.o)
 .note.GNU-stack
                0x00000000        0x0 /home/jfb/nacl_sdk/pepper_42/toolchain/linux_arm_newlib/bin/../lib/gcc/arm-nacl/4.9.2/../../../../arm-nacl/lib/libcrt_common.a(lib_a-strlcpy.o)
 .group         0x00000000        0x8 /home/jfb/nacl_sdk/pepper_42/toolchain/linux_arm_newlib/bin/../lib/gcc/arm-nacl/4.9.2/../../../../arm-nacl/lib/libcrt_common.a(lib_a-strncasecmp.o)
 .note.NaCl.ABI.arm
                0x00000000       0x18 /home/jfb/nacl_sdk/pepper_42/toolchain/linux_arm_newlib/bin/../lib/gcc/arm-nacl/4.9.2/../../../../arm-nacl/lib/libcrt_common.a(lib_a-strncasecmp.o)
 .note.GNU-stack
                0x00000000        0x0 /home/jfb/nacl_sdk/pepper_42/toolchain/linux_arm_newlib/bin/../lib/gcc/arm-nacl/4.9.2/../../../../arm-nacl/lib/libcrt_common.a(lib_a-strncasecmp.o)
 .group         0x00000000        0x8 /home/jfb/nacl_sdk/pepper_42/toolchain/linux_arm_newlib/bin/../lib/gcc/arm-nacl/4.9.2/../../../../arm-nacl/lib/libcrt_common.a(lib_a-strncpy.o)
 .note.NaCl.ABI.arm
                0x00000000       0x18 /home/jfb/nacl_sdk/pepper_42/toolchain/linux_arm_newlib/bin/../lib/gcc/arm-nacl/4.9.2/../../../../arm-nacl/lib/libcrt_common.a(lib_a-strncpy.o)
 .note.GNU-stack
                0x00000000        0x0 /home/jfb/nacl_sdk/pepper_42/toolchain/linux_arm_newlib/bin/../lib/gcc/arm-nacl/4.9.2/../../../../arm-nacl/lib/libcrt_common.a(lib_a-strncpy.o)
 .group         0x00000000        0x8 /home/jfb/nacl_sdk/pepper_42/toolchain/linux_arm_newlib/bin/../lib/gcc/arm-nacl/4.9.2/../../../../arm-nacl/lib/libcrt_common.a(lib_a-strtol.o)
 .note.NaCl.ABI.arm
                0x00000000       0x18 /home/jfb/nacl_sdk/pepper_42/toolchain/linux_arm_newlib/bin/../lib/gcc/arm-nacl/4.9.2/../../../../arm-nacl/lib/libcrt_common.a(lib_a-strtol.o)
 .note.GNU-stack
                0x00000000        0x0 /home/jfb/nacl_sdk/pepper_42/toolchain/linux_arm_newlib/bin/../lib/gcc/arm-nacl/4.9.2/../../../../arm-nacl/lib/libcrt_common.a(lib_a-strtol.o)
 .group         0x00000000        0x8 /home/jfb/nacl_sdk/pepper_42/toolchain/linux_arm_newlib/bin/../lib/gcc/arm-nacl/4.9.2/../../../../arm-nacl/lib/libcrt_common.a(lib_a-svfprintf.o)
 .note.NaCl.ABI.arm
                0x00000000       0x18 /home/jfb/nacl_sdk/pepper_42/toolchain/linux_arm_newlib/bin/../lib/gcc/arm-nacl/4.9.2/../../../../arm-nacl/lib/libcrt_common.a(lib_a-svfprintf.o)
 .note.GNU-stack
                0x00000000        0x0 /home/jfb/nacl_sdk/pepper_42/toolchain/linux_arm_newlib/bin/../lib/gcc/arm-nacl/4.9.2/../../../../arm-nacl/lib/libcrt_common.a(lib_a-svfprintf.o)
 .group         0x00000000        0x8 /home/jfb/nacl_sdk/pepper_42/toolchain/linux_arm_newlib/bin/../lib/gcc/arm-nacl/4.9.2/../../../../arm-nacl/lib/libcrt_common.a(lib_a-vfiprintf.o)
 .note.NaCl.ABI.arm
                0x00000000       0x18 /home/jfb/nacl_sdk/pepper_42/toolchain/linux_arm_newlib/bin/../lib/gcc/arm-nacl/4.9.2/../../../../arm-nacl/lib/libcrt_common.a(lib_a-vfiprintf.o)
 .note.GNU-stack
                0x00000000        0x0 /home/jfb/nacl_sdk/pepper_42/toolchain/linux_arm_newlib/bin/../lib/gcc/arm-nacl/4.9.2/../../../../arm-nacl/lib/libcrt_common.a(lib_a-vfiprintf.o)
 .group         0x00000000        0x8 /home/jfb/nacl_sdk/pepper_42/toolchain/linux_arm_newlib/bin/../lib/gcc/arm-nacl/4.9.2/../../../../arm-nacl/lib/libcrt_common.a(lib_a-wcsnrtombs.o)
 .note.NaCl.ABI.arm
                0x00000000       0x18 /home/jfb/nacl_sdk/pepper_42/toolchain/linux_arm_newlib/bin/../lib/gcc/arm-nacl/4.9.2/../../../../arm-nacl/lib/libcrt_common.a(lib_a-wcsnrtombs.o)
 .note.GNU-stack
                0x00000000        0x0 /home/jfb/nacl_sdk/pepper_42/toolchain/linux_arm_newlib/bin/../lib/gcc/arm-nacl/4.9.2/../../../../arm-nacl/lib/libcrt_common.a(lib_a-wcsnrtombs.o)
 .group         0x00000000        0x8 /home/jfb/nacl_sdk/pepper_42/toolchain/linux_arm_newlib/bin/../lib/gcc/arm-nacl/4.9.2/../../../../arm-nacl/lib/libcrt_common.a(lib_a-ctype_.o)
 .note.NaCl.ABI.arm
                0x00000000       0x18 /home/jfb/nacl_sdk/pepper_42/toolchain/linux_arm_newlib/bin/../lib/gcc/arm-nacl/4.9.2/../../../../arm-nacl/lib/libcrt_common.a(lib_a-ctype_.o)
 .note.GNU-stack
                0x00000000        0x0 /home/jfb/nacl_sdk/pepper_42/toolchain/linux_arm_newlib/bin/../lib/gcc/arm-nacl/4.9.2/../../../../arm-nacl/lib/libcrt_common.a(lib_a-ctype_.o)
 .group         0x00000000        0x8 /home/jfb/nacl_sdk/pepper_42/toolchain/linux_arm_newlib/bin/../lib/gcc/arm-nacl/4.9.2/../../../../arm-nacl/lib/libcrt_common.a(lib_a-fputwc.o)
 .note.NaCl.ABI.arm
                0x00000000       0x18 /home/jfb/nacl_sdk/pepper_42/toolchain/linux_arm_newlib/bin/../lib/gcc/arm-nacl/4.9.2/../../../../arm-nacl/lib/libcrt_common.a(lib_a-fputwc.o)
 .note.GNU-stack
                0x00000000        0x0 /home/jfb/nacl_sdk/pepper_42/toolchain/linux_arm_newlib/bin/../lib/gcc/arm-nacl/4.9.2/../../../../arm-nacl/lib/libcrt_common.a(lib_a-fputwc.o)
 .group         0x00000000        0x8 /home/jfb/nacl_sdk/pepper_42/toolchain/linux_arm_newlib/bin/../lib/gcc/arm-nacl/4.9.2/../../../../arm-nacl/lib/libcrt_common.a(lib_a-svfiprintf.o)
 .note.NaCl.ABI.arm
                0x00000000       0x18 /home/jfb/nacl_sdk/pepper_42/toolchain/linux_arm_newlib/bin/../lib/gcc/arm-nacl/4.9.2/../../../../arm-nacl/lib/libcrt_common.a(lib_a-svfiprintf.o)
 .note.GNU-stack
                0x00000000        0x0 /home/jfb/nacl_sdk/pepper_42/toolchain/linux_arm_newlib/bin/../lib/gcc/arm-nacl/4.9.2/../../../../arm-nacl/lib/libcrt_common.a(lib_a-svfiprintf.o)
 .group         0x00000000        0x8 /home/jfb/nacl_sdk/pepper_42/toolchain/linux_arm_newlib/bin/../lib/gcc/arm-nacl/4.9.2/../../../../arm-nacl/lib/libcrt_common.a(lib_a-wbuf.o)
 .note.NaCl.ABI.arm
                0x00000000       0x18 /home/jfb/nacl_sdk/pepper_42/toolchain/linux_arm_newlib/bin/../lib/gcc/arm-nacl/4.9.2/../../../../arm-nacl/lib/libcrt_common.a(lib_a-wbuf.o)
 .note.GNU-stack
                0x00000000        0x0 /home/jfb/nacl_sdk/pepper_42/toolchain/linux_arm_newlib/bin/../lib/gcc/arm-nacl/4.9.2/../../../../arm-nacl/lib/libcrt_common.a(lib_a-wbuf.o)
 .group         0x00000000        0x8 /home/jfb/nacl_sdk/pepper_42/toolchain/linux_arm_newlib/bin/../lib/gcc/arm-nacl/4.9.2/../../../../arm-nacl/lib/libnacl.a(close_e9b92fbd.o)
 .note.NaCl.ABI.arm
                0x00000000       0x18 /home/jfb/nacl_sdk/pepper_42/toolchain/linux_arm_newlib/bin/../lib/gcc/arm-nacl/4.9.2/../../../../arm-nacl/lib/libnacl.a(close_e9b92fbd.o)
 .note.GNU-stack
                0x00000000        0x0 /home/jfb/nacl_sdk/pepper_42/toolchain/linux_arm_newlib/bin/../lib/gcc/arm-nacl/4.9.2/../../../../arm-nacl/lib/libnacl.a(close_e9b92fbd.o)
 .group         0x00000000        0x8 /home/jfb/nacl_sdk/pepper_42/toolchain/linux_arm_newlib/bin/../lib/gcc/arm-nacl/4.9.2/../../../../arm-nacl/lib/libnacl.a(isatty_02f56e94.o)
 .note.NaCl.ABI.arm
                0x00000000       0x18 /home/jfb/nacl_sdk/pepper_42/toolchain/linux_arm_newlib/bin/../lib/gcc/arm-nacl/4.9.2/../../../../arm-nacl/lib/libnacl.a(isatty_02f56e94.o)
 .note.GNU-stack
                0x00000000        0x0 /home/jfb/nacl_sdk/pepper_42/toolchain/linux_arm_newlib/bin/../lib/gcc/arm-nacl/4.9.2/../../../../arm-nacl/lib/libnacl.a(isatty_02f56e94.o)
 .group         0x00000000        0x8 /home/jfb/nacl_sdk/pepper_42/toolchain/linux_arm_newlib/bin/../lib/gcc/arm-nacl/4.9.2/../../../../arm-nacl/lib/libnacl.a(nacl_irt_fdio_b571b5e7.o)
 .note.NaCl.ABI.arm
                0x00000000       0x18 /home/jfb/nacl_sdk/pepper_42/toolchain/linux_arm_newlib/bin/../lib/gcc/arm-nacl/4.9.2/../../../../arm-nacl/lib/libnacl.a(nacl_irt_fdio_b571b5e7.o)
 .note.GNU-stack
                0x00000000        0x0 /home/jfb/nacl_sdk/pepper_42/toolchain/linux_arm_newlib/bin/../lib/gcc/arm-nacl/4.9.2/../../../../arm-nacl/lib/libnacl.a(nacl_irt_fdio_b571b5e7.o)
 .group         0x00000000        0x8 /home/jfb/nacl_sdk/pepper_42/toolchain/linux_arm_newlib/bin/../lib/gcc/arm-nacl/4.9.2/../../../../arm-nacl/lib/libnacl.a(fstat_0540ff63.o)
 .note.NaCl.ABI.arm
                0x00000000       0x18 /home/jfb/nacl_sdk/pepper_42/toolchain/linux_arm_newlib/bin/../lib/gcc/arm-nacl/4.9.2/../../../../arm-nacl/lib/libnacl.a(fstat_0540ff63.o)
 .note.GNU-stack
                0x00000000        0x0 /home/jfb/nacl_sdk/pepper_42/toolchain/linux_arm_newlib/bin/../lib/gcc/arm-nacl/4.9.2/../../../../arm-nacl/lib/libnacl.a(fstat_0540ff63.o)
 .group         0x00000000        0x8 /home/jfb/nacl_sdk/pepper_42/toolchain/linux_arm_newlib/bin/../lib/gcc/arm-nacl/4.9.2/../../../../arm-nacl/lib/libnacl.a(lseek_64d2d05c.o)
 .note.NaCl.ABI.arm
                0x00000000       0x18 /home/jfb/nacl_sdk/pepper_42/toolchain/linux_arm_newlib/bin/../lib/gcc/arm-nacl/4.9.2/../../../../arm-nacl/lib/libnacl.a(lseek_64d2d05c.o)
 .note.GNU-stack
                0x00000000        0x0 /home/jfb/nacl_sdk/pepper_42/toolchain/linux_arm_newlib/bin/../lib/gcc/arm-nacl/4.9.2/../../../../arm-nacl/lib/libnacl.a(lseek_64d2d05c.o)
 .group         0x00000000        0x8 /home/jfb/nacl_sdk/pepper_42/toolchain/linux_arm_newlib/bin/../lib/gcc/arm-nacl/4.9.2/../../../../arm-nacl/lib/libnacl.a(read_df872e10.o)
 .note.NaCl.ABI.arm
                0x00000000       0x18 /home/jfb/nacl_sdk/pepper_42/toolchain/linux_arm_newlib/bin/../lib/gcc/arm-nacl/4.9.2/../../../../arm-nacl/lib/libnacl.a(read_df872e10.o)
 .note.GNU-stack
                0x00000000        0x0 /home/jfb/nacl_sdk/pepper_42/toolchain/linux_arm_newlib/bin/../lib/gcc/arm-nacl/4.9.2/../../../../arm-nacl/lib/libnacl.a(read_df872e10.o)
 .group         0x00000000        0x8 /home/jfb/nacl_sdk/pepper_42/toolchain/linux_arm_newlib/bin/../lib/gcc/arm-nacl/4.9.2/../../../../arm-nacl/lib/libnacl.a(nanosleep_e59fdef1.o)
 .note.NaCl.ABI.arm
                0x00000000       0x18 /home/jfb/nacl_sdk/pepper_42/toolchain/linux_arm_newlib/bin/../lib/gcc/arm-nacl/4.9.2/../../../../arm-nacl/lib/libnacl.a(nanosleep_e59fdef1.o)
 .note.GNU-stack
                0x00000000        0x0 /home/jfb/nacl_sdk/pepper_42/toolchain/linux_arm_newlib/bin/../lib/gcc/arm-nacl/4.9.2/../../../../arm-nacl/lib/libnacl.a(nanosleep_e59fdef1.o)
 .group         0x00000000        0x8 /home/jfb/nacl_sdk/pepper_42/toolchain/linux_arm_newlib/bin/../lib/gcc/arm-nacl/4.9.2/libgcc.a(_udivsi3.o)
 .note.NaCl.ABI.arm
                0x00000000       0x18 /home/jfb/nacl_sdk/pepper_42/toolchain/linux_arm_newlib/bin/../lib/gcc/arm-nacl/4.9.2/libgcc.a(_udivsi3.o)
 .note.GNU-stack
                0x00000000        0x0 /home/jfb/nacl_sdk/pepper_42/toolchain/linux_arm_newlib/bin/../lib/gcc/arm-nacl/4.9.2/libgcc.a(_udivsi3.o)
 .group         0x00000000        0x8 /home/jfb/nacl_sdk/pepper_42/toolchain/linux_arm_newlib/bin/../lib/gcc/arm-nacl/4.9.2/libgcc.a(_divsi3.o)
 .note.NaCl.ABI.arm
                0x00000000       0x18 /home/jfb/nacl_sdk/pepper_42/toolchain/linux_arm_newlib/bin/../lib/gcc/arm-nacl/4.9.2/libgcc.a(_divsi3.o)
 .note.GNU-stack
                0x00000000        0x0 /home/jfb/nacl_sdk/pepper_42/toolchain/linux_arm_newlib/bin/../lib/gcc/arm-nacl/4.9.2/libgcc.a(_divsi3.o)
 .group         0x00000000        0x8 /home/jfb/nacl_sdk/pepper_42/toolchain/linux_arm_newlib/bin/../lib/gcc/arm-nacl/4.9.2/libgcc.a(_aeabi_uldivmod.o)
 .note.NaCl.ABI.arm
                0x00000000       0x18 /home/jfb/nacl_sdk/pepper_42/toolchain/linux_arm_newlib/bin/../lib/gcc/arm-nacl/4.9.2/libgcc.a(_aeabi_uldivmod.o)
 .note.GNU-stack
                0x00000000        0x0 /home/jfb/nacl_sdk/pepper_42/toolchain/linux_arm_newlib/bin/../lib/gcc/arm-nacl/4.9.2/libgcc.a(_aeabi_uldivmod.o)
 .group         0x00000000        0x8 /home/jfb/nacl_sdk/pepper_42/toolchain/linux_arm_newlib/bin/../lib/gcc/arm-nacl/4.9.2/libgcc.a(_dvmd_nacl.o)
 .note.NaCl.ABI.arm
                0x00000000       0x18 /home/jfb/nacl_sdk/pepper_42/toolchain/linux_arm_newlib/bin/../lib/gcc/arm-nacl/4.9.2/libgcc.a(_dvmd_nacl.o)
 .note.GNU-stack
                0x00000000        0x0 /home/jfb/nacl_sdk/pepper_42/toolchain/linux_arm_newlib/bin/../lib/gcc/arm-nacl/4.9.2/libgcc.a(_dvmd_nacl.o)
 .group         0x00000000        0x8 /home/jfb/nacl_sdk/pepper_42/toolchain/linux_arm_newlib/bin/../lib/gcc/arm-nacl/4.9.2/libgcc.a(bpabi.o)
 .note.NaCl.ABI.arm
                0x00000000       0x18 /home/jfb/nacl_sdk/pepper_42/toolchain/linux_arm_newlib/bin/../lib/gcc/arm-nacl/4.9.2/libgcc.a(bpabi.o)
 .note.GNU-stack
                0x00000000        0x0 /home/jfb/nacl_sdk/pepper_42/toolchain/linux_arm_newlib/bin/../lib/gcc/arm-nacl/4.9.2/libgcc.a(bpabi.o)
 .group         0x00000000        0x8 /home/jfb/nacl_sdk/pepper_42/toolchain/linux_arm_newlib/bin/../lib/gcc/arm-nacl/4.9.2/libgcc.a(_divdi3.o)
 .note.NaCl.ABI.arm
                0x00000000       0x18 /home/jfb/nacl_sdk/pepper_42/toolchain/linux_arm_newlib/bin/../lib/gcc/arm-nacl/4.9.2/libgcc.a(_divdi3.o)
 .note.GNU-stack
                0x00000000        0x0 /home/jfb/nacl_sdk/pepper_42/toolchain/linux_arm_newlib/bin/../lib/gcc/arm-nacl/4.9.2/libgcc.a(_divdi3.o)
 .group         0x00000000        0x8 /home/jfb/nacl_sdk/pepper_42/toolchain/linux_arm_newlib/bin/../lib/gcc/arm-nacl/4.9.2/libgcc.a(_udivdi3.o)
 .note.NaCl.ABI.arm
                0x00000000       0x18 /home/jfb/nacl_sdk/pepper_42/toolchain/linux_arm_newlib/bin/../lib/gcc/arm-nacl/4.9.2/libgcc.a(_udivdi3.o)
 .note.GNU-stack
                0x00000000        0x0 /home/jfb/nacl_sdk/pepper_42/toolchain/linux_arm_newlib/bin/../lib/gcc/arm-nacl/4.9.2/libgcc.a(_udivdi3.o)
 .group         0x00000000        0x8 /home/jfb/nacl_sdk/pepper_42/toolchain/linux_arm_newlib/bin/../lib/gcc/arm-nacl/4.9.2/crtend.o
 .note.NaCl.ABI.arm
                0x00000000       0x18 /home/jfb/nacl_sdk/pepper_42/toolchain/linux_arm_newlib/bin/../lib/gcc/arm-nacl/4.9.2/crtend.o
 .note.GNU-stack
                0x00000000        0x0 /home/jfb/nacl_sdk/pepper_42/toolchain/linux_arm_newlib/bin/../lib/gcc/arm-nacl/4.9.2/crtend.o
 .group         0x00000000        0x8 /home/jfb/nacl_sdk/pepper_42/toolchain/linux_arm_newlib/bin/../lib/gcc/arm-nacl/4.9.2/../../../../arm-nacl/lib/crtn.o
 .note.NaCl.ABI.arm
                0x00000000       0x18 /home/jfb/nacl_sdk/pepper_42/toolchain/linux_arm_newlib/bin/../lib/gcc/arm-nacl/4.9.2/../../../../arm-nacl/lib/crtn.o

Memory Configuration

Name             Origin             Length             Attributes
*default*        0x00000000         0xffffffff

Linker script and memory map

LOAD /home/jfb/nacl_sdk/pepper_42/toolchain/linux_arm_newlib/bin/../lib/gcc/arm-nacl/4.9.2/../../../../arm-nacl/lib/crt1.o
LOAD /home/jfb/nacl_sdk/pepper_42/toolchain/linux_arm_newlib/bin/../lib/gcc/arm-nacl/4.9.2/../../../../arm-nacl/lib/crti.o
LOAD /home/jfb/nacl_sdk/pepper_42/toolchain/linux_arm_newlib/bin/../lib/gcc/arm-nacl/4.9.2/crtbegin.o
LOAD newlib/Release/debugging_arm.o
LOAD /home/jfb/nacl_sdk/pepper_42//lib/newlib_arm/Release/liberror_handling.a
LOAD /home/jfb/nacl_sdk/pepper_42/toolchain/linux_arm_newlib/bin/../lib/gcc/arm-nacl/4.9.2/../../../../arm-nacl/lib/libppapi.a
LOAD /home/jfb/nacl_sdk/pepper_42/toolchain/linux_arm_newlib/bin/../lib/gcc/arm-nacl/4.9.2/../../../../arm-nacl/lib/libppapi_stub.a
LOAD /home/jfb/nacl_sdk/pepper_42/toolchain/linux_arm_newlib/bin/../lib/gcc/arm-nacl/4.9.2/../../../../arm-nacl/lib/libpthread.a
LOAD /home/jfb/nacl_sdk/pepper_42/toolchain/linux_arm_newlib/bin/../lib/gcc/arm-nacl/4.9.2/../../../../arm-nacl/lib/libstdc++.a
LOAD /home/jfb/nacl_sdk/pepper_42/toolchain/linux_arm_newlib/bin/../lib/gcc/arm-nacl/4.9.2/../../../../arm-nacl/lib/libm.a
START GROUP
LOAD /home/jfb/nacl_sdk/pepper_42/toolchain/linux_arm_newlib/bin/../lib/gcc/arm-nacl/4.9.2/libgcc.a
LOAD /home/jfb/nacl_sdk/pepper_42/toolchain/linux_arm_newlib/bin/../lib/gcc/arm-nacl/4.9.2/../../../../arm-nacl/lib/libpthread.a
LOAD /home/jfb/nacl_sdk/pepper_42/toolchain/linux_arm_newlib/bin/../lib/gcc/arm-nacl/4.9.2/../../../../arm-nacl/lib/libc.a
START GROUP
LOAD /home/jfb/nacl_sdk/pepper_42/toolchain/linux_arm_newlib/bin/../lib/gcc/arm-nacl/4.9.2/../../../../arm-nacl/lib/libnacl.a
LOAD /home/jfb/nacl_sdk/pepper_42/toolchain/linux_arm_newlib/bin/../lib/gcc/arm-nacl/4.9.2/../../../../arm-nacl/lib/libcrt_common.a
END GROUP
END GROUP
LOAD /home/jfb/nacl_sdk/pepper_42/toolchain/linux_arm_newlib/bin/../lib/gcc/arm-nacl/4.9.2/crtend.o
LOAD /home/jfb/nacl_sdk/pepper_42/toolchain/linux_arm_newlib/bin/../lib/gcc/arm-nacl/4.9.2/../../../../arm-nacl/lib/crtn.o
                0x00020000                PROVIDE (__executable_start, 0x20000)
                0x00020000                . = 0x20000

.init           0x00020000       0x10
 *(SORT(.init))
 .init          0x00020000        0x0 /home/jfb/nacl_sdk/pepper_42/toolchain/linux_arm_newlib/bin/../lib/gcc/arm-nacl/4.9.2/../../../../arm-nacl/lib/crti.o
                0x00020000                _init
 .init          0x00020000       0x10 /home/jfb/nacl_sdk/pepper_42/toolchain/linux_arm_newlib/bin/../lib/gcc/arm-nacl/4.9.2/../../../../arm-nacl/lib/crtn.o

.plt
 *(.plt)

.iplt           0x00020010        0x0
 *(.iplt)
 .iplt          0x00020010        0x0 /home/jfb/nacl_sdk/pepper_42/toolchain/linux_arm_newlib/bin/../lib/gcc/arm-nacl/4.9.2/crtbegin.o

.text           0x00020040    0x253b0
 *(.text.unlikely .text.*_unlikely .text.unlikely.*)
 .text.unlikely
                0x00020040       0x40 /home/jfb/nacl_sdk/pepper_42/toolchain/linux_arm_newlib/bin/../lib/gcc/arm-nacl/4.9.2/../../../../arm-nacl/lib/libppapi_stub.a(ppapi_plugin_start_8da67623.o)
 *(.text.exit .text.exit.*)
 *(.text.startup .text.startup.*)
 .text.startup  0x00020080       0x10 /home/jfb/nacl_sdk/pepper_42/toolchain/linux_arm_newlib/bin/../lib/gcc/arm-nacl/4.9.2/../../../../arm-nacl/lib/libppapi_stub.a(plugin_main_irt_21ce9d26.o)
                0x00020080                main
 *(.text.hot .text.hot.*)
 *(.text .stub .text.* .gnu.linkonce.t.*)
 .text          0x00020090        0x0 /home/jfb/nacl_sdk/pepper_42/toolchain/linux_arm_newlib/bin/../lib/gcc/arm-nacl/4.9.2/../../../../arm-nacl/lib/crti.o
 .text          0x00020090      0x1d0 /home/jfb/nacl_sdk/pepper_42/toolchain/linux_arm_newlib/bin/../lib/gcc/arm-nacl/4.9.2/crtbegin.o
 .text          0x00020260      0x830 newlib/Release/debugging_arm.o
                0x000202f0                layer5
                0x00020330                layer4
                0x00020370                layer3
                0x000203d0                layer2
                0x00020420                layer1
                0x000204b0                PostMessage
                0x000206a0                NexeMain
                0x000206e0                DumpJson
                0x00020910                PPP_InitializeModule
                0x000209c0                PPP_GetInterface
                0x00020a70                PPP_ShutdownModule
 .text          0x00020a90      0x920 /home/jfb/nacl_sdk/pepper_42//lib/newlib_arm/Release/liberror_handling.a(error_handling_arm.o)
                0x00020ae0                EHGetTopFrame
                0x00020b30                EHUnwindFrame
                0x00020bb0                EHDefaultJsonHandler
                0x00020f60                EHRequestExceptionsRaw
                0x00021120                EHRequestExceptionStackOnThread
                0x00021320                EHRequestExceptionsJson
                0x00021390                EHHanderInstalled
 .text          0x000213b0      0x200 /home/jfb/nacl_sdk/pepper_42//lib/newlib_arm/Release/liberror_handling.a(string_stream_arm.o)
                0x000213b0                ssinit
                0x000213d0                ssfree
                0x00021430                ssvprintf
                0x00021560                ssprintf
 .text          0x000215b0        0x0 /home/jfb/nacl_sdk/pepper_42/toolchain/linux_arm_newlib/bin/../lib/gcc/arm-nacl/4.9.2/../../../../arm-nacl/lib/libppapi_stub.a(plugin_main_irt_21ce9d26.o)
 .text          0x000215b0       0x10 /home/jfb/nacl_sdk/pepper_42/toolchain/linux_arm_newlib/bin/../lib/gcc/arm-nacl/4.9.2/../../../../arm-nacl/lib/libppapi_stub.a(ppapi_plugin_main_399d0cf7.o)
                0x000215b0                PpapiPluginMain
 .text          0x000215c0      0x140 /home/jfb/nacl_sdk/pepper_42/toolchain/linux_arm_newlib/bin/../lib/gcc/arm-nacl/4.9.2/../../../../arm-nacl/lib/libppapi_stub.a(ppapi_plugin_start_8da67623.o)
                0x000215c0                PpapiPluginStart
 .text          0x00021700       0x40 /home/jfb/nacl_sdk/pepper_42/toolchain/linux_arm_newlib/bin/../lib/gcc/arm-nacl/4.9.2/../../../../arm-nacl/lib/libppapi_stub.a(thread_creator_ccf263e1.o)
                0x00021720                __nacl_register_thread_creator
 .text          0x00021740     0x1b80 /home/jfb/nacl_sdk/pepper_42/toolchain/linux_arm_newlib/bin/../lib/gcc/arm-nacl/4.9.2/../../../../arm-nacl/lib/libpthread.a(nc_thread_7e478b15.o)
                0x00021980                __nc_initialize_globals
                0x00021a80                __pthread_initialize
                0x00021b80                pthread_create
                0x00021fb0                pthread_cleanup_push
                0x00022040                pthread_cleanup_pop
                0x00022100                pthread_join
                0x000222b0                pthread_detach
                0x00022370                pthread_kill
                0x00022380                pthread_self
                0x000223d0                pthread_equal
                0x000223f0                pthread_setschedprio
                0x00022470                pthread_attr_init
                0x000224a0                pthread_attr_destroy
                0x000224c0                pthread_attr_setdetachstate
                0x000224e0                pthread_attr_getdetachstate
                0x00022500                pthread_attr_setscope
                0x00022540                pthread_attr_getscope
                0x00022560                pthread_attr_setstacksize
                0x000225a0                pthread_attr_getstacksize
                0x000225d0                __local_lock_init
                0x00022640                __local_lock_init_recursive
                0x000226b0                __local_lock_close
                0x000226d0                __local_lock_close_recursive
                0x000226f0                __local_lock_acquire
                0x00022720                __local_lock_acquire_recursive
                0x00022750                __local_lock_try_acquire
                0x000227a0                __local_lock_try_acquire_recursive
                0x000227f0                __local_lock_release
                0x00022820                __local_lock_release_recursive
                0x00022850                pthread_key_create
                0x00022940                pthread_key_delete
                0x000229f0                pthread_setspecific
                0x00022b10                pthread_getspecific
                0x00022bb0                __nc_tsd_exit
                0x00022d30                pthread_exit
 .text          0x000232c0      0x240 /home/jfb/nacl_sdk/pepper_42/toolchain/linux_arm_newlib/bin/../lib/gcc/arm-nacl/4.9.2/../../../../arm-nacl/lib/libpthread.a(nc_condvar_305aa45a.o)
                0x000232c0                pthread_cond_init
                0x000232e0                pthread_cond_destroy
                0x000232f0                pthread_cond_signal
                0x00023380                pthread_cond_broadcast
                0x00023410                pthread_cond_timedwait_abs
                0x000234f0                pthread_cond_wait
 .text          0x00023500      0x300 /home/jfb/nacl_sdk/pepper_42/toolchain/linux_arm_newlib/bin/../lib/gcc/arm-nacl/4.9.2/../../../../arm-nacl/lib/libpthread.a(dynamic_annotations_33ba59cc.o)
                0x00023500                NACL_AnnotateRWLockCreate
                0x00023510                NACL_AnnotateRWLockDestroy
                0x00023520                NACL_AnnotateRWLockAcquired
                0x00023530                NACL_AnnotateRWLockReleased
                0x00023540                NACL_AnnotateBarrierInit
                0x00023550                NACL_AnnotateBarrierWaitBefore
                0x00023560                NACL_AnnotateBarrierWaitAfter
                0x00023570                NACL_AnnotateBarrierDestroy
                0x00023580                NACL_AnnotateCondVarWait
                0x00023590                NACL_AnnotateCondVarSignal
                0x000235a0                NACL_AnnotateCondVarSignalAll
                0x000235b0                NACL_AnnotateHappensBefore
                0x000235c0                NACL_AnnotateHappensAfter
                0x000235d0                NACL_AnnotatePublishMemoryRange
                0x000235e0                NACL_AnnotateUnpublishMemoryRange
                0x000235f0                NACL_AnnotatePCQCreate
                0x00023600                NACL_AnnotatePCQDestroy
                0x00023610                NACL_AnnotatePCQPut
                0x00023620                NACL_AnnotatePCQGet
                0x00023630                NACL_AnnotateNewMemory
                0x00023640                NACL_AnnotateExpectRace
                0x00023650                NACL_AnnotateFlushExpectedRaces
                0x00023660                NACL_AnnotateBenignRace
                0x00023670                NACL_AnnotateBenignRaceSized
                0x00023680                NACL_AnnotateMutexIsUsedAsCondVar
                0x00023690                NACL_AnnotateMutexIsNotPHB
                0x000236a0                NACL_AnnotateTraceMemory
                0x000236b0                NACL_AnnotateThreadName
                0x000236c0                NACL_AnnotateIgnoreReadsBegin
                0x000236d0                NACL_AnnotateIgnoreReadsEnd
                0x000236e0                NACL_AnnotateIgnoreWritesBegin
                0x000236f0                NACL_AnnotateIgnoreWritesEnd
                0x00023700                NACL_AnnotateIgnoreSyncBegin
                0x00023710                NACL_AnnotateIgnoreSyncEnd
                0x00023720                NACL_AnnotateEnableRaceDetection
                0x00023730                NACL_AnnotateNoOp
                0x00023740                NACL_AnnotateFlushState
                0x00023750                RunningOnValgrind
 .text          0x00023800      0x670 /home/jfb/nacl_sdk/pepper_42/toolchain/linux_arm_newlib/bin/../lib/gcc/arm-nacl/4.9.2/../../../../arm-nacl/lib/libpthread.a(nc_mutex_86341ae1.o)
                0x00023ab0                pthread_mutex_init
                0x00023b00                pthread_mutex_destroy
                0x00023b60                pthread_mutex_trylock
                0x00023b70                pthread_mutex_lock
                0x00023b80                pthread_mutex_timedlock
                0x00023b90                pthread_mutex_unlock
                0x00023d20                pthread_once
                0x00023e00                pthread_mutexattr_init
                0x00023e20                pthread_mutexattr_destroy
                0x00023e30                pthread_mutexattr_settype
                0x00023e50                pthread_mutexattr_gettype
 .text          0x00023e70       0x60 /home/jfb/nacl_sdk/pepper_42/toolchain/linux_arm_newlib/bin/../lib/gcc/arm-nacl/4.9.2/../../../../arm-nacl/lib/libpthread.a(nc_init_irt_d3daafc0.o)
                0x00023e70                __nc_initialize_interfaces
 .text          0x00023ed0     0x1dc0 /home/jfb/nacl_sdk/pepper_42/toolchain/linux_arm_newlib/bin/../lib/gcc/arm-nacl/4.9.2/libgcc.a(unwind-arm.o)
                0x00024770                _Unwind_GetCFA
                0x00024780                __gnu_Unwind_RaiseException
                0x000248e0                __gnu_Unwind_ForcedUnwind
                0x00024920                __gnu_Unwind_Resume
                0x000249f0                __gnu_Unwind_Resume_or_Rethrow
                0x00024a30                _Unwind_Complete
                0x00024a40                _Unwind_DeleteException
                0x00024a70                _Unwind_VRS_Get
                0x00024b40                _Unwind_VRS_Set
                0x00024c20                __gnu_Unwind_Backtrace
                0x00025520                __aeabi_unwind_cpp_pr0
                0x00025530                __aeabi_unwind_cpp_pr1
                0x00025540                __aeabi_unwind_cpp_pr2
                0x00025550                _Unwind_VRS_Pop
 .text          0x00025c90      0x220 /home/jfb/nacl_sdk/pepper_42/toolchain/linux_arm_newlib/bin/../lib/gcc/arm-nacl/4.9.2/libgcc.a(libunwind.o)
                0x00025c90                __restore_core_regs
                0x00025c90                restore_core_regs
                0x00025cd0                __gnu_Unwind_Restore_VFP
                0x00025ce0                __gnu_Unwind_Save_VFP
                0x00025cf0                __gnu_Unwind_Restore_VFP_D
                0x00025d00                __gnu_Unwind_Save_VFP_D
                0x00025d10                __gnu_Unwind_Restore_VFP_D_16_to_31
                0x00025d20                __gnu_Unwind_Save_VFP_D_16_to_31
                0x00025d30                __gnu_Unwind_Restore_WMMXD
                0x00025d40                __gnu_Unwind_Save_WMMXD
                0x00025d50                __gnu_Unwind_Restore_WMMXC
                0x00025d60                __gnu_Unwind_Save_WMMXC
                0x00025d70                ___Unwind_RaiseException
                0x00025d70                _Unwind_RaiseException
                0x00025db0                ___Unwind_Resume
                0x00025db0                _Unwind_Resume
                0x00025df0                _Unwind_Resume_or_Rethrow
                0x00025df0                ___Unwind_Resume_or_Rethrow
                0x00025e30                ___Unwind_ForcedUnwind
                0x00025e30                _Unwind_ForcedUnwind
                0x00025e70                _Unwind_Backtrace
                0x00025e70                ___Unwind_Backtrace
 .text          0x00025eb0      0x860 /home/jfb/nacl_sdk/pepper_42/toolchain/linux_arm_newlib/bin/../lib/gcc/arm-nacl/4.9.2/libgcc.a(pr-support.o)
                0x00025fc0                __gnu_unwind_execute
                0x000265b0                __gnu_unwind_frame
                0x00026620                _Unwind_GetRegionStart
                0x00026670                _Unwind_GetLanguageSpecificData
                0x000266d0                _Unwind_GetDataRelBase
                0x000266f0                _Unwind_GetTextRelBase
 .text          0x00026710       0x40 /home/jfb/nacl_sdk/pepper_42/toolchain/linux_arm_newlib/bin/../lib/gcc/arm-nacl/4.9.2/../../../../arm-nacl/lib/libnacl.a(_exit_710c7d0d.o)
                0x00026710                _exit
 .text          0x00026750       0x40 /home/jfb/nacl_sdk/pepper_42/toolchain/linux_arm_newlib/bin/../lib/gcc/arm-nacl/4.9.2/../../../../arm-nacl/lib/libnacl.a(abort_9f6b5845.o)
                0x00026750                abort
 .text          0x00026790        0x0 /home/jfb/nacl_sdk/pepper_42/toolchain/linux_arm_newlib/bin/../lib/gcc/arm-nacl/4.9.2/../../../../arm-nacl/lib/libnacl.a(environ_25cd24d8.o)
 .text          0x00026790      0x120 /home/jfb/nacl_sdk/pepper_42/toolchain/linux_arm_newlib/bin/../lib/gcc/arm-nacl/4.9.2/../../../../arm-nacl/lib/libnacl.a(start_fa9ef7de.o)
                0x00026790                _start
 .text          0x000268b0     0x65e0 /home/jfb/nacl_sdk/pepper_42/toolchain/linux_arm_newlib/bin/../lib/gcc/arm-nacl/4.9.2/../../../../arm-nacl/lib/libnacl.a(malloc_222c4a1e.o)
                0x000285c0                malloc
                0x0002afb0                free
                0x0002bc10                calloc
                0x0002bcd0                realloc
                0x0002bed0                realloc_in_place
                0x0002c040                memalign
                0x0002c060                posix_memalign
                0x0002c160                valloc
                0x0002c1c0                pvalloc
                0x0002c220                independent_calloc
                0x0002c270                independent_comalloc
                0x0002c280                bulk_free
                0x0002c4c0                malloc_trim
                0x0002c5f0                malloc_footprint
                0x0002c610                malloc_max_footprint
                0x0002c630                malloc_footprint_limit
                0x0002c650                malloc_set_footprint_limit
                0x0002c6a0                mallinfo
                0x0002c990                malloc_stats
                0x0002ccd0                mallopt
                0x0002ce00                malloc_usable_size
                0x0002ce50                _malloc_r
                0x0002ce60                _calloc_r
                0x0002ce70                _realloc_r
                0x0002ce80                _free_r
 .text          0x0002ce90      0x2a0 /home/jfb/nacl_sdk/pepper_42/toolchain/linux_arm_newlib/bin/../lib/gcc/arm-nacl/4.9.2/../../../../arm-nacl/lib/libnacl.a(nacl_irt_6de1d53f.o)
                0x0002cfa0                __libnacl_irt_query
                0x0002d020                __libnacl_mandatory_irt_query
                0x0002d080                __libnacl_irt_init_fn
 .text          0x0002d130       0xc0 /home/jfb/nacl_sdk/pepper_42/toolchain/linux_arm_newlib/bin/../lib/gcc/arm-nacl/4.9.2/../../../../arm-nacl/lib/libnacl.a(pthread_initialize_minimal_4b6e776b.o)
                0x0002d130                __pthread_initialize_minimal
 .text          0x0002d1f0       0x10 /home/jfb/nacl_sdk/pepper_42/toolchain/linux_arm_newlib/bin/../lib/gcc/arm-nacl/4.9.2/../../../../arm-nacl/lib/libnacl.a(nacl_read_tp_5748ac47.o)
                0x0002d1f0                __nacl_read_tp
 .text          0x0002d200       0x30 /home/jfb/nacl_sdk/pepper_42/toolchain/linux_arm_newlib/bin/../lib/gcc/arm-nacl/4.9.2/../../../../arm-nacl/lib/libnacl.a(nacl_interface_query_ef8a99f1.o)
                0x0002d200                nacl_interface_query
 .text          0x0002d230       0xc0 /home/jfb/nacl_sdk/pepper_42/toolchain/linux_arm_newlib/bin/../lib/gcc/arm-nacl/4.9.2/../../../../arm-nacl/lib/libnacl.a(mmap_767fb080.o)
                0x0002d230                mmap
 .text          0x0002d2f0       0x80 /home/jfb/nacl_sdk/pepper_42/toolchain/linux_arm_newlib/bin/../lib/gcc/arm-nacl/4.9.2/../../../../arm-nacl/lib/libnacl.a(sched_yield_56c375be.o)
                0x0002d2f0                sched_yield
 .text          0x0002d370       0x80 /home/jfb/nacl_sdk/pepper_42/toolchain/linux_arm_newlib/bin/../lib/gcc/arm-nacl/4.9.2/../../../../arm-nacl/lib/libnacl.a(munmap_d4f09867.o)
                0x0002d370                munmap
 .text          0x0002d3f0      0x3f0 /home/jfb/nacl_sdk/pepper_42/toolchain/linux_arm_newlib/bin/../lib/gcc/arm-nacl/4.9.2/../../../../arm-nacl/lib/libnacl.a(tls_bba1975b.o)
                0x0002d590                __tls_get_addr
                0x0002d5c0                __nacl_tls_combined_size
                0x0002d650                __nacl_tls_initialize_memory
 .text          0x0002d7e0       0x90 /home/jfb/nacl_sdk/pepper_42/toolchain/linux_arm_newlib/bin/../lib/gcc/arm-nacl/4.9.2/../../../../arm-nacl/lib/libnacl.a(write_fb49787f.o)
                0x0002d7e0                write
 .text          0x0002d870       0x20 /home/jfb/nacl_sdk/pepper_42/toolchain/linux_arm_newlib/bin/../lib/gcc/arm-nacl/4.9.2/../../../../arm-nacl/lib/libnacl.a(nacl_tls_get_d2f842b5.o)
                0x0002d870                nacl_tls_get
 .text          0x0002d890      0x1e0 /home/jfb/nacl_sdk/pepper_42/toolchain/linux_arm_newlib/bin/../lib/gcc/arm-nacl/4.9.2/../../../../arm-nacl/lib/libnacl.a(nacl_irt_init_7b4f826e.o)
                0x0002d8a0                __libnacl_irt_init
 .text          0x0002da70       0x90 /home/jfb/nacl_sdk/pepper_42/toolchain/linux_arm_newlib/bin/../lib/gcc/arm-nacl/4.9.2/../../../../arm-nacl/lib/libnacl.a(sysconf_ad295ea2.o)
                0x0002da70                sysconf
 .text          0x0002db00       0x20 /home/jfb/nacl_sdk/pepper_42/toolchain/linux_arm_newlib/bin/../lib/gcc/arm-nacl/4.9.2/../../../../arm-nacl/lib/libnacl.a(nacl_tls_init_eb0cd232.o)
                0x0002db00                nacl_tls_init
 .text          0x0002db20       0x20 /home/jfb/nacl_sdk/pepper_42/toolchain/linux_arm_newlib/bin/../lib/gcc/arm-nacl/4.9.2/../../../../arm-nacl/lib/libcrt_common.a(lib_a-atexit.o)
                0x0002db20                atexit
 .text          0x0002db40       0x40 /home/jfb/nacl_sdk/pepper_42/toolchain/linux_arm_newlib/bin/../lib/gcc/arm-nacl/4.9.2/../../../../arm-nacl/lib/libcrt_common.a(lib_a-errno.o)
                0x0002db40                __errno
 .text          0x0002db80       0x60 /home/jfb/nacl_sdk/pepper_42/toolchain/linux_arm_newlib/bin/../lib/gcc/arm-nacl/4.9.2/../../../../arm-nacl/lib/libcrt_common.a(lib_a-exit.o)
                0x0002db80                exit
 .text          0x0002dbe0      0x520 /home/jfb/nacl_sdk/pepper_42/toolchain/linux_arm_newlib/bin/../lib/gcc/arm-nacl/4.9.2/../../../../arm-nacl/lib/libcrt_common.a(lib_a-fflush.o)
                0x0002dbe0                __sflush_r
                0x0002dfa0                _fflush_r
                0x0002e0a0                fflush
 .text          0x0002e100      0x790 /home/jfb/nacl_sdk/pepper_42/toolchain/linux_arm_newlib/bin/../lib/gcc/arm-nacl/4.9.2/../../../../arm-nacl/lib/libcrt_common.a(lib_a-findfp.o)
                0x0002e100                _cleanup_r
                0x0002e2a0                __sfmoreglue
                0x0002e330                _cleanup
                0x0002e350                __sinit
                0x0002e520                __sfp
                0x0002e740                __sfp_lock_acquire
                0x0002e760                __sfp_lock_release
                0x0002e780                __sinit_lock_acquire
                0x0002e790                __sinit_lock_release
                0x0002e7a0                __fp_lock_all
                0x0002e820                __fp_unlock_all
 .text          0x0002e890       0x80 /home/jfb/nacl_sdk/pepper_42/toolchain/linux_arm_newlib/bin/../lib/gcc/arm-nacl/4.9.2/../../../../arm-nacl/lib/libcrt_common.a(lib_a-fini.o)
                0x0002e890                __libc_fini_array
 .text          0x0002e910       0xd0 /home/jfb/nacl_sdk/pepper_42/toolchain/linux_arm_newlib/bin/../lib/gcc/arm-nacl/4.9.2/../../../../arm-nacl/lib/libcrt_common.a(lib_a-fprintf.o)
                0x0002e910                _fprintf_r
                0x0002e960                fprintf
 .text          0x0002e9e0      0x310 /home/jfb/nacl_sdk/pepper_42/toolchain/linux_arm_newlib/bin/../lib/gcc/arm-nacl/4.9.2/../../../../arm-nacl/lib/libcrt_common.a(lib_a-fwalk.o)
                0x0002e9e0                _fwalk
                0x0002eb80                _fwalk_reent
 .text          0x0002ecf0      0x270 /home/jfb/nacl_sdk/pepper_42/toolchain/linux_arm_newlib/bin/../lib/gcc/arm-nacl/4.9.2/../../../../arm-nacl/lib/libcrt_common.a(lib_a-fwrite.o)
                0x0002ecf0                _fwrite_r
                0x0002eed0                fwrite
 .text          0x0002ef60       0xb0 /home/jfb/nacl_sdk/pepper_42/toolchain/linux_arm_newlib/bin/../lib/gcc/arm-nacl/4.9.2/../../../../arm-nacl/lib/libcrt_common.a(lib_a-getenv.o)
                0x0002ef60                _findenv
                0x0002efa0                getenv
 .text          0x0002f010      0x1c0 /home/jfb/nacl_sdk/pepper_42/toolchain/linux_arm_newlib/bin/../lib/gcc/arm-nacl/4.9.2/../../../../arm-nacl/lib/libcrt_common.a(lib_a-getenv_r.o)
                0x0002f010                _findenv_r
                0x0002f190                _getenv_r
 .text          0x0002f1d0       0x40 /home/jfb/nacl_sdk/pepper_42/toolchain/linux_arm_newlib/bin/../lib/gcc/arm-nacl/4.9.2/../../../../arm-nacl/lib/libcrt_common.a(lib_a-impure.o)
                0x0002f1d0                __newlib_thread_init
                0x0002f200                __newlib_thread_exit
 .text          0x0002f210       0xe0 /home/jfb/nacl_sdk/pepper_42/toolchain/linux_arm_newlib/bin/../lib/gcc/arm-nacl/4.9.2/../../../../arm-nacl/lib/libcrt_common.a(lib_a-init.o)
                0x0002f210                __libc_init_array
 *fill*         0x0002f2f0       0x10 
 .text          0x0002f300      0x940 /home/jfb/nacl_sdk/pepper_42/toolchain/linux_arm_newlib/bin/../lib/gcc/arm-nacl/4.9.2/../../../../arm-nacl/lib/libcrt_common.a(lib_a-memcpy.o)
                0x0002f300                memcpy
 .text          0x0002fc40      0x170 /home/jfb/nacl_sdk/pepper_42/toolchain/linux_arm_newlib/bin/../lib/gcc/arm-nacl/4.9.2/../../../../arm-nacl/lib/libcrt_common.a(lib_a-memset.o)
                0x0002fc40                memset
 .text          0x0002fdb0       0x80 /home/jfb/nacl_sdk/pepper_42/toolchain/linux_arm_newlib/bin/../lib/gcc/arm-nacl/4.9.2/../../../../arm-nacl/lib/libcrt_common.a(lib_a-sleep.o)
                0x0002fdb0                sleep
 .text          0x0002fe30      0x1e0 /home/jfb/nacl_sdk/pepper_42/toolchain/linux_arm_newlib/bin/../lib/gcc/arm-nacl/4.9.2/../../../../arm-nacl/lib/libcrt_common.a(lib_a-stdio.o)
                0x0002fe30                __sread
                0x0002fec0                __seofread
                0x0002fed0                __swrite
                0x0002ff70                __sseek
                0x00030000                __sclose
 *fill*         0x00030010       0x10 
 .text          0x00030020      0x460 /home/jfb/nacl_sdk/pepper_42/toolchain/linux_arm_newlib/bin/../lib/gcc/arm-nacl/4.9.2/../../../../arm-nacl/lib/libcrt_common.a(lib_a-strcmp.o)
                0x00030030                strcmp
 .text          0x00030480      0x140 /home/jfb/nacl_sdk/pepper_42/toolchain/linux_arm_newlib/bin/../lib/gcc/arm-nacl/4.9.2/../../../../arm-nacl/lib/libcrt_common.a(lib_a-strlen-armv7.o)
                0x00030480                strlen
 .text          0x000305c0      0x1b0 /home/jfb/nacl_sdk/pepper_42/toolchain/linux_arm_newlib/bin/../lib/gcc/arm-nacl/4.9.2/../../../../arm-nacl/lib/libcrt_common.a(lib_a-strncmp.o)
                0x000305c0                strncmp
 .text          0x00030770     0x3a80 /home/jfb/nacl_sdk/pepper_42/toolchain/linux_arm_newlib/bin/../lib/gcc/arm-nacl/4.9.2/../../../../arm-nacl/lib/libcrt_common.a(lib_a-vfprintf.o)
                0x00030770                _vfprintf_r
                0x00034030                vfprintf
 .text          0x000341f0      0x190 /home/jfb/nacl_sdk/pepper_42/toolchain/linux_arm_newlib/bin/../lib/gcc/arm-nacl/4.9.2/../../../../arm-nacl/lib/libcrt_common.a(lib_a-vsnprintf.o)
                0x000341f0                _vsnprintf_r
                0x000342f0                vsnprintf
 .text          0x00034380       0xe0 /home/jfb/nacl_sdk/pepper_42/toolchain/linux_arm_newlib/bin/../lib/gcc/arm-nacl/4.9.2/../../../../arm-nacl/lib/libcrt_common.a(lib_a-vsprintf.o)
                0x00034380                _vsprintf_r
                0x00034400                vsprintf
 .text          0x00034460      0x240 /home/jfb/nacl_sdk/pepper_42/toolchain/linux_arm_newlib/bin/../lib/gcc/arm-nacl/4.9.2/../../../../arm-nacl/lib/libcrt_common.a(lib_a-wcrtomb.o)
                0x00034460                _wcrtomb_r
                0x00034570                wcrtomb
 .text          0x000346a0       0xd0 /home/jfb/nacl_sdk/pepper_42/toolchain/linux_arm_newlib/bin/../lib/gcc/arm-nacl/4.9.2/../../../../arm-nacl/lib/libcrt_common.a(lib_a-wcsrtombs.o)
                0x000346a0                _wcsrtombs_r
                0x000346f0                wcsrtombs
 .text          0x00034770      0x5b0 /home/jfb/nacl_sdk/pepper_42/toolchain/linux_arm_newlib/bin/../lib/gcc/arm-nacl/4.9.2/../../../../arm-nacl/lib/libcrt_common.a(lib_a-wctomb_r.o)
                0x00034770                __ascii_wctomb
                0x000347b0                _wctomb_r
                0x00034850                __utf8_wctomb
                0x000349c0                __sjis_wctomb
                0x00034a90                __eucjp_wctomb
                0x00034bc0                __jis_wctomb
 .text          0x00034d20      0x280 /home/jfb/nacl_sdk/pepper_42/toolchain/linux_arm_newlib/bin/../lib/gcc/arm-nacl/4.9.2/../../../../arm-nacl/lib/libcrt_common.a(lib_a-wsetup.o)
                0x00034d20                __swsetup_r
 .text          0x00034fa0      0x1f0 /home/jfb/nacl_sdk/pepper_42/toolchain/linux_arm_newlib/bin/../lib/gcc/arm-nacl/4.9.2/../../../../arm-nacl/lib/libcrt_common.a(lib_a-__atexit.o)
                0x00034fa0                __register_exitproc
 .text          0x00035190      0x290 /home/jfb/nacl_sdk/pepper_42/toolchain/linux_arm_newlib/bin/../lib/gcc/arm-nacl/4.9.2/../../../../arm-nacl/lib/libcrt_common.a(lib_a-__call_atexit.o)
                0x00035190                __call_exitprocs
 .text          0x00035420     0x1c60 /home/jfb/nacl_sdk/pepper_42/toolchain/linux_arm_newlib/bin/../lib/gcc/arm-nacl/4.9.2/../../../../arm-nacl/lib/libcrt_common.a(lib_a-dtoa.o)
                0x000356d0                _dtoa_r
 .text          0x00037080       0x20 /home/jfb/nacl_sdk/pepper_42/toolchain/linux_arm_newlib/bin/../lib/gcc/arm-nacl/4.9.2/../../../../arm-nacl/lib/libcrt_common.a(lib_a-envlock.o)
                0x00037080                __env_lock
                0x00037090                __env_unlock
 .text          0x000370a0      0x2a0 /home/jfb/nacl_sdk/pepper_42/toolchain/linux_arm_newlib/bin/../lib/gcc/arm-nacl/4.9.2/../../../../arm-nacl/lib/libcrt_common.a(lib_a-fclose.o)
                0x000370a0                _fclose_r
                0x00037300                fclose
 .text          0x00037340      0x810 /home/jfb/nacl_sdk/pepper_42/toolchain/linux_arm_newlib/bin/../lib/gcc/arm-nacl/4.9.2/../../../../arm-nacl/lib/libcrt_common.a(lib_a-fvwrite.o)
                0x00037340                __sfvwrite_r
 .text          0x00037b50     0x14d0 /home/jfb/nacl_sdk/pepper_42/toolchain/linux_arm_newlib/bin/../lib/gcc/arm-nacl/4.9.2/../../../../arm-nacl/lib/libcrt_common.a(lib_a-locale.o)
                0x00038a20                _setlocale_r
                0x00038f20                __locale_charset
                0x00038f40                __locale_mb_cur_max
                0x00038f60                __locale_msgcharset
                0x00038f80                __locale_cjk_lang
                0x00038fa0                _localeconv_r
                0x00038fc0                setlocale
                0x00039000                localeconv
 .text          0x00039020      0x250 /home/jfb/nacl_sdk/pepper_42/toolchain/linux_arm_newlib/bin/../lib/gcc/arm-nacl/4.9.2/../../../../arm-nacl/lib/libcrt_common.a(lib_a-makebuf.o)
                0x00039020                __smakebuf_r
 .text          0x00039270      0xb60 /home/jfb/nacl_sdk/pepper_42/toolchain/linux_arm_newlib/bin/../lib/gcc/arm-nacl/4.9.2/../../../../arm-nacl/lib/libcrt_common.a(lib_a-mbtowc_r.o)
                0x00039270                __ascii_mbtowc
                0x000392e0                _mbtowc_r
                0x00039390                __utf8_mbtowc
                0x00039800                __sjis_mbtowc
                0x00039970                __eucjp_mbtowc
                0x00039b60                __jis_mbtowc
 .text          0x00039dd0      0x110 /home/jfb/nacl_sdk/pepper_42/toolchain/linux_arm_newlib/bin/../lib/gcc/arm-nacl/4.9.2/../../../../arm-nacl/lib/libcrt_common.a(lib_a-memchr.o)
                0x00039dd0                memchr
 .text          0x00039ee0      0x1c0 /home/jfb/nacl_sdk/pepper_42/toolchain/linux_arm_newlib/bin/../lib/gcc/arm-nacl/4.9.2/../../../../arm-nacl/lib/libcrt_common.a(lib_a-memmove.o)
                0x00039ee0                memmove
 .text          0x0003a0a0     0x1540 /home/jfb/nacl_sdk/pepper_42/toolchain/linux_arm_newlib/bin/../lib/gcc/arm-nacl/4.9.2/../../../../arm-nacl/lib/libcrt_common.a(lib_a-mprec.o)
                0x0003a0a0                _Balloc
                0x0003a1c0                _Bfree
                0x0003a210                __multadd
                0x0003a380                __s2b
                0x0003a4d0                __hi0bits
                0x0003a540                __lo0bits
                0x0003a600                __i2b
                0x0003a650                __multiply
                0x0003a940                __pow5mult
                0x0003ab30                __lshift
                0x0003ace0                __mcmp
                0x0003ad80                __mdiff
                0x0003af90                __ulp
                0x0003b020                __b2d
                0x0003b170                __d2b
                0x0003b350                __ratio
                0x0003b420                _mprec_log10
                0x0003b470                __copybits
                0x0003b520                __any_on
 .text          0x0003b5e0       0x90 /home/jfb/nacl_sdk/pepper_42/toolchain/linux_arm_newlib/bin/../lib/gcc/arm-nacl/4.9.2/../../../../arm-nacl/lib/libcrt_common.a(lib_a-s_fpclassify.o)
                0x0003b5e0                __fpclassifyd
 .text          0x0003b670       0xd0 /home/jfb/nacl_sdk/pepper_42/toolchain/linux_arm_newlib/bin/../lib/gcc/arm-nacl/4.9.2/../../../../arm-nacl/lib/libcrt_common.a(lib_a-s_frexp.o)
                0x0003b670                frexp
 .text          0x0003b740       0x90 /home/jfb/nacl_sdk/pepper_42/toolchain/linux_arm_newlib/bin/../lib/gcc/arm-nacl/4.9.2/../../../../arm-nacl/lib/libcrt_common.a(lib_a-strcasecmp.o)
                0x0003b740                strcasecmp
 .text          0x0003b7d0       0xd0 /home/jfb/nacl_sdk/pepper_42/toolchain/linux_arm_newlib/bin/../lib/gcc/arm-nacl/4.9.2/../../../../arm-nacl/lib/libcrt_common.a(lib_a-strcat.o)
                0x0003b7d0                strcat
 .text          0x0003b8a0      0x230 /home/jfb/nacl_sdk/pepper_42/toolchain/linux_arm_newlib/bin/../lib/gcc/arm-nacl/4.9.2/../../../../arm-nacl/lib/libcrt_common.a(lib_a-strchr.o)
                0x0003b8a0                strchr
 .text          0x0003bad0      0x160 /home/jfb/nacl_sdk/pepper_42/toolchain/linux_arm_newlib/bin/../lib/gcc/arm-nacl/4.9.2/../../../../arm-nacl/lib/libcrt_common.a(lib_a-strcpy.o)
                0x0003bad0                strcpy
 .text          0x0003bc30       0x70 /home/jfb/nacl_sdk/pepper_42/toolchain/linux_arm_newlib/bin/../lib/gcc/arm-nacl/4.9.2/../../../../arm-nacl/lib/libcrt_common.a(lib_a-strlcpy.o)
                0x0003bc30                strlcpy
 .text          0x0003bca0       0xe0 /home/jfb/nacl_sdk/pepper_42/toolchain/linux_arm_newlib/bin/../lib/gcc/arm-nacl/4.9.2/../../../../arm-nacl/lib/libcrt_common.a(lib_a-strncasecmp.o)
                0x0003bca0                strncasecmp
 .text          0x0003bd80      0x140 /home/jfb/nacl_sdk/pepper_42/toolchain/linux_arm_newlib/bin/../lib/gcc/arm-nacl/4.9.2/../../../../arm-nacl/lib/libcrt_common.a(lib_a-strncpy.o)
                0x0003bd80                strncpy
 .text          0x0003bec0      0x350 /home/jfb/nacl_sdk/pepper_42/toolchain/linux_arm_newlib/bin/../lib/gcc/arm-nacl/4.9.2/../../../../arm-nacl/lib/libcrt_common.a(lib_a-strtol.o)
                0x0003bec0                _strtol_r
                0x0003c1b0                strtol
 .text          0x0003c210     0x3730 /home/jfb/nacl_sdk/pepper_42/toolchain/linux_arm_newlib/bin/../lib/gcc/arm-nacl/4.9.2/../../../../arm-nacl/lib/libcrt_common.a(lib_a-svfprintf.o)
                0x0003c210                _svfprintf_r
 .text          0x0003f940     0x23b0 /home/jfb/nacl_sdk/pepper_42/toolchain/linux_arm_newlib/bin/../lib/gcc/arm-nacl/4.9.2/../../../../arm-nacl/lib/libcrt_common.a(lib_a-vfiprintf.o)
                0x0003fa90                __sprint_r
                0x0003fad0                _vfiprintf_r
                0x00041b30                vfiprintf
 .text          0x00041cf0      0x330 /home/jfb/nacl_sdk/pepper_42/toolchain/linux_arm_newlib/bin/../lib/gcc/arm-nacl/4.9.2/../../../../arm-nacl/lib/libcrt_common.a(lib_a-wcsnrtombs.o)
                0x00041cf0                _wcsnrtombs_r
                0x00041f80                wcsnrtombs
 .text          0x00042020       0x20 /home/jfb/nacl_sdk/pepper_42/toolchain/linux_arm_newlib/bin/../lib/gcc/arm-nacl/4.9.2/../../../../arm-nacl/lib/libcrt_common.a(lib_a-ctype_.o)
                0x00042020                __set_ctype
 .text          0x00042040      0x340 /home/jfb/nacl_sdk/pepper_42/toolchain/linux_arm_newlib/bin/../lib/gcc/arm-nacl/4.9.2/../../../../arm-nacl/lib/libcrt_common.a(lib_a-fputwc.o)
                0x00042040                _fputwc_r
                0x000422e0                fputwc
 .text          0x00042380     0x1f40 /home/jfb/nacl_sdk/pepper_42/toolchain/linux_arm_newlib/bin/../lib/gcc/arm-nacl/4.9.2/../../../../arm-nacl/lib/libcrt_common.a(lib_a-svfiprintf.o)
                0x00042380                __ssprint_r
                0x00042680                _svfiprintf_r
 .text          0x000442c0      0x250 /home/jfb/nacl_sdk/pepper_42/toolchain/linux_arm_newlib/bin/../lib/gcc/arm-nacl/4.9.2/../../../../arm-nacl/lib/libcrt_common.a(lib_a-wbuf.o)
                0x000442c0                __swbuf_r
                0x000444d0                __swbuf
 .text          0x00044510       0x80 /home/jfb/nacl_sdk/pepper_42/toolchain/linux_arm_newlib/bin/../lib/gcc/arm-nacl/4.9.2/../../../../arm-nacl/lib/libnacl.a(close_e9b92fbd.o)
                0x00044510                close
 .text          0x00044590       0xd0 /home/jfb/nacl_sdk/pepper_42/toolchain/linux_arm_newlib/bin/../lib/gcc/arm-nacl/4.9.2/../../../../arm-nacl/lib/libnacl.a(isatty_02f56e94.o)
                0x00044590                isatty
 .text          0x00044660       0xc0 /home/jfb/nacl_sdk/pepper_42/toolchain/linux_arm_newlib/bin/../lib/gcc/arm-nacl/4.9.2/../../../../arm-nacl/lib/libnacl.a(nacl_irt_fdio_b571b5e7.o)
                0x00044660                __libnacl_irt_dev_fdio_init
 .text          0x00044720       0x80 /home/jfb/nacl_sdk/pepper_42/toolchain/linux_arm_newlib/bin/../lib/gcc/arm-nacl/4.9.2/../../../../arm-nacl/lib/libnacl.a(fstat_0540ff63.o)
                0x00044720                fstat
 .text          0x000447a0       0xa0 /home/jfb/nacl_sdk/pepper_42/toolchain/linux_arm_newlib/bin/../lib/gcc/arm-nacl/4.9.2/../../../../arm-nacl/lib/libnacl.a(lseek_64d2d05c.o)
                0x000447a0                lseek
 .text          0x00044840       0x90 /home/jfb/nacl_sdk/pepper_42/toolchain/linux_arm_newlib/bin/../lib/gcc/arm-nacl/4.9.2/../../../../arm-nacl/lib/libnacl.a(read_df872e10.o)
                0x00044840                read
 .text          0x000448d0       0x80 /home/jfb/nacl_sdk/pepper_42/toolchain/linux_arm_newlib/bin/../lib/gcc/arm-nacl/4.9.2/../../../../arm-nacl/lib/libnacl.a(nanosleep_e59fdef1.o)
                0x000448d0                nanosleep
 .text          0x00044950      0x2d0 /home/jfb/nacl_sdk/pepper_42/toolchain/linux_arm_newlib/bin/../lib/gcc/arm-nacl/4.9.2/libgcc.a(_udivsi3.o)
                0x00044950                __udivsi3
                0x00044950                __aeabi_uidiv
                0x00044be0                __aeabi_uidivmod
 .text          0x00044c20      0x300 /home/jfb/nacl_sdk/pepper_42/toolchain/linux_arm_newlib/bin/../lib/gcc/arm-nacl/4.9.2/libgcc.a(_divsi3.o)
                0x00044c20                __aeabi_idiv
                0x00044c20                __divsi3
                0x00044ee0                __aeabi_idivmod
 .text          0x00044f20       0x60 /home/jfb/nacl_sdk/pepper_42/toolchain/linux_arm_newlib/bin/../lib/gcc/arm-nacl/4.9.2/libgcc.a(_aeabi_uldivmod.o)
                0x00044f20                __aeabi_uldivmod
 .text          0x00044f80       0x10 /home/jfb/nacl_sdk/pepper_42/toolchain/linux_arm_newlib/bin/../lib/gcc/arm-nacl/4.9.2/libgcc.a(_dvmd_nacl.o)
                0x00044f80                __aeabi_ldiv0
                0x00044f80                __aeabi_idiv0
 .text          0x00044f90      0x100 /home/jfb/nacl_sdk/pepper_42/toolchain/linux_arm_newlib/bin/../lib/gcc/arm-nacl/4.9.2/libgcc.a(bpabi.o)
                0x00044f90                __gnu_ldivmod_helper
                0x00045010                __gnu_uldivmod_helper
 .text          0x00045090      0x210 /home/jfb/nacl_sdk/pepper_42/toolchain/linux_arm_newlib/bin/../lib/gcc/arm-nacl/4.9.2/libgcc.a(_divdi3.o)
                0x00045090                __divdi3
 .text          0x000452a0      0x150 /home/jfb/nacl_sdk/pepper_42/toolchain/linux_arm_newlib/bin/../lib/gcc/arm-nacl/4.9.2/libgcc.a(_udivdi3.o)
                0x000452a0                __udivdi3
 .text          0x000453f0        0x0 /home/jfb/nacl_sdk/pepper_42/toolchain/linux_arm_newlib/bin/../lib/gcc/arm-nacl/4.9.2/crtend.o
 .text          0x000453f0        0x0 /home/jfb/nacl_sdk/pepper_42/toolchain/linux_arm_newlib/bin/../lib/gcc/arm-nacl/4.9.2/../../../../arm-nacl/lib/crtn.o
 *(.gnu.warning)
 *(.glue_7t)
 .glue_7t       0x000453f0        0x0 linker stubs
 *(.glue_7)
 .glue_7        0x000453f0        0x0 linker stubs
 *(.vfp11_veneer)
 .vfp11_veneer  0x000453f0        0x0 linker stubs
 *(.v4_bx)
 .v4_bx         0x000453f0        0x0 linker stubs

.fini           0x000453f0       0x10
 *(SORT(.fini))
 .fini          0x000453f0        0x0 /home/jfb/nacl_sdk/pepper_42/toolchain/linux_arm_newlib/bin/../lib/gcc/arm-nacl/4.9.2/../../../../arm-nacl/lib/crti.o
                0x000453f0                _fini
 .fini          0x000453f0       0x10 /home/jfb/nacl_sdk/pepper_42/toolchain/linux_arm_newlib/bin/../lib/gcc/arm-nacl/4.9.2/../../../../arm-nacl/lib/crtn.o
                0x00045400                PROVIDE (__etext, .)
                0x00045400                PROVIDE (_etext, .)
                0x00045400                PROVIDE (etext, .)
                0x10020134                . = (0x10020000 + SIZEOF_HEADERS)

.interp
 *(.interp)

.note.NaCl.ABI.arm
                0x10020134       0x18
 .note.NaCl.ABI.arm
                0x10020134       0x18 /home/jfb/nacl_sdk/pepper_42/toolchain/linux_arm_newlib/bin/../lib/gcc/arm-nacl/4.9.2/../../../../arm-nacl/lib/crti.o

.note.gnu.build-id
                0x1002014c       0x24
 *(.note.gnu.build-id)
 .note.gnu.build-id
                0x1002014c       0x24 linker stubs

.hash
 *(.hash)

.gnu.hash
 *(.gnu.hash)

.dynsym
 *(.dynsym)

.dynstr
 *(.dynstr)

.gnu.version
 *(.gnu.version)

.gnu.version_d
 *(.gnu.version_d)

.gnu.version_r
 *(.gnu.version_r)

.rel.dyn        0x10020170        0x0
 *(.rel.init)
 *(.rel.text .rel.text.* .rel.gnu.linkonce.t.*)
 *(.rel.fini)
 *(.rel.rodata .rel.rodata.* .rel.gnu.linkonce.r.*)
 *(.rel.data.rel.ro .rel.data.rel.ro.* .rel.gnu.linkonce.d.rel.ro.*)
 *(.rel.data .rel.data.* .rel.gnu.linkonce.d.*)
 *(.rel.tdata .rel.tdata.* .rel.gnu.linkonce.td.*)
 *(.rel.tbss .rel.tbss.* .rel.gnu.linkonce.tb.*)
 *(.rel.ctors)
 *(.rel.dtors)
 *(.rel.got)
 .rel.got       0x10020170        0x0 /home/jfb/nacl_sdk/pepper_42/toolchain/linux_arm_newlib/bin/../lib/gcc/arm-nacl/4.9.2/crtbegin.o
 *(.rel.bss .rel.bss.* .rel.gnu.linkonce.b.*)
                0x10020170                PROVIDE (__rel_iplt_start, .)
 *(.rel.iplt)
 .rel.iplt      0x10020170        0x0 /home/jfb/nacl_sdk/pepper_42/toolchain/linux_arm_newlib/bin/../lib/gcc/arm-nacl/4.9.2/crtbegin.o
                0x10020170                PROVIDE (__rel_iplt_end, .)

.rela.dyn       0x10020170        0x0
 *(.rela.init)
 *(.rela.text .rela.text.* .rela.gnu.linkonce.t.*)
 *(.rela.fini)
 *(.rela.rodata .rela.rodata.* .rela.gnu.linkonce.r.*)
 *(.rela.data .rela.data.* .rela.gnu.linkonce.d.*)
 *(.rela.tdata .rela.tdata.* .rela.gnu.linkonce.td.*)
 *(.rela.tbss .rela.tbss.* .rela.gnu.linkonce.tb.*)
 *(.rela.ctors)
 *(.rela.dtors)
 *(.rela.got)
 *(.rela.bss .rela.bss.* .rela.gnu.linkonce.b.*)
                0x10020170                PROVIDE (__rela_iplt_start, .)
 *(.rela.iplt)
                0x10020170                PROVIDE (__rela_iplt_end, .)

.rel.plt
 *(.rel.plt)

.rela.plt
 *(.rela.plt)

.rodata         0x10020170      0xbcc
 *(.rodata .rodata.* .gnu.linkonce.r.*)
 .rodata.str1.4
                0x10020170       0xee newlib/Release/debugging_arm.o
                                 0xf0 (size before relaxing)
 *fill*         0x1002025e        0x2 
 .rodata.str1.4
                0x10020260      0x1dc /home/jfb/nacl_sdk/pepper_42//lib/newlib_arm/Release/liberror_handling.a(error_handling_arm.o)
 .rodata        0x1002043c        0xc /home/jfb/nacl_sdk/pepper_42/toolchain/linux_arm_newlib/bin/../lib/gcc/arm-nacl/4.9.2/../../../../arm-nacl/lib/libppapi_stub.a(ppapi_plugin_main_399d0cf7.o)
 .rodata.str1.4
                0x10020448       0xb1 /home/jfb/nacl_sdk/pepper_42/toolchain/linux_arm_newlib/bin/../lib/gcc/arm-nacl/4.9.2/../../../../arm-nacl/lib/libppapi_stub.a(ppapi_plugin_start_8da67623.o)
                                 0xb4 (size before relaxing)
 *fill*         0x100204f9        0x3 
 .rodata        0x100204fc        0x8 /home/jfb/nacl_sdk/pepper_42/toolchain/linux_arm_newlib/bin/../lib/gcc/arm-nacl/4.9.2/../../../../arm-nacl/lib/libppapi_stub.a(thread_creator_ccf263e1.o)
 .rodata        0x10020504        0x4 /home/jfb/nacl_sdk/pepper_42/toolchain/linux_arm_newlib/bin/../lib/gcc/arm-nacl/4.9.2/../../../../arm-nacl/lib/libpthread.a(nc_thread_7e478b15.o)
                0x10020504                __nc_kMaxCachedMemoryBlocks
 .rodata.str1.4
                0x10020508        0xc /home/jfb/nacl_sdk/pepper_42/toolchain/linux_arm_newlib/bin/../lib/gcc/arm-nacl/4.9.2/../../../../arm-nacl/lib/libpthread.a(nc_thread_7e478b15.o)
 .rodata.str1.4
                0x10020514       0x14 /home/jfb/nacl_sdk/pepper_42/toolchain/linux_arm_newlib/bin/../lib/gcc/arm-nacl/4.9.2/../../../../arm-nacl/lib/libpthread.a(dynamic_annotations_33ba59cc.o)
                                 0x18 (size before relaxing)
 .rodata.str1.4
                0x10020528       0x27 /home/jfb/nacl_sdk/pepper_42/toolchain/linux_arm_newlib/bin/../lib/gcc/arm-nacl/4.9.2/../../../../arm-nacl/lib/libpthread.a(nc_init_irt_d3daafc0.o)
                                 0x28 (size before relaxing)
 *fill*         0x1002054f        0x1 
 .rodata        0x10020550       0x14 /home/jfb/nacl_sdk/pepper_42/toolchain/linux_arm_newlib/bin/../lib/gcc/arm-nacl/4.9.2/../../../../arm-nacl/lib/libnacl.a(abort_9f6b5845.o)
 .rodata.str1.4
                0x10020564       0x52 /home/jfb/nacl_sdk/pepper_42/toolchain/linux_arm_newlib/bin/../lib/gcc/arm-nacl/4.9.2/../../../../arm-nacl/lib/libnacl.a(malloc_222c4a1e.o)
                                 0x54 (size before relaxing)
 *fill*         0x100205b6        0x2 
 .rodata.str1.4
                0x100205b8       0x58 /home/jfb/nacl_sdk/pepper_42/toolchain/linux_arm_newlib/bin/../lib/gcc/arm-nacl/4.9.2/../../../../arm-nacl/lib/libnacl.a(nacl_irt_6de1d53f.o)
 .rodata.str1.4
                0x10020610       0x8d /home/jfb/nacl_sdk/pepper_42/toolchain/linux_arm_newlib/bin/../lib/gcc/arm-nacl/4.9.2/../../../../arm-nacl/lib/libnacl.a(nacl_irt_init_7b4f826e.o)
                                 0x90 (size before relaxing)
 *fill*         0x1002069d        0x3 
 .rodata        0x100206a0        0x4 /home/jfb/nacl_sdk/pepper_42/toolchain/linux_arm_newlib/bin/../lib/gcc/arm-nacl/4.9.2/../../../../arm-nacl/lib/libcrt_common.a(lib_a-impure.o)
                0x100206a0                _global_impure_ptr
 .rodata.str1.4
                0x100206a4        0x2 /home/jfb/nacl_sdk/pepper_42/toolchain/linux_arm_newlib/bin/../lib/gcc/arm-nacl/4.9.2/../../../../arm-nacl/lib/libcrt_common.a(lib_a-impure.o)
                                  0x4 (size before relaxing)
 *fill*         0x100206a6        0x2 
 .rodata        0x100206a8       0x20 /home/jfb/nacl_sdk/pepper_42/toolchain/linux_arm_newlib/bin/../lib/gcc/arm-nacl/4.9.2/../../../../arm-nacl/lib/libcrt_common.a(lib_a-vfprintf.o)
 .rodata.str1.4
                0x100206c8       0x3f /home/jfb/nacl_sdk/pepper_42/toolchain/linux_arm_newlib/bin/../lib/gcc/arm-nacl/4.9.2/../../../../arm-nacl/lib/libcrt_common.a(lib_a-vfprintf.o)
                                 0x44 (size before relaxing)
 *fill*         0x10020707        0x1 
 .rodata.str1.4
                0x10020708       0x10 /home/jfb/nacl_sdk/pepper_42/toolchain/linux_arm_newlib/bin/../lib/gcc/arm-nacl/4.9.2/../../../../arm-nacl/lib/libcrt_common.a(lib_a-dtoa.o)
                                 0x14 (size before relaxing)
 .rodata        0x10020718       0x1c /home/jfb/nacl_sdk/pepper_42/toolchain/linux_arm_newlib/bin/../lib/gcc/arm-nacl/4.9.2/../../../../arm-nacl/lib/libcrt_common.a(lib_a-locale.o)
 .rodata.str1.4
                0x10020734      0x124 /home/jfb/nacl_sdk/pepper_42/toolchain/linux_arm_newlib/bin/../lib/gcc/arm-nacl/4.9.2/../../../../arm-nacl/lib/libcrt_common.a(lib_a-locale.o)
                                0x130 (size before relaxing)
 .rodata        0x10020858      0x240 /home/jfb/nacl_sdk/pepper_42/toolchain/linux_arm_newlib/bin/../lib/gcc/arm-nacl/4.9.2/../../../../arm-nacl/lib/libcrt_common.a(lib_a-mbtowc_r.o)
 .rodata        0x10020a98      0x128 /home/jfb/nacl_sdk/pepper_42/toolchain/linux_arm_newlib/bin/../lib/gcc/arm-nacl/4.9.2/../../../../arm-nacl/lib/libcrt_common.a(lib_a-mprec.o)
                0x10020aa8                __mprec_tens
                0x10020b70                __mprec_tinytens
                0x10020b98                __mprec_bigtens
 .rodata        0x10020bc0       0x20 /home/jfb/nacl_sdk/pepper_42/toolchain/linux_arm_newlib/bin/../lib/gcc/arm-nacl/4.9.2/../../../../arm-nacl/lib/libcrt_common.a(lib_a-svfprintf.o)
 .rodata.str1.4
                0x10020be0       0x44 /home/jfb/nacl_sdk/pepper_42/toolchain/linux_arm_newlib/bin/../lib/gcc/arm-nacl/4.9.2/../../../../arm-nacl/lib/libcrt_common.a(lib_a-svfprintf.o)
 .rodata        0x10020be0       0x20 /home/jfb/nacl_sdk/pepper_42/toolchain/linux_arm_newlib/bin/../lib/gcc/arm-nacl/4.9.2/../../../../arm-nacl/lib/libcrt_common.a(lib_a-vfiprintf.o)
 .rodata.str1.4
                0x10020c00       0x30 /home/jfb/nacl_sdk/pepper_42/toolchain/linux_arm_newlib/bin/../lib/gcc/arm-nacl/4.9.2/../../../../arm-nacl/lib/libcrt_common.a(lib_a-vfiprintf.o)
 .rodata        0x10020c00      0x104 /home/jfb/nacl_sdk/pepper_42/toolchain/linux_arm_newlib/bin/../lib/gcc/arm-nacl/4.9.2/../../../../arm-nacl/lib/libcrt_common.a(lib_a-ctype_.o)
                0x10020c00                _ctype_
 .rodata        0x10020d04       0x20 /home/jfb/nacl_sdk/pepper_42/toolchain/linux_arm_newlib/bin/../lib/gcc/arm-nacl/4.9.2/../../../../arm-nacl/lib/libcrt_common.a(lib_a-svfiprintf.o)
 .rodata.str1.4
                0x10020d24       0x30 /home/jfb/nacl_sdk/pepper_42/toolchain/linux_arm_newlib/bin/../lib/gcc/arm-nacl/4.9.2/../../../../arm-nacl/lib/libcrt_common.a(lib_a-svfiprintf.o)
 .rodata.str1.4
                0x10020d24       0x18 /home/jfb/nacl_sdk/pepper_42/toolchain/linux_arm_newlib/bin/../lib/gcc/arm-nacl/4.9.2/../../../../arm-nacl/lib/libnacl.a(nacl_irt_fdio_b571b5e7.o)
                                 0x44 (size before relaxing)

.rodata1
 *(.rodata1)

.ARM.extab      0x10020d3c       0x30
 *(.ARM.extab* .gnu.linkonce.armextab.*)
 .ARM.extab.text.startup
                0x10020d3c        0x0 /home/jfb/nacl_sdk/pepper_42/toolchain/linux_arm_newlib/bin/../lib/gcc/arm-nacl/4.9.2/../../../../arm-nacl/lib/libppapi_stub.a(plugin_main_irt_21ce9d26.o)
 .ARM.extab     0x10020d3c        0x0 /home/jfb/nacl_sdk/pepper_42/toolchain/linux_arm_newlib/bin/../lib/gcc/arm-nacl/4.9.2/../../../../arm-nacl/lib/libppapi_stub.a(ppapi_plugin_main_399d0cf7.o)
 .ARM.extab.text.unlikely
                0x10020d3c        0x0 /home/jfb/nacl_sdk/pepper_42/toolchain/linux_arm_newlib/bin/../lib/gcc/arm-nacl/4.9.2/../../../../arm-nacl/lib/libppapi_stub.a(ppapi_plugin_start_8da67623.o)
 .ARM.extab     0x10020d3c        0x0 /home/jfb/nacl_sdk/pepper_42/toolchain/linux_arm_newlib/bin/../lib/gcc/arm-nacl/4.9.2/../../../../arm-nacl/lib/libppapi_stub.a(ppapi_plugin_start_8da67623.o)
 .ARM.extab     0x10020d3c        0x0 /home/jfb/nacl_sdk/pepper_42/toolchain/linux_arm_newlib/bin/../lib/gcc/arm-nacl/4.9.2/../../../../arm-nacl/lib/libppapi_stub.a(thread_creator_ccf263e1.o)
 .ARM.extab     0x10020d3c        0x0 /home/jfb/nacl_sdk/pepper_42/toolchain/linux_arm_newlib/bin/../lib/gcc/arm-nacl/4.9.2/../../../../arm-nacl/lib/libpthread.a(nc_thread_7e478b15.o)
 .ARM.extab     0x10020d3c        0x0 /home/jfb/nacl_sdk/pepper_42/toolchain/linux_arm_newlib/bin/../lib/gcc/arm-nacl/4.9.2/../../../../arm-nacl/lib/libpthread.a(nc_condvar_305aa45a.o)
 .ARM.extab     0x10020d3c        0x0 /home/jfb/nacl_sdk/pepper_42/toolchain/linux_arm_newlib/bin/../lib/gcc/arm-nacl/4.9.2/../../../../arm-nacl/lib/libpthread.a(dynamic_annotations_33ba59cc.o)
 .ARM.extab     0x10020d3c        0x0 /home/jfb/nacl_sdk/pepper_42/toolchain/linux_arm_newlib/bin/../lib/gcc/arm-nacl/4.9.2/../../../../arm-nacl/lib/libpthread.a(nc_mutex_86341ae1.o)
 .ARM.extab     0x10020d3c        0x0 /home/jfb/nacl_sdk/pepper_42/toolchain/linux_arm_newlib/bin/../lib/gcc/arm-nacl/4.9.2/../../../../arm-nacl/lib/libpthread.a(nc_init_irt_d3daafc0.o)
 .ARM.extab     0x10020d3c       0x30 /home/jfb/nacl_sdk/pepper_42/toolchain/linux_arm_newlib/bin/../lib/gcc/arm-nacl/4.9.2/libgcc.a(unwind-arm.o)
 .ARM.extab     0x10020d6c        0x0 /home/jfb/nacl_sdk/pepper_42/toolchain/linux_arm_newlib/bin/../lib/gcc/arm-nacl/4.9.2/libgcc.a(pr-support.o)
 .ARM.extab     0x10020d6c        0x0 /home/jfb/nacl_sdk/pepper_42/toolchain/linux_arm_newlib/bin/../lib/gcc/arm-nacl/4.9.2/../../../../arm-nacl/lib/libnacl.a(_exit_710c7d0d.o)
 .ARM.extab     0x10020d6c        0x0 /home/jfb/nacl_sdk/pepper_42/toolchain/linux_arm_newlib/bin/../lib/gcc/arm-nacl/4.9.2/../../../../arm-nacl/lib/libnacl.a(abort_9f6b5845.o)
 .ARM.extab     0x10020d6c        0x0 /home/jfb/nacl_sdk/pepper_42/toolchain/linux_arm_newlib/bin/../lib/gcc/arm-nacl/4.9.2/../../../../arm-nacl/lib/libnacl.a(start_fa9ef7de.o)
 .ARM.extab     0x10020d6c        0x0 /home/jfb/nacl_sdk/pepper_42/toolchain/linux_arm_newlib/bin/../lib/gcc/arm-nacl/4.9.2/../../../../arm-nacl/lib/libnacl.a(malloc_222c4a1e.o)
 .ARM.extab     0x10020d6c        0x0 /home/jfb/nacl_sdk/pepper_42/toolchain/linux_arm_newlib/bin/../lib/gcc/arm-nacl/4.9.2/../../../../arm-nacl/lib/libnacl.a(nacl_irt_6de1d53f.o)
 .ARM.extab     0x10020d6c        0x0 /home/jfb/nacl_sdk/pepper_42/toolchain/linux_arm_newlib/bin/../lib/gcc/arm-nacl/4.9.2/../../../../arm-nacl/lib/libnacl.a(pthread_initialize_minimal_4b6e776b.o)
 .ARM.extab     0x10020d6c        0x0 /home/jfb/nacl_sdk/pepper_42/toolchain/linux_arm_newlib/bin/../lib/gcc/arm-nacl/4.9.2/../../../../arm-nacl/lib/libnacl.a(nacl_read_tp_5748ac47.o)
 .ARM.extab     0x10020d6c        0x0 /home/jfb/nacl_sdk/pepper_42/toolchain/linux_arm_newlib/bin/../lib/gcc/arm-nacl/4.9.2/../../../../arm-nacl/lib/libnacl.a(nacl_interface_query_ef8a99f1.o)
 .ARM.extab     0x10020d6c        0x0 /home/jfb/nacl_sdk/pepper_42/toolchain/linux_arm_newlib/bin/../lib/gcc/arm-nacl/4.9.2/../../../../arm-nacl/lib/libnacl.a(mmap_767fb080.o)
 .ARM.extab     0x10020d6c        0x0 /home/jfb/nacl_sdk/pepper_42/toolchain/linux_arm_newlib/bin/../lib/gcc/arm-nacl/4.9.2/../../../../arm-nacl/lib/libnacl.a(sched_yield_56c375be.o)
 .ARM.extab     0x10020d6c        0x0 /home/jfb/nacl_sdk/pepper_42/toolchain/linux_arm_newlib/bin/../lib/gcc/arm-nacl/4.9.2/../../../../arm-nacl/lib/libnacl.a(munmap_d4f09867.o)
 .ARM.extab     0x10020d6c        0x0 /home/jfb/nacl_sdk/pepper_42/toolchain/linux_arm_newlib/bin/../lib/gcc/arm-nacl/4.9.2/../../../../arm-nacl/lib/libnacl.a(tls_bba1975b.o)
 .ARM.extab     0x10020d6c        0x0 /home/jfb/nacl_sdk/pepper_42/toolchain/linux_arm_newlib/bin/../lib/gcc/arm-nacl/4.9.2/../../../../arm-nacl/lib/libnacl.a(write_fb49787f.o)
 .ARM.extab     0x10020d6c        0x0 /home/jfb/nacl_sdk/pepper_42/toolchain/linux_arm_newlib/bin/../lib/gcc/arm-nacl/4.9.2/../../../../arm-nacl/lib/libnacl.a(nacl_tls_get_d2f842b5.o)
 .ARM.extab     0x10020d6c        0x0 /home/jfb/nacl_sdk/pepper_42/toolchain/linux_arm_newlib/bin/../lib/gcc/arm-nacl/4.9.2/../../../../arm-nacl/lib/libnacl.a(nacl_irt_init_7b4f826e.o)
 .ARM.extab     0x10020d6c        0x0 /home/jfb/nacl_sdk/pepper_42/toolchain/linux_arm_newlib/bin/../lib/gcc/arm-nacl/4.9.2/../../../../arm-nacl/lib/libnacl.a(sysconf_ad295ea2.o)
 .ARM.extab     0x10020d6c        0x0 /home/jfb/nacl_sdk/pepper_42/toolchain/linux_arm_newlib/bin/../lib/gcc/arm-nacl/4.9.2/../../../../arm-nacl/lib/libnacl.a(nacl_tls_init_eb0cd232.o)
 .ARM.extab     0x10020d6c        0x0 /home/jfb/nacl_sdk/pepper_42/toolchain/linux_arm_newlib/bin/../lib/gcc/arm-nacl/4.9.2/../../../../arm-nacl/lib/libnacl.a(close_e9b92fbd.o)
 .ARM.extab     0x10020d6c        0x0 /home/jfb/nacl_sdk/pepper_42/toolchain/linux_arm_newlib/bin/../lib/gcc/arm-nacl/4.9.2/../../../../arm-nacl/lib/libnacl.a(isatty_02f56e94.o)
 .ARM.extab     0x10020d6c        0x0 /home/jfb/nacl_sdk/pepper_42/toolchain/linux_arm_newlib/bin/../lib/gcc/arm-nacl/4.9.2/../../../../arm-nacl/lib/libnacl.a(nacl_irt_fdio_b571b5e7.o)
 .ARM.extab     0x10020d6c        0x0 /home/jfb/nacl_sdk/pepper_42/toolchain/linux_arm_newlib/bin/../lib/gcc/arm-nacl/4.9.2/../../../../arm-nacl/lib/libnacl.a(fstat_0540ff63.o)
 .ARM.extab     0x10020d6c        0x0 /home/jfb/nacl_sdk/pepper_42/toolchain/linux_arm_newlib/bin/../lib/gcc/arm-nacl/4.9.2/../../../../arm-nacl/lib/libnacl.a(lseek_64d2d05c.o)
 .ARM.extab     0x10020d6c        0x0 /home/jfb/nacl_sdk/pepper_42/toolchain/linux_arm_newlib/bin/../lib/gcc/arm-nacl/4.9.2/../../../../arm-nacl/lib/libnacl.a(read_df872e10.o)
 .ARM.extab     0x10020d6c        0x0 /home/jfb/nacl_sdk/pepper_42/toolchain/linux_arm_newlib/bin/../lib/gcc/arm-nacl/4.9.2/../../../../arm-nacl/lib/libnacl.a(nanosleep_e59fdef1.o)
 .ARM.extab     0x10020d6c        0x0 /home/jfb/nacl_sdk/pepper_42/toolchain/linux_arm_newlib/bin/../lib/gcc/arm-nacl/4.9.2/libgcc.a(_divdi3.o)
 .ARM.extab     0x10020d6c        0x0 /home/jfb/nacl_sdk/pepper_42/toolchain/linux_arm_newlib/bin/../lib/gcc/arm-nacl/4.9.2/libgcc.a(_udivdi3.o)
                0x10020d6c                PROVIDE (__exidx_start, .)

.ARM.exidx      0x10020d6c      0x330
 *(.ARM.exidx* .gnu.linkonce.armexidx.*)
 .ARM.exidx.text.startup
                0x10020d74       0x10 /home/jfb/nacl_sdk/pepper_42/toolchain/linux_arm_newlib/bin/../lib/gcc/arm-nacl/4.9.2/../../../../arm-nacl/lib/libppapi_stub.a(plugin_main_irt_21ce9d26.o)
                                  0x8 (size before relaxing)
 .ARM.exidx     0x10020d84        0x8 /home/jfb/nacl_sdk/pepper_42/toolchain/linux_arm_newlib/bin/../lib/gcc/arm-nacl/4.9.2/../../../../arm-nacl/lib/libppapi_stub.a(ppapi_plugin_main_399d0cf7.o)
 .ARM.exidx.text.unlikely
                0x10020d6c        0x8 /home/jfb/nacl_sdk/pepper_42/toolchain/linux_arm_newlib/bin/../lib/gcc/arm-nacl/4.9.2/../../../../arm-nacl/lib/libppapi_stub.a(ppapi_plugin_start_8da67623.o)
 .ARM.exidx     0x10020d8c        0x8 /home/jfb/nacl_sdk/pepper_42/toolchain/linux_arm_newlib/bin/../lib/gcc/arm-nacl/4.9.2/../../../../arm-nacl/lib/libppapi_stub.a(ppapi_plugin_start_8da67623.o)
 .ARM.exidx     0x10020d94        0x8 /home/jfb/nacl_sdk/pepper_42/toolchain/linux_arm_newlib/bin/../lib/gcc/arm-nacl/4.9.2/../../../../arm-nacl/lib/libppapi_stub.a(thread_creator_ccf263e1.o)
                                 0x18 (size before relaxing)
 .ARM.exidx     0x10020d9c       0x88 /home/jfb/nacl_sdk/pepper_42/toolchain/linux_arm_newlib/bin/../lib/gcc/arm-nacl/4.9.2/../../../../arm-nacl/lib/libpthread.a(nc_thread_7e478b15.o)
                                0x128 (size before relaxing)
 .ARM.exidx     0x10020e24       0x20 /home/jfb/nacl_sdk/pepper_42/toolchain/linux_arm_newlib/bin/../lib/gcc/arm-nacl/4.9.2/../../../../arm-nacl/lib/libpthread.a(nc_condvar_305aa45a.o)
                                 0x30 (size before relaxing)
 .ARM.exidx     0x10020e44        0x8 /home/jfb/nacl_sdk/pepper_42/toolchain/linux_arm_newlib/bin/../lib/gcc/arm-nacl/4.9.2/../../../../arm-nacl/lib/libpthread.a(dynamic_annotations_33ba59cc.o)
                                0x130 (size before relaxing)
 .ARM.exidx     0x10020e4c       0x28 /home/jfb/nacl_sdk/pepper_42/toolchain/linux_arm_newlib/bin/../lib/gcc/arm-nacl/4.9.2/../../../../arm-nacl/lib/libpthread.a(nc_mutex_86341ae1.o)
                                 0x68 (size before relaxing)
 .ARM.exidx     0x10020e74        0x8 /home/jfb/nacl_sdk/pepper_42/toolchain/linux_arm_newlib/bin/../lib/gcc/arm-nacl/4.9.2/../../../../arm-nacl/lib/libpthread.a(nc_init_irt_d3daafc0.o)
 .ARM.exidx     0x10020e7c       0x80 /home/jfb/nacl_sdk/pepper_42/toolchain/linux_arm_newlib/bin/../lib/gcc/arm-nacl/4.9.2/libgcc.a(unwind-arm.o)
                                 0xd8 (size before relaxing)
 .ARM.exidx     0x10020efc       0x30 /home/jfb/nacl_sdk/pepper_42/toolchain/linux_arm_newlib/bin/../lib/gcc/arm-nacl/4.9.2/libgcc.a(pr-support.o)
                                 0x48 (size before relaxing)
 .ARM.exidx     0x10020f2c        0x8 /home/jfb/nacl_sdk/pepper_42/toolchain/linux_arm_newlib/bin/../lib/gcc/arm-nacl/4.9.2/../../../../arm-nacl/lib/libnacl.a(_exit_710c7d0d.o)
 .ARM.exidx     0x10020f34        0x0 /home/jfb/nacl_sdk/pepper_42/toolchain/linux_arm_newlib/bin/../lib/gcc/arm-nacl/4.9.2/../../../../arm-nacl/lib/libnacl.a(abort_9f6b5845.o)
                                  0x8 (size before relaxing)
 .ARM.exidx     0x10020f34        0x8 /home/jfb/nacl_sdk/pepper_42/toolchain/linux_arm_newlib/bin/../lib/gcc/arm-nacl/4.9.2/../../../../arm-nacl/lib/libnacl.a(start_fa9ef7de.o)
 .ARM.exidx     0x10020f3c       0xb0 /home/jfb/nacl_sdk/pepper_42/toolchain/linux_arm_newlib/bin/../lib/gcc/arm-nacl/4.9.2/../../../../arm-nacl/lib/libnacl.a(malloc_222c4a1e.o)
                                0x108 (size before relaxing)
 .ARM.exidx     0x10020fec       0x10 /home/jfb/nacl_sdk/pepper_42/toolchain/linux_arm_newlib/bin/../lib/gcc/arm-nacl/4.9.2/../../../../arm-nacl/lib/libnacl.a(nacl_irt_6de1d53f.o)
                                 0x60 (size before relaxing)
 .ARM.exidx     0x10020ffc        0x8 /home/jfb/nacl_sdk/pepper_42/toolchain/linux_arm_newlib/bin/../lib/gcc/arm-nacl/4.9.2/../../../../arm-nacl/lib/libnacl.a(pthread_initialize_minimal_4b6e776b.o)
 .ARM.exidx     0x10021004        0x8 /home/jfb/nacl_sdk/pepper_42/toolchain/linux_arm_newlib/bin/../lib/gcc/arm-nacl/4.9.2/../../../../arm-nacl/lib/libnacl.a(nacl_read_tp_5748ac47.o)
 .ARM.exidx     0x1002100c        0x0 /home/jfb/nacl_sdk/pepper_42/toolchain/linux_arm_newlib/bin/../lib/gcc/arm-nacl/4.9.2/../../../../arm-nacl/lib/libnacl.a(nacl_interface_query_ef8a99f1.o)
                                  0x8 (size before relaxing)
 .ARM.exidx     0x1002100c        0x8 /home/jfb/nacl_sdk/pepper_42/toolchain/linux_arm_newlib/bin/../lib/gcc/arm-nacl/4.9.2/../../../../arm-nacl/lib/libnacl.a(mmap_767fb080.o)
 .ARM.exidx     0x10021014        0x8 /home/jfb/nacl_sdk/pepper_42/toolchain/linux_arm_newlib/bin/../lib/gcc/arm-nacl/4.9.2/../../../../arm-nacl/lib/libnacl.a(sched_yield_56c375be.o)
 .ARM.exidx     0x1002101c        0x0 /home/jfb/nacl_sdk/pepper_42/toolchain/linux_arm_newlib/bin/../lib/gcc/arm-nacl/4.9.2/../../../../arm-nacl/lib/libnacl.a(munmap_d4f09867.o)
                                  0x8 (size before relaxing)
 .ARM.exidx     0x1002101c       0x20 /home/jfb/nacl_sdk/pepper_42/toolchain/linux_arm_newlib/bin/../lib/gcc/arm-nacl/4.9.2/../../../../arm-nacl/lib/libnacl.a(tls_bba1975b.o)
 .ARM.exidx     0x1002103c        0x8 /home/jfb/nacl_sdk/pepper_42/toolchain/linux_arm_newlib/bin/../lib/gcc/arm-nacl/4.9.2/../../../../arm-nacl/lib/libnacl.a(write_fb49787f.o)
 .ARM.exidx     0x10021044        0x8 /home/jfb/nacl_sdk/pepper_42/toolchain/linux_arm_newlib/bin/../lib/gcc/arm-nacl/4.9.2/../../../../arm-nacl/lib/libnacl.a(nacl_tls_get_d2f842b5.o)
 .ARM.exidx     0x1002104c        0x8 /home/jfb/nacl_sdk/pepper_42/toolchain/linux_arm_newlib/bin/../lib/gcc/arm-nacl/4.9.2/../../../../arm-nacl/lib/libnacl.a(nacl_irt_init_7b4f826e.o)
                                 0x10 (size before relaxing)
 .ARM.exidx     0x10021054        0x0 /home/jfb/nacl_sdk/pepper_42/toolchain/linux_arm_newlib/bin/../lib/gcc/arm-nacl/4.9.2/../../../../arm-nacl/lib/libnacl.a(sysconf_ad295ea2.o)
                                  0x8 (size before relaxing)
 .ARM.exidx     0x10021054       0x10 /home/jfb/nacl_sdk/pepper_42/toolchain/linux_arm_newlib/bin/../lib/gcc/arm-nacl/4.9.2/../../../../arm-nacl/lib/libnacl.a(nacl_tls_init_eb0cd232.o)
                                  0x8 (size before relaxing)
 .ARM.exidx     0x10021064        0x8 /home/jfb/nacl_sdk/pepper_42/toolchain/linux_arm_newlib/bin/../lib/gcc/arm-nacl/4.9.2/../../../../arm-nacl/lib/libnacl.a(close_e9b92fbd.o)
 .ARM.exidx     0x1002106c        0x8 /home/jfb/nacl_sdk/pepper_42/toolchain/linux_arm_newlib/bin/../lib/gcc/arm-nacl/4.9.2/../../../../arm-nacl/lib/libnacl.a(isatty_02f56e94.o)
 .ARM.exidx     0x10021074        0x8 /home/jfb/nacl_sdk/pepper_42/toolchain/linux_arm_newlib/bin/../lib/gcc/arm-nacl/4.9.2/../../../../arm-nacl/lib/libnacl.a(nacl_irt_fdio_b571b5e7.o)
 .ARM.exidx     0x1002107c        0x0 /home/jfb/nacl_sdk/pepper_42/toolchain/linux_arm_newlib/bin/../lib/gcc/arm-nacl/4.9.2/../../../../arm-nacl/lib/libnacl.a(fstat_0540ff63.o)
                                  0x8 (size before relaxing)
 .ARM.exidx     0x1002107c        0x8 /home/jfb/nacl_sdk/pepper_42/toolchain/linux_arm_newlib/bin/../lib/gcc/arm-nacl/4.9.2/../../../../arm-nacl/lib/libnacl.a(lseek_64d2d05c.o)
 .ARM.exidx     0x10021084        0x8 /home/jfb/nacl_sdk/pepper_42/toolchain/linux_arm_newlib/bin/../lib/gcc/arm-nacl/4.9.2/../../../../arm-nacl/lib/libnacl.a(read_df872e10.o)
 .ARM.exidx     0x1002108c       0x10 /home/jfb/nacl_sdk/pepper_42/toolchain/linux_arm_newlib/bin/../lib/gcc/arm-nacl/4.9.2/../../../../arm-nacl/lib/libnacl.a(nanosleep_e59fdef1.o)
                                  0x8 (size before relaxing)
 .ARM.exidx     0x1002109c        0x0 /home/jfb/nacl_sdk/pepper_42/toolchain/linux_arm_newlib/bin/../lib/gcc/arm-nacl/4.9.2/libgcc.a(_divdi3.o)
                                  0x8 (size before relaxing)
 .ARM.exidx     0x1002109c        0x0 /home/jfb/nacl_sdk/pepper_42/toolchain/linux_arm_newlib/bin/../lib/gcc/arm-nacl/4.9.2/libgcc.a(_udivdi3.o)
                                  0x8 (size before relaxing)
                0x1002109c                PROVIDE (__exidx_end, .)

.eh_frame_hdr   0x1002109c       0x14
 *(.eh_frame_hdr)
 .eh_frame_hdr  0x1002109c       0x14 /home/jfb/nacl_sdk/pepper_42/toolchain/linux_arm_newlib/bin/../lib/gcc/arm-nacl/4.9.2/../../../../arm-nacl/lib/libcrt_common.a(lib_a-strcmp.o)

.eh_frame       0x100210b0       0x74
 *(.eh_frame)
 .eh_frame      0x100210b0        0x0 /home/jfb/nacl_sdk/pepper_42/toolchain/linux_arm_newlib/bin/../lib/gcc/arm-nacl/4.9.2/crtbegin.o
 .eh_frame      0x100210b0       0x70 /home/jfb/nacl_sdk/pepper_42/toolchain/linux_arm_newlib/bin/../lib/gcc/arm-nacl/4.9.2/../../../../arm-nacl/lib/libcrt_common.a(lib_a-strcmp.o)
 .eh_frame      0x10021120        0x4 /home/jfb/nacl_sdk/pepper_42/toolchain/linux_arm_newlib/bin/../lib/gcc/arm-nacl/4.9.2/crtend.o

.gcc_except_table
 *(.gcc_except_table .gcc_except_table.*)

.exception_ranges
 *(.exception_ranges .exception_ranges*)
                0x10021124                . = (ALIGN (0x10000) - ((0x10000 - .) & 0xffff))
                0x10031124                . = DATA_SEGMENT_ALIGN (0x10000, 0x10000)

.eh_frame
 *(.eh_frame)

.gcc_except_table
 *(.gcc_except_table .gcc_except_table.*)

.exception_ranges
 *(.exception_ranges .exception_ranges*)

.tdata          0x10031128      0x478
 *(.tdata .tdata.* .gnu.linkonce.td.*)
 .tdata         0x10031128      0x478 /home/jfb/nacl_sdk/pepper_42/toolchain/linux_arm_newlib/bin/../lib/gcc/arm-nacl/4.9.2/../../../../arm-nacl/lib/libcrt_common.a(lib_a-impure.o)
                0x10031128                _impure_ptr

.tbss           0x100315a0        0x8
 *(.tbss .tbss.* .gnu.linkonce.tb.*)
 .tbss          0x100315a0        0x8 /home/jfb/nacl_sdk/pepper_42/toolchain/linux_arm_newlib/bin/../lib/gcc/arm-nacl/4.9.2/../../../../arm-nacl/lib/libpthread.a(nc_thread_7e478b15.o)
 *(.tcommon)

.preinit_array  0x100315a0        0x0
                0x100315a0                PROVIDE (__preinit_array_start, .)
 *(.preinit_array)
                0x100315a0                PROVIDE (__preinit_array_end, .)

.init_array     0x100315a0        0x4
                0x100315a0                PROVIDE (__init_array_start, .)
 *(SORT(.init_array.*) SORT(.ctors.*))
 *(.init_array EXCLUDE_FILE(*crtend?.o *crtend.o *crtbegin?.o *crtbegin.o) .ctors)
 .init_array    0x100315a0        0x4 /home/jfb/nacl_sdk/pepper_42/toolchain/linux_arm_newlib/bin/../lib/gcc/arm-nacl/4.9.2/crtbegin.o
                0x100315a4                PROVIDE (__init_array_end, .)

.fini_array     0x100315a4        0x4
                0x100315a4                PROVIDE (__fini_array_start, .)
 *(SORT(.fini_array.*) SORT(.dtors.*))
 *(.fini_array EXCLUDE_FILE(*crtend?.o *crtend.o *crtbegin?.o *crtbegin.o) .dtors)
 .fini_array    0x100315a4        0x4 /home/jfb/nacl_sdk/pepper_42/toolchain/linux_arm_newlib/bin/../lib/gcc/arm-nacl/4.9.2/crtbegin.o
                0x100315a8                PROVIDE (__fini_array_end, .)

.ctors
 *crtbegin.o(.ctors)
 *crtbegin?.o(.ctors)
 *(EXCLUDE_FILE(*crtend?.o *crtend.o) .ctors)
 *(SORT(.ctors.*))
 *(.ctors)

.dtors
 *crtbegin.o(.dtors)
 *crtbegin?.o(.dtors)
 *(EXCLUDE_FILE(*crtend?.o *crtend.o) .dtors)
 *(SORT(.dtors.*))
 *(.dtors)

.jcr            0x100315a8        0x4
 *(.jcr)
 .jcr           0x100315a8        0x0 /home/jfb/nacl_sdk/pepper_42/toolchain/linux_arm_newlib/bin/../lib/gcc/arm-nacl/4.9.2/crtbegin.o
 .jcr           0x100315a8        0x4 /home/jfb/nacl_sdk/pepper_42/toolchain/linux_arm_newlib/bin/../lib/gcc/arm-nacl/4.9.2/crtend.o

.data.rel.ro
 *(.data.rel.ro.local* .gnu.linkonce.d.rel.ro.local.*)
 *(.data.rel.ro .data.rel.ro.* .gnu.linkonce.d.rel.ro.*)

.dynamic
 *(.dynamic)
                0x100315ac                . = DATA_SEGMENT_RELRO_END (., 0x0)

.got            0x100315ac       0x20
 *(.got.plt)
 .got.plt       0x100315ac        0xc /home/jfb/nacl_sdk/pepper_42/toolchain/linux_arm_newlib/bin/../lib/gcc/arm-nacl/4.9.2/crtbegin.o
                0x100315ac                _GLOBAL_OFFSET_TABLE_
 *(.igot.plt)
 .igot.plt      0x100315b8        0x0 /home/jfb/nacl_sdk/pepper_42/toolchain/linux_arm_newlib/bin/../lib/gcc/arm-nacl/4.9.2/crtbegin.o
 *(.got)
 .got           0x100315b8       0x14 /home/jfb/nacl_sdk/pepper_42/toolchain/linux_arm_newlib/bin/../lib/gcc/arm-nacl/4.9.2/crtbegin.o
 *(.igot)

.data           0x100315d0      0x690
                0x100315d0                PROVIDE (__data_start, .)
 *(.data .data.* .gnu.linkonce.d.*)
 .data          0x100315d0        0x0 /home/jfb/nacl_sdk/pepper_42/toolchain/linux_arm_newlib/bin/../lib/gcc/arm-nacl/4.9.2/../../../../arm-nacl/lib/crti.o
 .data          0x100315d0        0x4 /home/jfb/nacl_sdk/pepper_42/toolchain/linux_arm_newlib/bin/../lib/gcc/arm-nacl/4.9.2/crtbegin.o
                0x100315d0                __dso_handle
 .data          0x100315d4       0x18 newlib/Release/debugging_arm.o
 .data          0x100315ec        0x0 /home/jfb/nacl_sdk/pepper_42//lib/newlib_arm/Release/liberror_handling.a(error_handling_arm.o)
 .data          0x100315ec        0x0 /home/jfb/nacl_sdk/pepper_42//lib/newlib_arm/Release/liberror_handling.a(string_stream_arm.o)
 .data          0x100315ec        0x0 /home/jfb/nacl_sdk/pepper_42/toolchain/linux_arm_newlib/bin/../lib/gcc/arm-nacl/4.9.2/../../../../arm-nacl/lib/libppapi_stub.a(plugin_main_irt_21ce9d26.o)
 .data          0x100315ec        0x0 /home/jfb/nacl_sdk/pepper_42/toolchain/linux_arm_newlib/bin/../lib/gcc/arm-nacl/4.9.2/../../../../arm-nacl/lib/libppapi_stub.a(ppapi_plugin_main_399d0cf7.o)
 .data          0x100315ec        0x0 /home/jfb/nacl_sdk/pepper_42/toolchain/linux_arm_newlib/bin/../lib/gcc/arm-nacl/4.9.2/../../../../arm-nacl/lib/libppapi_stub.a(ppapi_plugin_start_8da67623.o)
 .data          0x100315ec        0x0 /home/jfb/nacl_sdk/pepper_42/toolchain/linux_arm_newlib/bin/../lib/gcc/arm-nacl/4.9.2/../../../../arm-nacl/lib/libppapi_stub.a(thread_creator_ccf263e1.o)
 .data          0x100315ec        0x4 /home/jfb/nacl_sdk/pepper_42/toolchain/linux_arm_newlib/bin/../lib/gcc/arm-nacl/4.9.2/../../../../arm-nacl/lib/libpthread.a(nc_thread_7e478b15.o)
                0x100315ec                __nc_running_threads_counter
 .data          0x100315f0        0x0 /home/jfb/nacl_sdk/pepper_42/toolchain/linux_arm_newlib/bin/../lib/gcc/arm-nacl/4.9.2/../../../../arm-nacl/lib/libpthread.a(nc_condvar_305aa45a.o)
 .data          0x100315f0        0x4 /home/jfb/nacl_sdk/pepper_42/toolchain/linux_arm_newlib/bin/../lib/gcc/arm-nacl/4.9.2/../../../../arm-nacl/lib/libpthread.a(dynamic_annotations_33ba59cc.o)
 .data          0x100315f4        0x0 /home/jfb/nacl_sdk/pepper_42/toolchain/linux_arm_newlib/bin/../lib/gcc/arm-nacl/4.9.2/../../../../arm-nacl/lib/libpthread.a(nc_mutex_86341ae1.o)
 .data          0x100315f4        0x0 /home/jfb/nacl_sdk/pepper_42/toolchain/linux_arm_newlib/bin/../lib/gcc/arm-nacl/4.9.2/../../../../arm-nacl/lib/libpthread.a(nc_init_irt_d3daafc0.o)
 .data          0x100315f4        0x0 /home/jfb/nacl_sdk/pepper_42/toolchain/linux_arm_newlib/bin/../lib/gcc/arm-nacl/4.9.2/libgcc.a(unwind-arm.o)
 .data          0x100315f4        0x0 /home/jfb/nacl_sdk/pepper_42/toolchain/linux_arm_newlib/bin/../lib/gcc/arm-nacl/4.9.2/libgcc.a(libunwind.o)
 .data          0x100315f4        0x0 /home/jfb/nacl_sdk/pepper_42/toolchain/linux_arm_newlib/bin/../lib/gcc/arm-nacl/4.9.2/libgcc.a(pr-support.o)
 .data          0x100315f4        0x0 /home/jfb/nacl_sdk/pepper_42/toolchain/linux_arm_newlib/bin/../lib/gcc/arm-nacl/4.9.2/../../../../arm-nacl/lib/libnacl.a(_exit_710c7d0d.o)
 .data          0x100315f4        0x0 /home/jfb/nacl_sdk/pepper_42/toolchain/linux_arm_newlib/bin/../lib/gcc/arm-nacl/4.9.2/../../../../arm-nacl/lib/libnacl.a(abort_9f6b5845.o)
 .data          0x100315f4        0x4 /home/jfb/nacl_sdk/pepper_42/toolchain/linux_arm_newlib/bin/../lib/gcc/arm-nacl/4.9.2/../../../../arm-nacl/lib/libnacl.a(environ_25cd24d8.o)
                0x100315f4                environ
 .data          0x100315f8        0x0 /home/jfb/nacl_sdk/pepper_42/toolchain/linux_arm_newlib/bin/../lib/gcc/arm-nacl/4.9.2/../../../../arm-nacl/lib/libnacl.a(start_fa9ef7de.o)
 .data          0x100315f8        0x0 /home/jfb/nacl_sdk/pepper_42/toolchain/linux_arm_newlib/bin/../lib/gcc/arm-nacl/4.9.2/../../../../arm-nacl/lib/libnacl.a(malloc_222c4a1e.o)
 .data          0x100315f8       0x20 /home/jfb/nacl_sdk/pepper_42/toolchain/linux_arm_newlib/bin/../lib/gcc/arm-nacl/4.9.2/../../../../arm-nacl/lib/libnacl.a(nacl_irt_6de1d53f.o)
                0x100315f8                __libnacl_irt_fdio
 .data          0x10031618        0x0 /home/jfb/nacl_sdk/pepper_42/toolchain/linux_arm_newlib/bin/../lib/gcc/arm-nacl/4.9.2/../../../../arm-nacl/lib/libnacl.a(pthread_initialize_minimal_4b6e776b.o)
 .data          0x10031618        0x0 /home/jfb/nacl_sdk/pepper_42/toolchain/linux_arm_newlib/bin/../lib/gcc/arm-nacl/4.9.2/../../../../arm-nacl/lib/libnacl.a(nacl_read_tp_5748ac47.o)
 .data          0x10031618        0x0 /home/jfb/nacl_sdk/pepper_42/toolchain/linux_arm_newlib/bin/../lib/gcc/arm-nacl/4.9.2/../../../../arm-nacl/lib/libnacl.a(nacl_interface_query_ef8a99f1.o)
 .data          0x10031618        0x0 /home/jfb/nacl_sdk/pepper_42/toolchain/linux_arm_newlib/bin/../lib/gcc/arm-nacl/4.9.2/../../../../arm-nacl/lib/libnacl.a(mmap_767fb080.o)
 .data          0x10031618        0x0 /home/jfb/nacl_sdk/pepper_42/toolchain/linux_arm_newlib/bin/../lib/gcc/arm-nacl/4.9.2/../../../../arm-nacl/lib/libnacl.a(sched_yield_56c375be.o)
 .data          0x10031618        0x0 /home/jfb/nacl_sdk/pepper_42/toolchain/linux_arm_newlib/bin/../lib/gcc/arm-nacl/4.9.2/../../../../arm-nacl/lib/libnacl.a(munmap_d4f09867.o)
 .data          0x10031618        0x0 /home/jfb/nacl_sdk/pepper_42/toolchain/linux_arm_newlib/bin/../lib/gcc/arm-nacl/4.9.2/../../../../arm-nacl/lib/libnacl.a(tls_bba1975b.o)
 .data          0x10031618        0x0 /home/jfb/nacl_sdk/pepper_42/toolchain/linux_arm_newlib/bin/../lib/gcc/arm-nacl/4.9.2/../../../../arm-nacl/lib/libnacl.a(write_fb49787f.o)
 .data          0x10031618        0x0 /home/jfb/nacl_sdk/pepper_42/toolchain/linux_arm_newlib/bin/../lib/gcc/arm-nacl/4.9.2/../../../../arm-nacl/lib/libnacl.a(nacl_tls_get_d2f842b5.o)
 .data          0x10031618        0x0 /home/jfb/nacl_sdk/pepper_42/toolchain/linux_arm_newlib/bin/../lib/gcc/arm-nacl/4.9.2/../../../../arm-nacl/lib/libnacl.a(nacl_irt_init_7b4f826e.o)
 .data          0x10031618        0x0 /home/jfb/nacl_sdk/pepper_42/toolchain/linux_arm_newlib/bin/../lib/gcc/arm-nacl/4.9.2/../../../../arm-nacl/lib/libnacl.a(sysconf_ad295ea2.o)
 .data          0x10031618        0x0 /home/jfb/nacl_sdk/pepper_42/toolchain/linux_arm_newlib/bin/../lib/gcc/arm-nacl/4.9.2/../../../../arm-nacl/lib/libnacl.a(nacl_tls_init_eb0cd232.o)
 .data          0x10031618        0x0 /home/jfb/nacl_sdk/pepper_42/toolchain/linux_arm_newlib/bin/../lib/gcc/arm-nacl/4.9.2/../../../../arm-nacl/lib/libcrt_common.a(lib_a-atexit.o)
 .data          0x10031618        0x0 /home/jfb/nacl_sdk/pepper_42/toolchain/linux_arm_newlib/bin/../lib/gcc/arm-nacl/4.9.2/../../../../arm-nacl/lib/libcrt_common.a(lib_a-errno.o)
 .data          0x10031618        0x0 /home/jfb/nacl_sdk/pepper_42/toolchain/linux_arm_newlib/bin/../lib/gcc/arm-nacl/4.9.2/../../../../arm-nacl/lib/libcrt_common.a(lib_a-exit.o)
 .data          0x10031618        0x0 /home/jfb/nacl_sdk/pepper_42/toolchain/linux_arm_newlib/bin/../lib/gcc/arm-nacl/4.9.2/../../../../arm-nacl/lib/libcrt_common.a(lib_a-fflush.o)
 .data          0x10031618       0x28 /home/jfb/nacl_sdk/pepper_42/toolchain/linux_arm_newlib/bin/../lib/gcc/arm-nacl/4.9.2/../../../../arm-nacl/lib/libcrt_common.a(lib_a-findfp.o)
 .data          0x10031640        0x0 /home/jfb/nacl_sdk/pepper_42/toolchain/linux_arm_newlib/bin/../lib/gcc/arm-nacl/4.9.2/../../../../arm-nacl/lib/libcrt_common.a(lib_a-fini.o)
 .data          0x10031640        0x0 /home/jfb/nacl_sdk/pepper_42/toolchain/linux_arm_newlib/bin/../lib/gcc/arm-nacl/4.9.2/../../../../arm-nacl/lib/libcrt_common.a(lib_a-fprintf.o)
 .data          0x10031640        0x0 /home/jfb/nacl_sdk/pepper_42/toolchain/linux_arm_newlib/bin/../lib/gcc/arm-nacl/4.9.2/../../../../arm-nacl/lib/libcrt_common.a(lib_a-fwalk.o)
 .data          0x10031640        0x0 /home/jfb/nacl_sdk/pepper_42/toolchain/linux_arm_newlib/bin/../lib/gcc/arm-nacl/4.9.2/../../../../arm-nacl/lib/libcrt_common.a(lib_a-fwrite.o)
 .data          0x10031640        0x0 /home/jfb/nacl_sdk/pepper_42/toolchain/linux_arm_newlib/bin/../lib/gcc/arm-nacl/4.9.2/../../../../arm-nacl/lib/libcrt_common.a(lib_a-getenv.o)
 .data          0x10031640        0x0 /home/jfb/nacl_sdk/pepper_42/toolchain/linux_arm_newlib/bin/../lib/gcc/arm-nacl/4.9.2/../../../../arm-nacl/lib/libcrt_common.a(lib_a-getenv_r.o)
 .data          0x10031640      0x470 /home/jfb/nacl_sdk/pepper_42/toolchain/linux_arm_newlib/bin/../lib/gcc/arm-nacl/4.9.2/../../../../arm-nacl/lib/libcrt_common.a(lib_a-impure.o)
 .data          0x10031ab0        0x0 /home/jfb/nacl_sdk/pepper_42/toolchain/linux_arm_newlib/bin/../lib/gcc/arm-nacl/4.9.2/../../../../arm-nacl/lib/libcrt_common.a(lib_a-init.o)
 .data          0x10031ab0        0x0 /home/jfb/nacl_sdk/pepper_42/toolchain/linux_arm_newlib/bin/../lib/gcc/arm-nacl/4.9.2/../../../../arm-nacl/lib/libcrt_common.a(lib_a-memcpy.o)
 .data          0x10031ab0        0x0 /home/jfb/nacl_sdk/pepper_42/toolchain/linux_arm_newlib/bin/../lib/gcc/arm-nacl/4.9.2/../../../../arm-nacl/lib/libcrt_common.a(lib_a-memset.o)
 .data          0x10031ab0        0x0 /home/jfb/nacl_sdk/pepper_42/toolchain/linux_arm_newlib/bin/../lib/gcc/arm-nacl/4.9.2/../../../../arm-nacl/lib/libcrt_common.a(lib_a-sleep.o)
 .data          0x10031ab0        0x0 /home/jfb/nacl_sdk/pepper_42/toolchain/linux_arm_newlib/bin/../lib/gcc/arm-nacl/4.9.2/../../../../arm-nacl/lib/libcrt_common.a(lib_a-stdio.o)
 .data          0x10031ab0        0x0 /home/jfb/nacl_sdk/pepper_42/toolchain/linux_arm_newlib/bin/../lib/gcc/arm-nacl/4.9.2/../../../../arm-nacl/lib/libcrt_common.a(lib_a-strcmp.o)
 .data          0x10031ab0        0x0 /home/jfb/nacl_sdk/pepper_42/toolchain/linux_arm_newlib/bin/../lib/gcc/arm-nacl/4.9.2/../../../../arm-nacl/lib/libcrt_common.a(lib_a-strlen-armv7.o)
 .data          0x10031ab0        0x0 /home/jfb/nacl_sdk/pepper_42/toolchain/linux_arm_newlib/bin/../lib/gcc/arm-nacl/4.9.2/../../../../arm-nacl/lib/libcrt_common.a(lib_a-strncmp.o)
 .data          0x10031ab0        0x0 /home/jfb/nacl_sdk/pepper_42/toolchain/linux_arm_newlib/bin/../lib/gcc/arm-nacl/4.9.2/../../../../arm-nacl/lib/libcrt_common.a(lib_a-vfprintf.o)
 .data          0x10031ab0        0x0 /home/jfb/nacl_sdk/pepper_42/toolchain/linux_arm_newlib/bin/../lib/gcc/arm-nacl/4.9.2/../../../../arm-nacl/lib/libcrt_common.a(lib_a-vsnprintf.o)
 .data          0x10031ab0        0x0 /home/jfb/nacl_sdk/pepper_42/toolchain/linux_arm_newlib/bin/../lib/gcc/arm-nacl/4.9.2/../../../../arm-nacl/lib/libcrt_common.a(lib_a-vsprintf.o)
 .data          0x10031ab0        0x0 /home/jfb/nacl_sdk/pepper_42/toolchain/linux_arm_newlib/bin/../lib/gcc/arm-nacl/4.9.2/../../../../arm-nacl/lib/libcrt_common.a(lib_a-wcrtomb.o)
 .data          0x10031ab0        0x0 /home/jfb/nacl_sdk/pepper_42/toolchain/linux_arm_newlib/bin/../lib/gcc/arm-nacl/4.9.2/../../../../arm-nacl/lib/libcrt_common.a(lib_a-wcsrtombs.o)
 .data          0x10031ab0        0x4 /home/jfb/nacl_sdk/pepper_42/toolchain/linux_arm_newlib/bin/../lib/gcc/arm-nacl/4.9.2/../../../../arm-nacl/lib/libcrt_common.a(lib_a-wctomb_r.o)
                0x10031ab0                __wctomb
 .data          0x10031ab4        0x0 /home/jfb/nacl_sdk/pepper_42/toolchain/linux_arm_newlib/bin/../lib/gcc/arm-nacl/4.9.2/../../../../arm-nacl/lib/libcrt_common.a(lib_a-wsetup.o)
 .data          0x10031ab4        0x0 /home/jfb/nacl_sdk/pepper_42/toolchain/linux_arm_newlib/bin/../lib/gcc/arm-nacl/4.9.2/../../../../arm-nacl/lib/libcrt_common.a(lib_a-__atexit.o)
 .data          0x10031ab4       0x14 /home/jfb/nacl_sdk/pepper_42/toolchain/linux_arm_newlib/bin/../lib/gcc/arm-nacl/4.9.2/../../../../arm-nacl/lib/libcrt_common.a(lib_a-__call_atexit.o)
                0x10031ab4                __atexit_lock
 .data          0x10031ac8        0x0 /home/jfb/nacl_sdk/pepper_42/toolchain/linux_arm_newlib/bin/../lib/gcc/arm-nacl/4.9.2/../../../../arm-nacl/lib/libcrt_common.a(lib_a-dtoa.o)
 .data          0x10031ac8       0x14 /home/jfb/nacl_sdk/pepper_42/toolchain/linux_arm_newlib/bin/../lib/gcc/arm-nacl/4.9.2/../../../../arm-nacl/lib/libcrt_common.a(lib_a-envlock.o)
 .data          0x10031adc        0x0 /home/jfb/nacl_sdk/pepper_42/toolchain/linux_arm_newlib/bin/../lib/gcc/arm-nacl/4.9.2/../../../../arm-nacl/lib/libcrt_common.a(lib_a-fclose.o)
 .data          0x10031adc        0x0 /home/jfb/nacl_sdk/pepper_42/toolchain/linux_arm_newlib/bin/../lib/gcc/arm-nacl/4.9.2/../../../../arm-nacl/lib/libcrt_common.a(lib_a-fvwrite.o)
 .data          0x10031adc      0x17c /home/jfb/nacl_sdk/pepper_42/toolchain/linux_arm_newlib/bin/../lib/gcc/arm-nacl/4.9.2/../../../../arm-nacl/lib/libcrt_common.a(lib_a-locale.o)
                0x10031adc                __default_locale
                0x10031bfc                __mb_cur_max
 .data          0x10031c58        0x0 /home/jfb/nacl_sdk/pepper_42/toolchain/linux_arm_newlib/bin/../lib/gcc/arm-nacl/4.9.2/../../../../arm-nacl/lib/libcrt_common.a(lib_a-makebuf.o)
 .data          0x10031c58        0x4 /home/jfb/nacl_sdk/pepper_42/toolchain/linux_arm_newlib/bin/../lib/gcc/arm-nacl/4.9.2/../../../../arm-nacl/lib/libcrt_common.a(lib_a-mbtowc_r.o)
                0x10031c58                __mbtowc
 .data          0x10031c5c        0x0 /home/jfb/nacl_sdk/pepper_42/toolchain/linux_arm_newlib/bin/../lib/gcc/arm-nacl/4.9.2/../../../../arm-nacl/lib/libcrt_common.a(lib_a-memchr.o)
 .data          0x10031c5c        0x0 /home/jfb/nacl_sdk/pepper_42/toolchain/linux_arm_newlib/bin/../lib/gcc/arm-nacl/4.9.2/../../../../arm-nacl/lib/libcrt_common.a(lib_a-memmove.o)
 .data          0x10031c5c        0x0 /home/jfb/nacl_sdk/pepper_42/toolchain/linux_arm_newlib/bin/../lib/gcc/arm-nacl/4.9.2/../../../../arm-nacl/lib/libcrt_common.a(lib_a-mprec.o)
 .data          0x10031c5c        0x0 /home/jfb/nacl_sdk/pepper_42/toolchain/linux_arm_newlib/bin/../lib/gcc/arm-nacl/4.9.2/../../../../arm-nacl/lib/libcrt_common.a(lib_a-s_fpclassify.o)
 .data          0x10031c5c        0x0 /home/jfb/nacl_sdk/pepper_42/toolchain/linux_arm_newlib/bin/../lib/gcc/arm-nacl/4.9.2/../../../../arm-nacl/lib/libcrt_common.a(lib_a-s_frexp.o)
 .data          0x10031c5c        0x0 /home/jfb/nacl_sdk/pepper_42/toolchain/linux_arm_newlib/bin/../lib/gcc/arm-nacl/4.9.2/../../../../arm-nacl/lib/libcrt_common.a(lib_a-strcasecmp.o)
 .data          0x10031c5c        0x0 /home/jfb/nacl_sdk/pepper_42/toolchain/linux_arm_newlib/bin/../lib/gcc/arm-nacl/4.9.2/../../../../arm-nacl/lib/libcrt_common.a(lib_a-strcat.o)
 .data          0x10031c5c        0x0 /home/jfb/nacl_sdk/pepper_42/toolchain/linux_arm_newlib/bin/../lib/gcc/arm-nacl/4.9.2/../../../../arm-nacl/lib/libcrt_common.a(lib_a-strchr.o)
 .data          0x10031c5c        0x0 /home/jfb/nacl_sdk/pepper_42/toolchain/linux_arm_newlib/bin/../lib/gcc/arm-nacl/4.9.2/../../../../arm-nacl/lib/libcrt_common.a(lib_a-strcpy.o)
 .data          0x10031c5c        0x0 /home/jfb/nacl_sdk/pepper_42/toolchain/linux_arm_newlib/bin/../lib/gcc/arm-nacl/4.9.2/../../../../arm-nacl/lib/libcrt_common.a(lib_a-strlcpy.o)
 .data          0x10031c5c        0x0 /home/jfb/nacl_sdk/pepper_42/toolchain/linux_arm_newlib/bin/../lib/gcc/arm-nacl/4.9.2/../../../../arm-nacl/lib/libcrt_common.a(lib_a-strncasecmp.o)
 .data          0x10031c5c        0x0 /home/jfb/nacl_sdk/pepper_42/toolchain/linux_arm_newlib/bin/../lib/gcc/arm-nacl/4.9.2/../../../../arm-nacl/lib/libcrt_common.a(lib_a-strncpy.o)
 .data          0x10031c5c        0x0 /home/jfb/nacl_sdk/pepper_42/toolchain/linux_arm_newlib/bin/../lib/gcc/arm-nacl/4.9.2/../../../../arm-nacl/lib/libcrt_common.a(lib_a-strtol.o)
 .data          0x10031c5c        0x0 /home/jfb/nacl_sdk/pepper_42/toolchain/linux_arm_newlib/bin/../lib/gcc/arm-nacl/4.9.2/../../../../arm-nacl/lib/libcrt_common.a(lib_a-svfprintf.o)
 .data          0x10031c5c        0x0 /home/jfb/nacl_sdk/pepper_42/toolchain/linux_arm_newlib/bin/../lib/gcc/arm-nacl/4.9.2/../../../../arm-nacl/lib/libcrt_common.a(lib_a-vfiprintf.o)
 .data          0x10031c5c        0x0 /home/jfb/nacl_sdk/pepper_42/toolchain/linux_arm_newlib/bin/../lib/gcc/arm-nacl/4.9.2/../../../../arm-nacl/lib/libcrt_common.a(lib_a-wcsnrtombs.o)
 .data          0x10031c5c        0x4 /home/jfb/nacl_sdk/pepper_42/toolchain/linux_arm_newlib/bin/../lib/gcc/arm-nacl/4.9.2/../../../../arm-nacl/lib/libcrt_common.a(lib_a-ctype_.o)
                0x10031c5c                __ctype_ptr__
 .data          0x10031c60        0x0 /home/jfb/nacl_sdk/pepper_42/toolchain/linux_arm_newlib/bin/../lib/gcc/arm-nacl/4.9.2/../../../../arm-nacl/lib/libcrt_common.a(lib_a-fputwc.o)
 .data          0x10031c60        0x0 /home/jfb/nacl_sdk/pepper_42/toolchain/linux_arm_newlib/bin/../lib/gcc/arm-nacl/4.9.2/../../../../arm-nacl/lib/libcrt_common.a(lib_a-svfiprintf.o)
 .data          0x10031c60        0x0 /home/jfb/nacl_sdk/pepper_42/toolchain/linux_arm_newlib/bin/../lib/gcc/arm-nacl/4.9.2/../../../../arm-nacl/lib/libcrt_common.a(lib_a-wbuf.o)
 .data          0x10031c60        0x0 /home/jfb/nacl_sdk/pepper_42/toolchain/linux_arm_newlib/bin/../lib/gcc/arm-nacl/4.9.2/../../../../arm-nacl/lib/libnacl.a(close_e9b92fbd.o)
 .data          0x10031c60        0x0 /home/jfb/nacl_sdk/pepper_42/toolchain/linux_arm_newlib/bin/../lib/gcc/arm-nacl/4.9.2/../../../../arm-nacl/lib/libnacl.a(isatty_02f56e94.o)
 .data          0x10031c60        0x0 /home/jfb/nacl_sdk/pepper_42/toolchain/linux_arm_newlib/bin/../lib/gcc/arm-nacl/4.9.2/../../../../arm-nacl/lib/libnacl.a(nacl_irt_fdio_b571b5e7.o)
 .data          0x10031c60        0x0 /home/jfb/nacl_sdk/pepper_42/toolchain/linux_arm_newlib/bin/../lib/gcc/arm-nacl/4.9.2/../../../../arm-nacl/lib/libnacl.a(fstat_0540ff63.o)
 .data          0x10031c60        0x0 /home/jfb/nacl_sdk/pepper_42/toolchain/linux_arm_newlib/bin/../lib/gcc/arm-nacl/4.9.2/../../../../arm-nacl/lib/libnacl.a(lseek_64d2d05c.o)
 .data          0x10031c60        0x0 /home/jfb/nacl_sdk/pepper_42/toolchain/linux_arm_newlib/bin/../lib/gcc/arm-nacl/4.9.2/../../../../arm-nacl/lib/libnacl.a(read_df872e10.o)
 .data          0x10031c60        0x0 /home/jfb/nacl_sdk/pepper_42/toolchain/linux_arm_newlib/bin/../lib/gcc/arm-nacl/4.9.2/../../../../arm-nacl/lib/libnacl.a(nanosleep_e59fdef1.o)
 .data          0x10031c60        0x0 /home/jfb/nacl_sdk/pepper_42/toolchain/linux_arm_newlib/bin/../lib/gcc/arm-nacl/4.9.2/libgcc.a(_udivsi3.o)
 .data          0x10031c60        0x0 /home/jfb/nacl_sdk/pepper_42/toolchain/linux_arm_newlib/bin/../lib/gcc/arm-nacl/4.9.2/libgcc.a(_divsi3.o)
 .data          0x10031c60        0x0 /home/jfb/nacl_sdk/pepper_42/toolchain/linux_arm_newlib/bin/../lib/gcc/arm-nacl/4.9.2/libgcc.a(_aeabi_uldivmod.o)
 .data          0x10031c60        0x0 /home/jfb/nacl_sdk/pepper_42/toolchain/linux_arm_newlib/bin/../lib/gcc/arm-nacl/4.9.2/libgcc.a(_dvmd_nacl.o)
 .data          0x10031c60        0x0 /home/jfb/nacl_sdk/pepper_42/toolchain/linux_arm_newlib/bin/../lib/gcc/arm-nacl/4.9.2/libgcc.a(bpabi.o)
 .data          0x10031c60        0x0 /home/jfb/nacl_sdk/pepper_42/toolchain/linux_arm_newlib/bin/../lib/gcc/arm-nacl/4.9.2/libgcc.a(_divdi3.o)
 .data          0x10031c60        0x0 /home/jfb/nacl_sdk/pepper_42/toolchain/linux_arm_newlib/bin/../lib/gcc/arm-nacl/4.9.2/libgcc.a(_udivdi3.o)
 .data          0x10031c60        0x0 /home/jfb/nacl_sdk/pepper_42/toolchain/linux_arm_newlib/bin/../lib/gcc/arm-nacl/4.9.2/crtend.o
 .data          0x10031c60        0x0 /home/jfb/nacl_sdk/pepper_42/toolchain/linux_arm_newlib/bin/../lib/gcc/arm-nacl/4.9.2/../../../../arm-nacl/lib/crtn.o

.tm_clone_table
                0x10031c60        0x0
 .tm_clone_table
                0x10031c60        0x0 /home/jfb/nacl_sdk/pepper_42/toolchain/linux_arm_newlib/bin/../lib/gcc/arm-nacl/4.9.2/crtbegin.o
 .tm_clone_table
                0x10031c60        0x0 /home/jfb/nacl_sdk/pepper_42/toolchain/linux_arm_newlib/bin/../lib/gcc/arm-nacl/4.9.2/crtend.o

.data1
 *(.data1)
                0x10031c60                _edata = .
                0x10031c60                PROVIDE (edata, .)
                0x10031c60                . = .
                0x10031c60                __bss_start = .
                0x10031c60                __bss_start__ = .

.bss            0x10031c60     0x1620
 *(.dynbss)
 *(.bss .bss.* .gnu.linkonce.b.*)
 .bss           0x10031c60        0x0 /home/jfb/nacl_sdk/pepper_42/toolchain/linux_arm_newlib/bin/../lib/gcc/arm-nacl/4.9.2/../../../../arm-nacl/lib/crti.o
 .bss           0x10031c60       0x1c /home/jfb/nacl_sdk/pepper_42/toolchain/linux_arm_newlib/bin/../lib/gcc/arm-nacl/4.9.2/crtbegin.o
 .bss           0x10031c7c       0x10 newlib/Release/debugging_arm.o
                0x10031c7c                g_CrashTime
                0x10031c80                ppb_messaging_interface
                0x10031c84                ppb_var_interface
                0x10031c88                ppb_core_interface
 .bss           0x10031c8c       0x18 /home/jfb/nacl_sdk/pepper_42//lib/newlib_arm/Release/liberror_handling.a(error_handling_arm.o)
 .bss           0x10031ca4        0x0 /home/jfb/nacl_sdk/pepper_42//lib/newlib_arm/Release/liberror_handling.a(string_stream_arm.o)
 .bss           0x10031ca4        0x0 /home/jfb/nacl_sdk/pepper_42/toolchain/linux_arm_newlib/bin/../lib/gcc/arm-nacl/4.9.2/../../../../arm-nacl/lib/libppapi_stub.a(plugin_main_irt_21ce9d26.o)
 .bss           0x10031ca4        0x0 /home/jfb/nacl_sdk/pepper_42/toolchain/linux_arm_newlib/bin/../lib/gcc/arm-nacl/4.9.2/../../../../arm-nacl/lib/libppapi_stub.a(ppapi_plugin_main_399d0cf7.o)
 .bss           0x10031ca4        0x0 /home/jfb/nacl_sdk/pepper_42/toolchain/linux_arm_newlib/bin/../lib/gcc/arm-nacl/4.9.2/../../../../arm-nacl/lib/libppapi_stub.a(ppapi_plugin_start_8da67623.o)
 .bss           0x10031ca4        0x0 /home/jfb/nacl_sdk/pepper_42/toolchain/linux_arm_newlib/bin/../lib/gcc/arm-nacl/4.9.2/../../../../arm-nacl/lib/libppapi_stub.a(thread_creator_ccf263e1.o)
 .bss           0x10031ca4     0x1008 /home/jfb/nacl_sdk/pepper_42/toolchain/linux_arm_newlib/bin/../lib/gcc/arm-nacl/4.9.2/../../../../arm-nacl/lib/libpthread.a(nc_thread_7e478b15.o)
 .bss           0x10032cac        0x0 /home/jfb/nacl_sdk/pepper_42/toolchain/linux_arm_newlib/bin/../lib/gcc/arm-nacl/4.9.2/../../../../arm-nacl/lib/libpthread.a(nc_condvar_305aa45a.o)
 .bss           0x10032cac        0x0 /home/jfb/nacl_sdk/pepper_42/toolchain/linux_arm_newlib/bin/../lib/gcc/arm-nacl/4.9.2/../../../../arm-nacl/lib/libpthread.a(dynamic_annotations_33ba59cc.o)
 .bss           0x10032cac        0x0 /home/jfb/nacl_sdk/pepper_42/toolchain/linux_arm_newlib/bin/../lib/gcc/arm-nacl/4.9.2/../../../../arm-nacl/lib/libpthread.a(nc_mutex_86341ae1.o)
 .bss           0x10032cac        0x0 /home/jfb/nacl_sdk/pepper_42/toolchain/linux_arm_newlib/bin/../lib/gcc/arm-nacl/4.9.2/../../../../arm-nacl/lib/libpthread.a(nc_init_irt_d3daafc0.o)
 .bss           0x10032cac        0x0 /home/jfb/nacl_sdk/pepper_42/toolchain/linux_arm_newlib/bin/../lib/gcc/arm-nacl/4.9.2/libgcc.a(unwind-arm.o)
 .bss           0x10032cac        0x0 /home/jfb/nacl_sdk/pepper_42/toolchain/linux_arm_newlib/bin/../lib/gcc/arm-nacl/4.9.2/libgcc.a(libunwind.o)
 .bss           0x10032cac        0x0 /home/jfb/nacl_sdk/pepper_42/toolchain/linux_arm_newlib/bin/../lib/gcc/arm-nacl/4.9.2/libgcc.a(pr-support.o)
 .bss           0x10032cac        0x0 /home/jfb/nacl_sdk/pepper_42/toolchain/linux_arm_newlib/bin/../lib/gcc/arm-nacl/4.9.2/../../../../arm-nacl/lib/libnacl.a(_exit_710c7d0d.o)
 .bss           0x10032cac        0x0 /home/jfb/nacl_sdk/pepper_42/toolchain/linux_arm_newlib/bin/../lib/gcc/arm-nacl/4.9.2/../../../../arm-nacl/lib/libnacl.a(abort_9f6b5845.o)
 .bss           0x10032cac        0x4 /home/jfb/nacl_sdk/pepper_42/toolchain/linux_arm_newlib/bin/../lib/gcc/arm-nacl/4.9.2/../../../../arm-nacl/lib/libnacl.a(environ_25cd24d8.o)
 .bss           0x10032cb0        0x0 /home/jfb/nacl_sdk/pepper_42/toolchain/linux_arm_newlib/bin/../lib/gcc/arm-nacl/4.9.2/../../../../arm-nacl/lib/libnacl.a(start_fa9ef7de.o)
 .bss           0x10032cb0      0x1f8 /home/jfb/nacl_sdk/pepper_42/toolchain/linux_arm_newlib/bin/../lib/gcc/arm-nacl/4.9.2/../../../../arm-nacl/lib/libnacl.a(malloc_222c4a1e.o)
 .bss           0x10032ea8        0x0 /home/jfb/nacl_sdk/pepper_42/toolchain/linux_arm_newlib/bin/../lib/gcc/arm-nacl/4.9.2/../../../../arm-nacl/lib/libnacl.a(nacl_irt_6de1d53f.o)
 .bss           0x10032ea8        0x0 /home/jfb/nacl_sdk/pepper_42/toolchain/linux_arm_newlib/bin/../lib/gcc/arm-nacl/4.9.2/../../../../arm-nacl/lib/libnacl.a(pthread_initialize_minimal_4b6e776b.o)
 .bss           0x10032ea8        0x0 /home/jfb/nacl_sdk/pepper_42/toolchain/linux_arm_newlib/bin/../lib/gcc/arm-nacl/4.9.2/../../../../arm-nacl/lib/libnacl.a(nacl_read_tp_5748ac47.o)
 .bss           0x10032ea8        0x0 /home/jfb/nacl_sdk/pepper_42/toolchain/linux_arm_newlib/bin/../lib/gcc/arm-nacl/4.9.2/../../../../arm-nacl/lib/libnacl.a(nacl_interface_query_ef8a99f1.o)
 .bss           0x10032ea8        0x0 /home/jfb/nacl_sdk/pepper_42/toolchain/linux_arm_newlib/bin/../lib/gcc/arm-nacl/4.9.2/../../../../arm-nacl/lib/libnacl.a(mmap_767fb080.o)
 .bss           0x10032ea8        0x0 /home/jfb/nacl_sdk/pepper_42/toolchain/linux_arm_newlib/bin/../lib/gcc/arm-nacl/4.9.2/../../../../arm-nacl/lib/libnacl.a(sched_yield_56c375be.o)
 .bss           0x10032ea8        0x0 /home/jfb/nacl_sdk/pepper_42/toolchain/linux_arm_newlib/bin/../lib/gcc/arm-nacl/4.9.2/../../../../arm-nacl/lib/libnacl.a(munmap_d4f09867.o)
 .bss           0x10032ea8       0x14 /home/jfb/nacl_sdk/pepper_42/toolchain/linux_arm_newlib/bin/../lib/gcc/arm-nacl/4.9.2/../../../../arm-nacl/lib/libnacl.a(tls_bba1975b.o)
 .bss           0x10032ebc        0x0 /home/jfb/nacl_sdk/pepper_42/toolchain/linux_arm_newlib/bin/../lib/gcc/arm-nacl/4.9.2/../../../../arm-nacl/lib/libnacl.a(write_fb49787f.o)
 .bss           0x10032ebc        0x0 /home/jfb/nacl_sdk/pepper_42/toolchain/linux_arm_newlib/bin/../lib/gcc/arm-nacl/4.9.2/../../../../arm-nacl/lib/libnacl.a(nacl_tls_get_d2f842b5.o)
 .bss           0x10032ebc        0x0 /home/jfb/nacl_sdk/pepper_42/toolchain/linux_arm_newlib/bin/../lib/gcc/arm-nacl/4.9.2/../../../../arm-nacl/lib/libnacl.a(nacl_irt_init_7b4f826e.o)
 .bss           0x10032ebc        0x0 /home/jfb/nacl_sdk/pepper_42/toolchain/linux_arm_newlib/bin/../lib/gcc/arm-nacl/4.9.2/../../../../arm-nacl/lib/libnacl.a(sysconf_ad295ea2.o)
 .bss           0x10032ebc        0x0 /home/jfb/nacl_sdk/pepper_42/toolchain/linux_arm_newlib/bin/../lib/gcc/arm-nacl/4.9.2/../../../../arm-nacl/lib/libnacl.a(nacl_tls_init_eb0cd232.o)
 .bss           0x10032ebc        0x0 /home/jfb/nacl_sdk/pepper_42/toolchain/linux_arm_newlib/bin/../lib/gcc/arm-nacl/4.9.2/../../../../arm-nacl/lib/libcrt_common.a(lib_a-atexit.o)
 .bss           0x10032ebc        0x0 /home/jfb/nacl_sdk/pepper_42/toolchain/linux_arm_newlib/bin/../lib/gcc/arm-nacl/4.9.2/../../../../arm-nacl/lib/libcrt_common.a(lib_a-errno.o)
 .bss           0x10032ebc        0x0 /home/jfb/nacl_sdk/pepper_42/toolchain/linux_arm_newlib/bin/../lib/gcc/arm-nacl/4.9.2/../../../../arm-nacl/lib/libcrt_common.a(lib_a-exit.o)
 .bss           0x10032ebc        0x0 /home/jfb/nacl_sdk/pepper_42/toolchain/linux_arm_newlib/bin/../lib/gcc/arm-nacl/4.9.2/../../../../arm-nacl/lib/libcrt_common.a(lib_a-fflush.o)
 .bss           0x10032ebc        0x0 /home/jfb/nacl_sdk/pepper_42/toolchain/linux_arm_newlib/bin/../lib/gcc/arm-nacl/4.9.2/../../../../arm-nacl/lib/libcrt_common.a(lib_a-findfp.o)
 .bss           0x10032ebc        0x0 /home/jfb/nacl_sdk/pepper_42/toolchain/linux_arm_newlib/bin/../lib/gcc/arm-nacl/4.9.2/../../../../arm-nacl/lib/libcrt_common.a(lib_a-fini.o)
 .bss           0x10032ebc        0x0 /home/jfb/nacl_sdk/pepper_42/toolchain/linux_arm_newlib/bin/../lib/gcc/arm-nacl/4.9.2/../../../../arm-nacl/lib/libcrt_common.a(lib_a-fprintf.o)
 .bss           0x10032ebc        0x0 /home/jfb/nacl_sdk/pepper_42/toolchain/linux_arm_newlib/bin/../lib/gcc/arm-nacl/4.9.2/../../../../arm-nacl/lib/libcrt_common.a(lib_a-fwalk.o)
 .bss           0x10032ebc        0x0 /home/jfb/nacl_sdk/pepper_42/toolchain/linux_arm_newlib/bin/../lib/gcc/arm-nacl/4.9.2/../../../../arm-nacl/lib/libcrt_common.a(lib_a-fwrite.o)
 .bss           0x10032ebc        0x0 /home/jfb/nacl_sdk/pepper_42/toolchain/linux_arm_newlib/bin/../lib/gcc/arm-nacl/4.9.2/../../../../arm-nacl/lib/libcrt_common.a(lib_a-getenv.o)
 .bss           0x10032ebc        0x0 /home/jfb/nacl_sdk/pepper_42/toolchain/linux_arm_newlib/bin/../lib/gcc/arm-nacl/4.9.2/../../../../arm-nacl/lib/libcrt_common.a(lib_a-getenv_r.o)
 .bss           0x10032ebc        0x0 /home/jfb/nacl_sdk/pepper_42/toolchain/linux_arm_newlib/bin/../lib/gcc/arm-nacl/4.9.2/../../../../arm-nacl/lib/libcrt_common.a(lib_a-impure.o)
 .bss           0x10032ebc        0x0 /home/jfb/nacl_sdk/pepper_42/toolchain/linux_arm_newlib/bin/../lib/gcc/arm-nacl/4.9.2/../../../../arm-nacl/lib/libcrt_common.a(lib_a-init.o)
 .bss           0x10032ebc        0x0 /home/jfb/nacl_sdk/pepper_42/toolchain/linux_arm_newlib/bin/../lib/gcc/arm-nacl/4.9.2/../../../../arm-nacl/lib/libcrt_common.a(lib_a-memcpy.o)
 .bss           0x10032ebc        0x0 /home/jfb/nacl_sdk/pepper_42/toolchain/linux_arm_newlib/bin/../lib/gcc/arm-nacl/4.9.2/../../../../arm-nacl/lib/libcrt_common.a(lib_a-memset.o)
 .bss           0x10032ebc        0x0 /home/jfb/nacl_sdk/pepper_42/toolchain/linux_arm_newlib/bin/../lib/gcc/arm-nacl/4.9.2/../../../../arm-nacl/lib/libcrt_common.a(lib_a-sleep.o)
 .bss           0x10032ebc        0x0 /home/jfb/nacl_sdk/pepper_42/toolchain/linux_arm_newlib/bin/../lib/gcc/arm-nacl/4.9.2/../../../../arm-nacl/lib/libcrt_common.a(lib_a-stdio.o)
 .bss           0x10032ebc        0x0 /home/jfb/nacl_sdk/pepper_42/toolchain/linux_arm_newlib/bin/../lib/gcc/arm-nacl/4.9.2/../../../../arm-nacl/lib/libcrt_common.a(lib_a-strcmp.o)
 .bss           0x10032ebc        0x0 /home/jfb/nacl_sdk/pepper_42/toolchain/linux_arm_newlib/bin/../lib/gcc/arm-nacl/4.9.2/../../../../arm-nacl/lib/libcrt_common.a(lib_a-strlen-armv7.o)
 .bss           0x10032ebc        0x0 /home/jfb/nacl_sdk/pepper_42/toolchain/linux_arm_newlib/bin/../lib/gcc/arm-nacl/4.9.2/../../../../arm-nacl/lib/libcrt_common.a(lib_a-strncmp.o)
 .bss           0x10032ebc        0x0 /home/jfb/nacl_sdk/pepper_42/toolchain/linux_arm_newlib/bin/../lib/gcc/arm-nacl/4.9.2/../../../../arm-nacl/lib/libcrt_common.a(lib_a-vfprintf.o)
 .bss           0x10032ebc        0x0 /home/jfb/nacl_sdk/pepper_42/toolchain/linux_arm_newlib/bin/../lib/gcc/arm-nacl/4.9.2/../../../../arm-nacl/lib/libcrt_common.a(lib_a-vsnprintf.o)
 .bss           0x10032ebc        0x0 /home/jfb/nacl_sdk/pepper_42/toolchain/linux_arm_newlib/bin/../lib/gcc/arm-nacl/4.9.2/../../../../arm-nacl/lib/libcrt_common.a(lib_a-vsprintf.o)
 .bss           0x10032ebc        0x0 /home/jfb/nacl_sdk/pepper_42/toolchain/linux_arm_newlib/bin/../lib/gcc/arm-nacl/4.9.2/../../../../arm-nacl/lib/libcrt_common.a(lib_a-wcrtomb.o)
 .bss           0x10032ebc        0x0 /home/jfb/nacl_sdk/pepper_42/toolchain/linux_arm_newlib/bin/../lib/gcc/arm-nacl/4.9.2/../../../../arm-nacl/lib/libcrt_common.a(lib_a-wcsrtombs.o)
 .bss           0x10032ebc        0x0 /home/jfb/nacl_sdk/pepper_42/toolchain/linux_arm_newlib/bin/../lib/gcc/arm-nacl/4.9.2/../../../../arm-nacl/lib/libcrt_common.a(lib_a-wctomb_r.o)
 .bss           0x10032ebc        0x0 /home/jfb/nacl_sdk/pepper_42/toolchain/linux_arm_newlib/bin/../lib/gcc/arm-nacl/4.9.2/../../../../arm-nacl/lib/libcrt_common.a(lib_a-wsetup.o)
 .bss           0x10032ebc        0x0 /home/jfb/nacl_sdk/pepper_42/toolchain/linux_arm_newlib/bin/../lib/gcc/arm-nacl/4.9.2/../../../../arm-nacl/lib/libcrt_common.a(lib_a-__atexit.o)
 .bss           0x10032ebc        0x0 /home/jfb/nacl_sdk/pepper_42/toolchain/linux_arm_newlib/bin/../lib/gcc/arm-nacl/4.9.2/../../../../arm-nacl/lib/libcrt_common.a(lib_a-__call_atexit.o)
 .bss           0x10032ebc        0x0 /home/jfb/nacl_sdk/pepper_42/toolchain/linux_arm_newlib/bin/../lib/gcc/arm-nacl/4.9.2/../../../../arm-nacl/lib/libcrt_common.a(lib_a-dtoa.o)
 .bss           0x10032ebc        0x0 /home/jfb/nacl_sdk/pepper_42/toolchain/linux_arm_newlib/bin/../lib/gcc/arm-nacl/4.9.2/../../../../arm-nacl/lib/libcrt_common.a(lib_a-envlock.o)
 .bss           0x10032ebc        0x0 /home/jfb/nacl_sdk/pepper_42/toolchain/linux_arm_newlib/bin/../lib/gcc/arm-nacl/4.9.2/../../../../arm-nacl/lib/libcrt_common.a(lib_a-fclose.o)
 .bss           0x10032ebc        0x0 /home/jfb/nacl_sdk/pepper_42/toolchain/linux_arm_newlib/bin/../lib/gcc/arm-nacl/4.9.2/../../../../arm-nacl/lib/libcrt_common.a(lib_a-fvwrite.o)
 .bss           0x10032ebc      0x2b8 /home/jfb/nacl_sdk/pepper_42/toolchain/linux_arm_newlib/bin/../lib/gcc/arm-nacl/4.9.2/../../../../arm-nacl/lib/libcrt_common.a(lib_a-locale.o)
                0x10033168                _PathLocale
                0x1003316c                __mlocale_changed
                0x10033170                __nlocale_changed
 .bss           0x10033174        0x0 /home/jfb/nacl_sdk/pepper_42/toolchain/linux_arm_newlib/bin/../lib/gcc/arm-nacl/4.9.2/../../../../arm-nacl/lib/libcrt_common.a(lib_a-makebuf.o)
 .bss           0x10033174        0x0 /home/jfb/nacl_sdk/pepper_42/toolchain/linux_arm_newlib/bin/../lib/gcc/arm-nacl/4.9.2/../../../../arm-nacl/lib/libcrt_common.a(lib_a-mbtowc_r.o)
 .bss           0x10033174        0x0 /home/jfb/nacl_sdk/pepper_42/toolchain/linux_arm_newlib/bin/../lib/gcc/arm-nacl/4.9.2/../../../../arm-nacl/lib/libcrt_common.a(lib_a-memchr.o)
 .bss           0x10033174        0x0 /home/jfb/nacl_sdk/pepper_42/toolchain/linux_arm_newlib/bin/../lib/gcc/arm-nacl/4.9.2/../../../../arm-nacl/lib/libcrt_common.a(lib_a-memmove.o)
 .bss           0x10033174        0x0 /home/jfb/nacl_sdk/pepper_42/toolchain/linux_arm_newlib/bin/../lib/gcc/arm-nacl/4.9.2/../../../../arm-nacl/lib/libcrt_common.a(lib_a-mprec.o)
 .bss           0x10033174        0x0 /home/jfb/nacl_sdk/pepper_42/toolchain/linux_arm_newlib/bin/../lib/gcc/arm-nacl/4.9.2/../../../../arm-nacl/lib/libcrt_common.a(lib_a-s_fpclassify.o)
 .bss           0x10033174        0x0 /home/jfb/nacl_sdk/pepper_42/toolchain/linux_arm_newlib/bin/../lib/gcc/arm-nacl/4.9.2/../../../../arm-nacl/lib/libcrt_common.a(lib_a-s_frexp.o)
 .bss           0x10033174        0x0 /home/jfb/nacl_sdk/pepper_42/toolchain/linux_arm_newlib/bin/../lib/gcc/arm-nacl/4.9.2/../../../../arm-nacl/lib/libcrt_common.a(lib_a-strcasecmp.o)
 .bss           0x10033174        0x0 /home/jfb/nacl_sdk/pepper_42/toolchain/linux_arm_newlib/bin/../lib/gcc/arm-nacl/4.9.2/../../../../arm-nacl/lib/libcrt_common.a(lib_a-strcat.o)
 .bss           0x10033174        0x0 /home/jfb/nacl_sdk/pepper_42/toolchain/linux_arm_newlib/bin/../lib/gcc/arm-nacl/4.9.2/../../../../arm-nacl/lib/libcrt_common.a(lib_a-strchr.o)
 .bss           0x10033174        0x0 /home/jfb/nacl_sdk/pepper_42/toolchain/linux_arm_newlib/bin/../lib/gcc/arm-nacl/4.9.2/../../../../arm-nacl/lib/libcrt_common.a(lib_a-strcpy.o)
 .bss           0x10033174        0x0 /home/jfb/nacl_sdk/pepper_42/toolchain/linux_arm_newlib/bin/../lib/gcc/arm-nacl/4.9.2/../../../../arm-nacl/lib/libcrt_common.a(lib_a-strlcpy.o)
 .bss           0x10033174        0x0 /home/jfb/nacl_sdk/pepper_42/toolchain/linux_arm_newlib/bin/../lib/gcc/arm-nacl/4.9.2/../../../../arm-nacl/lib/libcrt_common.a(lib_a-strncasecmp.o)
 .bss           0x10033174        0x0 /home/jfb/nacl_sdk/pepper_42/toolchain/linux_arm_newlib/bin/../lib/gcc/arm-nacl/4.9.2/../../../../arm-nacl/lib/libcrt_common.a(lib_a-strncpy.o)
 .bss           0x10033174        0x0 /home/jfb/nacl_sdk/pepper_42/toolchain/linux_arm_newlib/bin/../lib/gcc/arm-nacl/4.9.2/../../../../arm-nacl/lib/libcrt_common.a(lib_a-strtol.o)
 .bss           0x10033174        0x0 /home/jfb/nacl_sdk/pepper_42/toolchain/linux_arm_newlib/bin/../lib/gcc/arm-nacl/4.9.2/../../../../arm-nacl/lib/libcrt_common.a(lib_a-svfprintf.o)
 .bss           0x10033174        0x0 /home/jfb/nacl_sdk/pepper_42/toolchain/linux_arm_newlib/bin/../lib/gcc/arm-nacl/4.9.2/../../../../arm-nacl/lib/libcrt_common.a(lib_a-vfiprintf.o)
 .bss           0x10033174        0x0 /home/jfb/nacl_sdk/pepper_42/toolchain/linux_arm_newlib/bin/../lib/gcc/arm-nacl/4.9.2/../../../../arm-nacl/lib/libcrt_common.a(lib_a-wcsnrtombs.o)
 .bss           0x10033174        0x0 /home/jfb/nacl_sdk/pepper_42/toolchain/linux_arm_newlib/bin/../lib/gcc/arm-nacl/4.9.2/../../../../arm-nacl/lib/libcrt_common.a(lib_a-ctype_.o)
 .bss           0x10033174        0x0 /home/jfb/nacl_sdk/pepper_42/toolchain/linux_arm_newlib/bin/../lib/gcc/arm-nacl/4.9.2/../../../../arm-nacl/lib/libcrt_common.a(lib_a-fputwc.o)
 .bss           0x10033174        0x0 /home/jfb/nacl_sdk/pepper_42/toolchain/linux_arm_newlib/bin/../lib/gcc/arm-nacl/4.9.2/../../../../arm-nacl/lib/libcrt_common.a(lib_a-svfiprintf.o)
 .bss           0x10033174        0x0 /home/jfb/nacl_sdk/pepper_42/toolchain/linux_arm_newlib/bin/../lib/gcc/arm-nacl/4.9.2/../../../../arm-nacl/lib/libcrt_common.a(lib_a-wbuf.o)
 .bss           0x10033174        0x0 /home/jfb/nacl_sdk/pepper_42/toolchain/linux_arm_newlib/bin/../lib/gcc/arm-nacl/4.9.2/../../../../arm-nacl/lib/libnacl.a(close_e9b92fbd.o)
 .bss           0x10033174        0x0 /home/jfb/nacl_sdk/pepper_42/toolchain/linux_arm_newlib/bin/../lib/gcc/arm-nacl/4.9.2/../../../../arm-nacl/lib/libnacl.a(isatty_02f56e94.o)
 .bss           0x10033174        0x0 /home/jfb/nacl_sdk/pepper_42/toolchain/linux_arm_newlib/bin/../lib/gcc/arm-nacl/4.9.2/../../../../arm-nacl/lib/libnacl.a(nacl_irt_fdio_b571b5e7.o)
 .bss           0x10033174        0x0 /home/jfb/nacl_sdk/pepper_42/toolchain/linux_arm_newlib/bin/../lib/gcc/arm-nacl/4.9.2/../../../../arm-nacl/lib/libnacl.a(fstat_0540ff63.o)
 .bss           0x10033174        0x0 /home/jfb/nacl_sdk/pepper_42/toolchain/linux_arm_newlib/bin/../lib/gcc/arm-nacl/4.9.2/../../../../arm-nacl/lib/libnacl.a(lseek_64d2d05c.o)
 .bss           0x10033174        0x0 /home/jfb/nacl_sdk/pepper_42/toolchain/linux_arm_newlib/bin/../lib/gcc/arm-nacl/4.9.2/../../../../arm-nacl/lib/libnacl.a(read_df872e10.o)
 .bss           0x10033174        0x0 /home/jfb/nacl_sdk/pepper_42/toolchain/linux_arm_newlib/bin/../lib/gcc/arm-nacl/4.9.2/../../../../arm-nacl/lib/libnacl.a(nanosleep_e59fdef1.o)
 .bss           0x10033174        0x0 /home/jfb/nacl_sdk/pepper_42/toolchain/linux_arm_newlib/bin/../lib/gcc/arm-nacl/4.9.2/libgcc.a(_udivsi3.o)
 .bss           0x10033174        0x0 /home/jfb/nacl_sdk/pepper_42/toolchain/linux_arm_newlib/bin/../lib/gcc/arm-nacl/4.9.2/libgcc.a(_divsi3.o)
 .bss           0x10033174        0x0 /home/jfb/nacl_sdk/pepper_42/toolchain/linux_arm_newlib/bin/../lib/gcc/arm-nacl/4.9.2/libgcc.a(_aeabi_uldivmod.o)
 .bss           0x10033174        0x0 /home/jfb/nacl_sdk/pepper_42/toolchain/linux_arm_newlib/bin/../lib/gcc/arm-nacl/4.9.2/libgcc.a(_dvmd_nacl.o)
 .bss           0x10033174        0x0 /home/jfb/nacl_sdk/pepper_42/toolchain/linux_arm_newlib/bin/../lib/gcc/arm-nacl/4.9.2/libgcc.a(bpabi.o)
 .bss           0x10033174        0x0 /home/jfb/nacl_sdk/pepper_42/toolchain/linux_arm_newlib/bin/../lib/gcc/arm-nacl/4.9.2/libgcc.a(_divdi3.o)
 .bss           0x10033174        0x0 /home/jfb/nacl_sdk/pepper_42/toolchain/linux_arm_newlib/bin/../lib/gcc/arm-nacl/4.9.2/libgcc.a(_udivdi3.o)
 .bss           0x10033174        0x0 /home/jfb/nacl_sdk/pepper_42/toolchain/linux_arm_newlib/bin/../lib/gcc/arm-nacl/4.9.2/crtend.o
 .bss           0x10033174        0x0 /home/jfb/nacl_sdk/pepper_42/toolchain/linux_arm_newlib/bin/../lib/gcc/arm-nacl/4.9.2/../../../../arm-nacl/lib/crtn.o
 *(COMMON)
 COMMON         0x10033174        0xc newlib/Release/debugging_arm.o
                0x10033174                g_PPAPIThread
                0x10033178                g_Instance
                0x1003317c                g_NexeThread
 COMMON         0x10033180       0x40 /home/jfb/nacl_sdk/pepper_42/toolchain/linux_arm_newlib/bin/../lib/gcc/arm-nacl/4.9.2/../../../../arm-nacl/lib/libpthread.a(nc_thread_7e478b15.o)
                0x10033180                __nc_thread_initialized
                0x10033184                __nc_thread_management_lock
                0x10033198                __nc_memory_block_counter
                0x100331a0                __nc_initial_thread_id
                0x100331a4                __nc_thread_memory_blocks
                0x100331b4                __libnacl_irt_thread
 COMMON         0x100331c0        0x8 /home/jfb/nacl_sdk/pepper_42/toolchain/linux_arm_newlib/bin/../lib/gcc/arm-nacl/4.9.2/../../../../arm-nacl/lib/libpthread.a(nc_init_irt_d3daafc0.o)
                0x100331c0                __libnacl_irt_futex
 COMMON         0x100331c8        0x4 /home/jfb/nacl_sdk/pepper_42/toolchain/linux_arm_newlib/bin/../lib/gcc/arm-nacl/4.9.2/../../../../arm-nacl/lib/libnacl.a(start_fa9ef7de.o)
                0x100331c8                __nacl_initial_thread_stack_end
 COMMON         0x100331cc       0xb4 /home/jfb/nacl_sdk/pepper_42/toolchain/linux_arm_newlib/bin/../lib/gcc/arm-nacl/4.9.2/../../../../arm-nacl/lib/libnacl.a(nacl_irt_6de1d53f.o)
                0x100331cc                __nacl_irt_query
                0x100331d0                __libnacl_irt_dev_filename
                0x10033210                __libnacl_irt_clock
                0x10033218                __libnacl_irt_memory
                0x10033224                __libnacl_irt_dev_fdio
                0x1003325c                __libnacl_irt_basic
                0x10033274                __libnacl_irt_tls
                0x1003327c                __libnacl_irt_dev_getpid
                0x10033280                . = ALIGN ((. != 0x0)?0x4:0x1)
                0x10033280                _bss_end__ = .
                0x10033280                __bss_end__ = .
                0x10033280                . = ALIGN (0x4)
                0x10033280                . = SEGMENT_START ("ldata-segment", .)
                0x10033280                . = ALIGN (0x4)
                0x10033280                __end__ = .
                0x10033280                _end = .
                0x10033280                PROVIDE (end, .)
                0x10033280                . = DATA_SEGMENT_END (.)

.stab
 *(.stab)

.stabstr
 *(.stabstr)

.stab.excl
 *(.stab.excl)

.stab.exclstr
 *(.stab.exclstr)

.stab.index
 *(.stab.index)

.stab.indexstr
 *(.stab.indexstr)

.comment        0x00000000       0x94
 *(.comment)
 .comment       0x00000000       0x4a /home/jfb/nacl_sdk/pepper_42/toolchain/linux_arm_newlib/bin/../lib/gcc/arm-nacl/4.9.2/crtbegin.o
                                 0x4b (size before relaxing)
 .comment       0x0000004a       0x4a newlib/Release/debugging_arm.o
                                 0x4b (size before relaxing)
 .comment       0x00000094       0x4b /home/jfb/nacl_sdk/pepper_42//lib/newlib_arm/Release/liberror_handling.a(error_handling_arm.o)
 .comment       0x00000094       0x4b /home/jfb/nacl_sdk/pepper_42//lib/newlib_arm/Release/liberror_handling.a(string_stream_arm.o)
 .comment       0x00000094       0x4b /home/jfb/nacl_sdk/pepper_42/toolchain/linux_arm_newlib/bin/../lib/gcc/arm-nacl/4.9.2/../../../../arm-nacl/lib/libppapi_stub.a(plugin_main_irt_21ce9d26.o)
 .comment       0x00000094       0x4b /home/jfb/nacl_sdk/pepper_42/toolchain/linux_arm_newlib/bin/../lib/gcc/arm-nacl/4.9.2/../../../../arm-nacl/lib/libppapi_stub.a(ppapi_plugin_main_399d0cf7.o)
 .comment       0x00000094       0x4b /home/jfb/nacl_sdk/pepper_42/toolchain/linux_arm_newlib/bin/../lib/gcc/arm-nacl/4.9.2/../../../../arm-nacl/lib/libppapi_stub.a(ppapi_plugin_start_8da67623.o)
 .comment       0x00000094       0x4b /home/jfb/nacl_sdk/pepper_42/toolchain/linux_arm_newlib/bin/../lib/gcc/arm-nacl/4.9.2/../../../../arm-nacl/lib/libppapi_stub.a(thread_creator_ccf263e1.o)
 .comment       0x00000094       0x4b /home/jfb/nacl_sdk/pepper_42/toolchain/linux_arm_newlib/bin/../lib/gcc/arm-nacl/4.9.2/../../../../arm-nacl/lib/libpthread.a(nc_thread_7e478b15.o)
 .comment       0x00000094       0x4b /home/jfb/nacl_sdk/pepper_42/toolchain/linux_arm_newlib/bin/../lib/gcc/arm-nacl/4.9.2/../../../../arm-nacl/lib/libpthread.a(nc_condvar_305aa45a.o)
 .comment       0x00000094       0x4b /home/jfb/nacl_sdk/pepper_42/toolchain/linux_arm_newlib/bin/../lib/gcc/arm-nacl/4.9.2/../../../../arm-nacl/lib/libpthread.a(dynamic_annotations_33ba59cc.o)
 .comment       0x00000094       0x4b /home/jfb/nacl_sdk/pepper_42/toolchain/linux_arm_newlib/bin/../lib/gcc/arm-nacl/4.9.2/../../../../arm-nacl/lib/libpthread.a(nc_mutex_86341ae1.o)
 .comment       0x00000094       0x4b /home/jfb/nacl_sdk/pepper_42/toolchain/linux_arm_newlib/bin/../lib/gcc/arm-nacl/4.9.2/../../../../arm-nacl/lib/libpthread.a(nc_init_irt_d3daafc0.o)
 .comment       0x00000094       0x4b /home/jfb/nacl_sdk/pepper_42/toolchain/linux_arm_newlib/bin/../lib/gcc/arm-nacl/4.9.2/libgcc.a(unwind-arm.o)
 .comment       0x00000094       0x4b /home/jfb/nacl_sdk/pepper_42/toolchain/linux_arm_newlib/bin/../lib/gcc/arm-nacl/4.9.2/libgcc.a(pr-support.o)
 .comment       0x00000094       0x4b /home/jfb/nacl_sdk/pepper_42/toolchain/linux_arm_newlib/bin/../lib/gcc/arm-nacl/4.9.2/../../../../arm-nacl/lib/libnacl.a(_exit_710c7d0d.o)
 .comment       0x00000094       0x4b /home/jfb/nacl_sdk/pepper_42/toolchain/linux_arm_newlib/bin/../lib/gcc/arm-nacl/4.9.2/../../../../arm-nacl/lib/libnacl.a(abort_9f6b5845.o)
 .comment       0x00000094       0x4b /home/jfb/nacl_sdk/pepper_42/toolchain/linux_arm_newlib/bin/../lib/gcc/arm-nacl/4.9.2/../../../../arm-nacl/lib/libnacl.a(environ_25cd24d8.o)
 .comment       0x00000094       0x4b /home/jfb/nacl_sdk/pepper_42/toolchain/linux_arm_newlib/bin/../lib/gcc/arm-nacl/4.9.2/../../../../arm-nacl/lib/libnacl.a(start_fa9ef7de.o)
 .comment       0x00000094       0x4b /home/jfb/nacl_sdk/pepper_42/toolchain/linux_arm_newlib/bin/../lib/gcc/arm-nacl/4.9.2/../../../../arm-nacl/lib/libnacl.a(malloc_222c4a1e.o)
 .comment       0x00000094       0x4b /home/jfb/nacl_sdk/pepper_42/toolchain/linux_arm_newlib/bin/../lib/gcc/arm-nacl/4.9.2/../../../../arm-nacl/lib/libnacl.a(nacl_irt_6de1d53f.o)
 .comment       0x00000094       0x4b /home/jfb/nacl_sdk/pepper_42/toolchain/linux_arm_newlib/bin/../lib/gcc/arm-nacl/4.9.2/../../../../arm-nacl/lib/libnacl.a(pthread_initialize_minimal_4b6e776b.o)
 .comment       0x00000094       0x4b /home/jfb/nacl_sdk/pepper_42/toolchain/linux_arm_newlib/bin/../lib/gcc/arm-nacl/4.9.2/../../../../arm-nacl/lib/libnacl.a(nacl_read_tp_5748ac47.o)
 .comment       0x00000094       0x4b /home/jfb/nacl_sdk/pepper_42/toolchain/linux_arm_newlib/bin/../lib/gcc/arm-nacl/4.9.2/../../../../arm-nacl/lib/libnacl.a(nacl_interface_query_ef8a99f1.o)
 .comment       0x00000094       0x4b /home/jfb/nacl_sdk/pepper_42/toolchain/linux_arm_newlib/bin/../lib/gcc/arm-nacl/4.9.2/../../../../arm-nacl/lib/libnacl.a(mmap_767fb080.o)
 .comment       0x00000094       0x4b /home/jfb/nacl_sdk/pepper_42/toolchain/linux_arm_newlib/bin/../lib/gcc/arm-nacl/4.9.2/../../../../arm-nacl/lib/libnacl.a(sched_yield_56c375be.o)
 .comment       0x00000094       0x4b /home/jfb/nacl_sdk/pepper_42/toolchain/linux_arm_newlib/bin/../lib/gcc/arm-nacl/4.9.2/../../../../arm-nacl/lib/libnacl.a(munmap_d4f09867.o)
 .comment       0x00000094       0x4b /home/jfb/nacl_sdk/pepper_42/toolchain/linux_arm_newlib/bin/../lib/gcc/arm-nacl/4.9.2/../../../../arm-nacl/lib/libnacl.a(tls_bba1975b.o)
 .comment       0x00000094       0x4b /home/jfb/nacl_sdk/pepper_42/toolchain/linux_arm_newlib/bin/../lib/gcc/arm-nacl/4.9.2/../../../../arm-nacl/lib/libnacl.a(write_fb49787f.o)
 .comment       0x00000094       0x4b /home/jfb/nacl_sdk/pepper_42/toolchain/linux_arm_newlib/bin/../lib/gcc/arm-nacl/4.9.2/../../../../arm-nacl/lib/libnacl.a(nacl_tls_get_d2f842b5.o)
 .comment       0x00000094       0x4b /home/jfb/nacl_sdk/pepper_42/toolchain/linux_arm_newlib/bin/../lib/gcc/arm-nacl/4.9.2/../../../../arm-nacl/lib/libnacl.a(nacl_irt_init_7b4f826e.o)
 .comment       0x00000094       0x4b /home/jfb/nacl_sdk/pepper_42/toolchain/linux_arm_newlib/bin/../lib/gcc/arm-nacl/4.9.2/../../../../arm-nacl/lib/libnacl.a(sysconf_ad295ea2.o)
 .comment       0x00000094       0x4b /home/jfb/nacl_sdk/pepper_42/toolchain/linux_arm_newlib/bin/../lib/gcc/arm-nacl/4.9.2/../../../../arm-nacl/lib/libnacl.a(nacl_tls_init_eb0cd232.o)
 .comment       0x00000094       0x4b /home/jfb/nacl_sdk/pepper_42/toolchain/linux_arm_newlib/bin/../lib/gcc/arm-nacl/4.9.2/../../../../arm-nacl/lib/libnacl.a(close_e9b92fbd.o)
 .comment       0x00000094       0x4b /home/jfb/nacl_sdk/pepper_42/toolchain/linux_arm_newlib/bin/../lib/gcc/arm-nacl/4.9.2/../../../../arm-nacl/lib/libnacl.a(isatty_02f56e94.o)
 .comment       0x00000094       0x4b /home/jfb/nacl_sdk/pepper_42/toolchain/linux_arm_newlib/bin/../lib/gcc/arm-nacl/4.9.2/../../../../arm-nacl/lib/libnacl.a(nacl_irt_fdio_b571b5e7.o)
 .comment       0x00000094       0x4b /home/jfb/nacl_sdk/pepper_42/toolchain/linux_arm_newlib/bin/../lib/gcc/arm-nacl/4.9.2/../../../../arm-nacl/lib/libnacl.a(fstat_0540ff63.o)
 .comment       0x00000094       0x4b /home/jfb/nacl_sdk/pepper_42/toolchain/linux_arm_newlib/bin/../lib/gcc/arm-nacl/4.9.2/../../../../arm-nacl/lib/libnacl.a(lseek_64d2d05c.o)
 .comment       0x00000094       0x4b /home/jfb/nacl_sdk/pepper_42/toolchain/linux_arm_newlib/bin/../lib/gcc/arm-nacl/4.9.2/../../../../arm-nacl/lib/libnacl.a(read_df872e10.o)
 .comment       0x00000094       0x4b /home/jfb/nacl_sdk/pepper_42/toolchain/linux_arm_newlib/bin/../lib/gcc/arm-nacl/4.9.2/../../../../arm-nacl/lib/libnacl.a(nanosleep_e59fdef1.o)
 .comment       0x00000094       0x4b /home/jfb/nacl_sdk/pepper_42/toolchain/linux_arm_newlib/bin/../lib/gcc/arm-nacl/4.9.2/libgcc.a(bpabi.o)
 .comment       0x00000094       0x4b /home/jfb/nacl_sdk/pepper_42/toolchain/linux_arm_newlib/bin/../lib/gcc/arm-nacl/4.9.2/libgcc.a(_divdi3.o)
 .comment       0x00000094       0x4b /home/jfb/nacl_sdk/pepper_42/toolchain/linux_arm_newlib/bin/../lib/gcc/arm-nacl/4.9.2/libgcc.a(_udivdi3.o)
 .comment       0x00000094       0x4b /home/jfb/nacl_sdk/pepper_42/toolchain/linux_arm_newlib/bin/../lib/gcc/arm-nacl/4.9.2/crtend.o

.ARM.attributes
                0x00000000       0x33
 .ARM.attributes
                0x00000000       0x14 /home/jfb/nacl_sdk/pepper_42/toolchain/linux_arm_newlib/bin/../lib/gcc/arm-nacl/4.9.2/../../../../arm-nacl/lib/crti.o
 .ARM.attributes
                0x00000014       0x37 /home/jfb/nacl_sdk/pepper_42/toolchain/linux_arm_newlib/bin/../lib/gcc/arm-nacl/4.9.2/crtbegin.o
 .ARM.attributes
                0x0000004b       0x37 newlib/Release/debugging_arm.o
 .ARM.attributes
                0x00000082       0x37 /home/jfb/nacl_sdk/pepper_42//lib/newlib_arm/Release/liberror_handling.a(error_handling_arm.o)
 .ARM.attributes
                0x000000b9       0x37 /home/jfb/nacl_sdk/pepper_42//lib/newlib_arm/Release/liberror_handling.a(string_stream_arm.o)
 .ARM.attributes
                0x000000f0       0x37 /home/jfb/nacl_sdk/pepper_42/toolchain/linux_arm_newlib/bin/../lib/gcc/arm-nacl/4.9.2/../../../../arm-nacl/lib/libppapi_stub.a(plugin_main_irt_21ce9d26.o)
 .ARM.attributes
                0x00000127       0x37 /home/jfb/nacl_sdk/pepper_42/toolchain/linux_arm_newlib/bin/../lib/gcc/arm-nacl/4.9.2/../../../../arm-nacl/lib/libppapi_stub.a(ppapi_plugin_main_399d0cf7.o)
 .ARM.attributes
                0x0000015e       0x37 /home/jfb/nacl_sdk/pepper_42/toolchain/linux_arm_newlib/bin/../lib/gcc/arm-nacl/4.9.2/../../../../arm-nacl/lib/libppapi_stub.a(ppapi_plugin_start_8da67623.o)
 .ARM.attributes
                0x00000195       0x37 /home/jfb/nacl_sdk/pepper_42/toolchain/linux_arm_newlib/bin/../lib/gcc/arm-nacl/4.9.2/../../../../arm-nacl/lib/libppapi_stub.a(thread_creator_ccf263e1.o)
 .ARM.attributes
                0x000001cc       0x37 /home/jfb/nacl_sdk/pepper_42/toolchain/linux_arm_newlib/bin/../lib/gcc/arm-nacl/4.9.2/../../../../arm-nacl/lib/libpthread.a(nc_thread_7e478b15.o)
 .ARM.attributes
                0x00000203       0x37 /home/jfb/nacl_sdk/pepper_42/toolchain/linux_arm_newlib/bin/../lib/gcc/arm-nacl/4.9.2/../../../../arm-nacl/lib/libpthread.a(nc_condvar_305aa45a.o)
 .ARM.attributes
                0x0000023a       0x37 /home/jfb/nacl_sdk/pepper_42/toolchain/linux_arm_newlib/bin/../lib/gcc/arm-nacl/4.9.2/../../../../arm-nacl/lib/libpthread.a(dynamic_annotations_33ba59cc.o)
 .ARM.attributes
                0x00000271       0x37 /home/jfb/nacl_sdk/pepper_42/toolchain/linux_arm_newlib/bin/../lib/gcc/arm-nacl/4.9.2/../../../../arm-nacl/lib/libpthread.a(nc_mutex_86341ae1.o)
 .ARM.attributes
                0x000002a8       0x37 /home/jfb/nacl_sdk/pepper_42/toolchain/linux_arm_newlib/bin/../lib/gcc/arm-nacl/4.9.2/../../../../arm-nacl/lib/libpthread.a(nc_init_irt_d3daafc0.o)
 .ARM.attributes
                0x000002df       0x37 /home/jfb/nacl_sdk/pepper_42/toolchain/linux_arm_newlib/bin/../lib/gcc/arm-nacl/4.9.2/libgcc.a(unwind-arm.o)
 .ARM.attributes
                0x00000316       0x1a /home/jfb/nacl_sdk/pepper_42/toolchain/linux_arm_newlib/bin/../lib/gcc/arm-nacl/4.9.2/libgcc.a(libunwind.o)
 .ARM.attributes
                0x00000330       0x37 /home/jfb/nacl_sdk/pepper_42/toolchain/linux_arm_newlib/bin/../lib/gcc/arm-nacl/4.9.2/libgcc.a(pr-support.o)
 .ARM.attributes
                0x00000367       0x37 /home/jfb/nacl_sdk/pepper_42/toolchain/linux_arm_newlib/bin/../lib/gcc/arm-nacl/4.9.2/../../../../arm-nacl/lib/libnacl.a(_exit_710c7d0d.o)
 .ARM.attributes
                0x0000039e       0x37 /home/jfb/nacl_sdk/pepper_42/toolchain/linux_arm_newlib/bin/../lib/gcc/arm-nacl/4.9.2/../../../../arm-nacl/lib/libnacl.a(abort_9f6b5845.o)
 .ARM.attributes
                0x000003d5       0x37 /home/jfb/nacl_sdk/pepper_42/toolchain/linux_arm_newlib/bin/../lib/gcc/arm-nacl/4.9.2/../../../../arm-nacl/lib/libnacl.a(environ_25cd24d8.o)
 .ARM.attributes
                0x0000040c       0x37 /home/jfb/nacl_sdk/pepper_42/toolchain/linux_arm_newlib/bin/../lib/gcc/arm-nacl/4.9.2/../../../../arm-nacl/lib/libnacl.a(start_fa9ef7de.o)
 .ARM.attributes
                0x00000443       0x37 /home/jfb/nacl_sdk/pepper_42/toolchain/linux_arm_newlib/bin/../lib/gcc/arm-nacl/4.9.2/../../../../arm-nacl/lib/libnacl.a(malloc_222c4a1e.o)
 .ARM.attributes
                0x0000047a       0x37 /home/jfb/nacl_sdk/pepper_42/toolchain/linux_arm_newlib/bin/../lib/gcc/arm-nacl/4.9.2/../../../../arm-nacl/lib/libnacl.a(nacl_irt_6de1d53f.o)
 .ARM.attributes
                0x000004b1       0x37 /home/jfb/nacl_sdk/pepper_42/toolchain/linux_arm_newlib/bin/../lib/gcc/arm-nacl/4.9.2/../../../../arm-nacl/lib/libnacl.a(pthread_initialize_minimal_4b6e776b.o)
 .ARM.attributes
                0x000004e8       0x37 /home/jfb/nacl_sdk/pepper_42/toolchain/linux_arm_newlib/bin/../lib/gcc/arm-nacl/4.9.2/../../../../arm-nacl/lib/libnacl.a(nacl_read_tp_5748ac47.o)
 .ARM.attributes
                0x0000051f       0x37 /home/jfb/nacl_sdk/pepper_42/toolchain/linux_arm_newlib/bin/../lib/gcc/arm-nacl/4.9.2/../../../../arm-nacl/lib/libnacl.a(nacl_interface_query_ef8a99f1.o)
 .ARM.attributes
                0x00000556       0x37 /home/jfb/nacl_sdk/pepper_42/toolchain/linux_arm_newlib/bin/../lib/gcc/arm-nacl/4.9.2/../../../../arm-nacl/lib/libnacl.a(mmap_767fb080.o)
 .ARM.attributes
                0x0000058d       0x37 /home/jfb/nacl_sdk/pepper_42/toolchain/linux_arm_newlib/bin/../lib/gcc/arm-nacl/4.9.2/../../../../arm-nacl/lib/libnacl.a(sched_yield_56c375be.o)
 .ARM.attributes
                0x000005c4       0x37 /home/jfb/nacl_sdk/pepper_42/toolchain/linux_arm_newlib/bin/../lib/gcc/arm-nacl/4.9.2/../../../../arm-nacl/lib/libnacl.a(munmap_d4f09867.o)
 .ARM.attributes
                0x000005fb       0x37 /home/jfb/nacl_sdk/pepper_42/toolchain/linux_arm_newlib/bin/../lib/gcc/arm-nacl/4.9.2/../../../../arm-nacl/lib/libnacl.a(tls_bba1975b.o)
 .ARM.attributes
                0x00000632       0x37 /home/jfb/nacl_sdk/pepper_42/toolchain/linux_arm_newlib/bin/../lib/gcc/arm-nacl/4.9.2/../../../../arm-nacl/lib/libnacl.a(write_fb49787f.o)
 .ARM.attributes
                0x00000669       0x37 /home/jfb/nacl_sdk/pepper_42/toolchain/linux_arm_newlib/bin/../lib/gcc/arm-nacl/4.9.2/../../../../arm-nacl/lib/libnacl.a(nacl_tls_get_d2f842b5.o)
 .ARM.attributes
                0x000006a0       0x37 /home/jfb/nacl_sdk/pepper_42/toolchain/linux_arm_newlib/bin/../lib/gcc/arm-nacl/4.9.2/../../../../arm-nacl/lib/libnacl.a(nacl_irt_init_7b4f826e.o)
 .ARM.attributes
                0x000006d7       0x37 /home/jfb/nacl_sdk/pepper_42/toolchain/linux_arm_newlib/bin/../lib/gcc/arm-nacl/4.9.2/../../../../arm-nacl/lib/libnacl.a(sysconf_ad295ea2.o)
 .ARM.attributes
                0x0000070e       0x37 /home/jfb/nacl_sdk/pepper_42/toolchain/linux_arm_newlib/bin/../lib/gcc/arm-nacl/4.9.2/../../../../arm-nacl/lib/libnacl.a(nacl_tls_init_eb0cd232.o)
 .ARM.attributes
                0x00000745       0x37 /home/jfb/nacl_sdk/pepper_42/toolchain/linux_arm_newlib/bin/../lib/gcc/arm-nacl/4.9.2/../../../../arm-nacl/lib/libcrt_common.a(lib_a-atexit.o)
 .ARM.attributes
                0x0000077c       0x37 /home/jfb/nacl_sdk/pepper_42/toolchain/linux_arm_newlib/bin/../lib/gcc/arm-nacl/4.9.2/../../../../arm-nacl/lib/libcrt_common.a(lib_a-errno.o)
 .ARM.attributes
                0x000007b3       0x37 /home/jfb/nacl_sdk/pepper_42/toolchain/linux_arm_newlib/bin/../lib/gcc/arm-nacl/4.9.2/../../../../arm-nacl/lib/libcrt_common.a(lib_a-exit.o)
 .ARM.attributes
                0x000007ea       0x37 /home/jfb/nacl_sdk/pepper_42/toolchain/linux_arm_newlib/bin/../lib/gcc/arm-nacl/4.9.2/../../../../arm-nacl/lib/libcrt_common.a(lib_a-fflush.o)
 .ARM.attributes
                0x00000821       0x37 /home/jfb/nacl_sdk/pepper_42/toolchain/linux_arm_newlib/bin/../lib/gcc/arm-nacl/4.9.2/../../../../arm-nacl/lib/libcrt_common.a(lib_a-findfp.o)
 .ARM.attributes
                0x00000858       0x37 /home/jfb/nacl_sdk/pepper_42/toolchain/linux_arm_newlib/bin/../lib/gcc/arm-nacl/4.9.2/../../../../arm-nacl/lib/libcrt_common.a(lib_a-fini.o)
 .ARM.attributes
                0x0000088f       0x37 /home/jfb/nacl_sdk/pepper_42/toolchain/linux_arm_newlib/bin/../lib/gcc/arm-nacl/4.9.2/../../../../arm-nacl/lib/libcrt_common.a(lib_a-fprintf.o)
 .ARM.attributes
                0x000008c6       0x37 /home/jfb/nacl_sdk/pepper_42/toolchain/linux_arm_newlib/bin/../lib/gcc/arm-nacl/4.9.2/../../../../arm-nacl/lib/libcrt_common.a(lib_a-fwalk.o)
 .ARM.attributes
                0x000008fd       0x37 /home/jfb/nacl_sdk/pepper_42/toolchain/linux_arm_newlib/bin/../lib/gcc/arm-nacl/4.9.2/../../../../arm-nacl/lib/libcrt_common.a(lib_a-fwrite.o)
 .ARM.attributes
                0x00000934       0x37 /home/jfb/nacl_sdk/pepper_42/toolchain/linux_arm_newlib/bin/../lib/gcc/arm-nacl/4.9.2/../../../../arm-nacl/lib/libcrt_common.a(lib_a-getenv.o)
 .ARM.attributes
                0x0000096b       0x37 /home/jfb/nacl_sdk/pepper_42/toolchain/linux_arm_newlib/bin/../lib/gcc/arm-nacl/4.9.2/../../../../arm-nacl/lib/libcrt_common.a(lib_a-getenv_r.o)
 .ARM.attributes
                0x000009a2       0x37 /home/jfb/nacl_sdk/pepper_42/toolchain/linux_arm_newlib/bin/../lib/gcc/arm-nacl/4.9.2/../../../../arm-nacl/lib/libcrt_common.a(lib_a-impure.o)
 .ARM.attributes
                0x000009d9       0x37 /home/jfb/nacl_sdk/pepper_42/toolchain/linux_arm_newlib/bin/../lib/gcc/arm-nacl/4.9.2/../../../../arm-nacl/lib/libcrt_common.a(lib_a-init.o)
 .ARM.attributes
                0x00000a10       0x21 /home/jfb/nacl_sdk/pepper_42/toolchain/linux_arm_newlib/bin/../lib/gcc/arm-nacl/4.9.2/../../../../arm-nacl/lib/libcrt_common.a(lib_a-memcpy.o)
 .ARM.attributes
                0x00000a31       0x37 /home/jfb/nacl_sdk/pepper_42/toolchain/linux_arm_newlib/bin/../lib/gcc/arm-nacl/4.9.2/../../../../arm-nacl/lib/libcrt_common.a(lib_a-memset.o)
 .ARM.attributes
                0x00000a68       0x37 /home/jfb/nacl_sdk/pepper_42/toolchain/linux_arm_newlib/bin/../lib/gcc/arm-nacl/4.9.2/../../../../arm-nacl/lib/libcrt_common.a(lib_a-sleep.o)
 .ARM.attributes
                0x00000a9f       0x37 /home/jfb/nacl_sdk/pepper_42/toolchain/linux_arm_newlib/bin/../lib/gcc/arm-nacl/4.9.2/../../../../arm-nacl/lib/libcrt_common.a(lib_a-stdio.o)
 .ARM.attributes
                0x00000ad6       0x16 /home/jfb/nacl_sdk/pepper_42/toolchain/linux_arm_newlib/bin/../lib/gcc/arm-nacl/4.9.2/../../../../arm-nacl/lib/libcrt_common.a(lib_a-strcmp.o)
 .ARM.attributes
                0x00000aec       0x16 /home/jfb/nacl_sdk/pepper_42/toolchain/linux_arm_newlib/bin/../lib/gcc/arm-nacl/4.9.2/../../../../arm-nacl/lib/libcrt_common.a(lib_a-strlen-armv7.o)
 .ARM.attributes
                0x00000b02       0x37 /home/jfb/nacl_sdk/pepper_42/toolchain/linux_arm_newlib/bin/../lib/gcc/arm-nacl/4.9.2/../../../../arm-nacl/lib/libcrt_common.a(lib_a-strncmp.o)
 .ARM.attributes
                0x00000b39       0x37 /home/jfb/nacl_sdk/pepper_42/toolchain/linux_arm_newlib/bin/../lib/gcc/arm-nacl/4.9.2/../../../../arm-nacl/lib/libcrt_common.a(lib_a-vfprintf.o)
 .ARM.attributes
                0x00000b70       0x37 /home/jfb/nacl_sdk/pepper_42/toolchain/linux_arm_newlib/bin/../lib/gcc/arm-nacl/4.9.2/../../../../arm-nacl/lib/libcrt_common.a(lib_a-vsnprintf.o)
 .ARM.attributes
                0x00000ba7       0x37 /home/jfb/nacl_sdk/pepper_42/toolchain/linux_arm_newlib/bin/../lib/gcc/arm-nacl/4.9.2/../../../../arm-nacl/lib/libcrt_common.a(lib_a-vsprintf.o)
 .ARM.attributes
                0x00000bde       0x37 /home/jfb/nacl_sdk/pepper_42/toolchain/linux_arm_newlib/bin/../lib/gcc/arm-nacl/4.9.2/../../../../arm-nacl/lib/libcrt_common.a(lib_a-wcrtomb.o)
 .ARM.attributes
                0x00000c15       0x37 /home/jfb/nacl_sdk/pepper_42/toolchain/linux_arm_newlib/bin/../lib/gcc/arm-nacl/4.9.2/../../../../arm-nacl/lib/libcrt_common.a(lib_a-wcsrtombs.o)
 .ARM.attributes
                0x00000c4c       0x37 /home/jfb/nacl_sdk/pepper_42/toolchain/linux_arm_newlib/bin/../lib/gcc/arm-nacl/4.9.2/../../../../arm-nacl/lib/libcrt_common.a(lib_a-wctomb_r.o)
 .ARM.attributes
                0x00000c83       0x37 /home/jfb/nacl_sdk/pepper_42/toolchain/linux_arm_newlib/bin/../lib/gcc/arm-nacl/4.9.2/../../../../arm-nacl/lib/libcrt_common.a(lib_a-wsetup.o)
 .ARM.attributes
                0x00000cba       0x37 /home/jfb/nacl_sdk/pepper_42/toolchain/linux_arm_newlib/bin/../lib/gcc/arm-nacl/4.9.2/../../../../arm-nacl/lib/libcrt_common.a(lib_a-__atexit.o)
 .ARM.attributes
                0x00000cf1       0x37 /home/jfb/nacl_sdk/pepper_42/toolchain/linux_arm_newlib/bin/../lib/gcc/arm-nacl/4.9.2/../../../../arm-nacl/lib/libcrt_common.a(lib_a-__call_atexit.o)
 .ARM.attributes
                0x00000d28       0x37 /home/jfb/nacl_sdk/pepper_42/toolchain/linux_arm_newlib/bin/../lib/gcc/arm-nacl/4.9.2/../../../../arm-nacl/lib/libcrt_common.a(lib_a-dtoa.o)
 .ARM.attributes
                0x00000d5f       0x37 /home/jfb/nacl_sdk/pepper_42/toolchain/linux_arm_newlib/bin/../lib/gcc/arm-nacl/4.9.2/../../../../arm-nacl/lib/libcrt_common.a(lib_a-envlock.o)
 .ARM.attributes
                0x00000d96       0x37 /home/jfb/nacl_sdk/pepper_42/toolchain/linux_arm_newlib/bin/../lib/gcc/arm-nacl/4.9.2/../../../../arm-nacl/lib/libcrt_common.a(lib_a-fclose.o)
 .ARM.attributes
                0x00000dcd       0x37 /home/jfb/nacl_sdk/pepper_42/toolchain/linux_arm_newlib/bin/../lib/gcc/arm-nacl/4.9.2/../../../../arm-nacl/lib/libcrt_common.a(lib_a-fvwrite.o)
 .ARM.attributes
                0x00000e04       0x37 /home/jfb/nacl_sdk/pepper_42/toolchain/linux_arm_newlib/bin/../lib/gcc/arm-nacl/4.9.2/../../../../arm-nacl/lib/libcrt_common.a(lib_a-locale.o)
 .ARM.attributes
                0x00000e3b       0x37 /home/jfb/nacl_sdk/pepper_42/toolchain/linux_arm_newlib/bin/../lib/gcc/arm-nacl/4.9.2/../../../../arm-nacl/lib/libcrt_common.a(lib_a-makebuf.o)
 .ARM.attributes
                0x00000e72       0x37 /home/jfb/nacl_sdk/pepper_42/toolchain/linux_arm_newlib/bin/../lib/gcc/arm-nacl/4.9.2/../../../../arm-nacl/lib/libcrt_common.a(lib_a-mbtowc_r.o)
 .ARM.attributes
                0x00000ea9       0x1d /home/jfb/nacl_sdk/pepper_42/toolchain/linux_arm_newlib/bin/../lib/gcc/arm-nacl/4.9.2/../../../../arm-nacl/lib/libcrt_common.a(lib_a-memchr.o)
 .ARM.attributes
                0x00000ec6       0x37 /home/jfb/nacl_sdk/pepper_42/toolchain/linux_arm_newlib/bin/../lib/gcc/arm-nacl/4.9.2/../../../../arm-nacl/lib/libcrt_common.a(lib_a-memmove.o)
 .ARM.attributes
                0x00000efd       0x37 /home/jfb/nacl_sdk/pepper_42/toolchain/linux_arm_newlib/bin/../lib/gcc/arm-nacl/4.9.2/../../../../arm-nacl/lib/libcrt_common.a(lib_a-mprec.o)
 .ARM.attributes
                0x00000f34       0x37 /home/jfb/nacl_sdk/pepper_42/toolchain/linux_arm_newlib/bin/../lib/gcc/arm-nacl/4.9.2/../../../../arm-nacl/lib/libcrt_common.a(lib_a-s_fpclassify.o)
 .ARM.attributes
                0x00000f6b       0x37 /home/jfb/nacl_sdk/pepper_42/toolchain/linux_arm_newlib/bin/../lib/gcc/arm-nacl/4.9.2/../../../../arm-nacl/lib/libcrt_common.a(lib_a-s_frexp.o)
 .ARM.attributes
                0x00000fa2       0x37 /home/jfb/nacl_sdk/pepper_42/toolchain/linux_arm_newlib/bin/../lib/gcc/arm-nacl/4.9.2/../../../../arm-nacl/lib/libcrt_common.a(lib_a-strcasecmp.o)
 .ARM.attributes
                0x00000fd9       0x37 /home/jfb/nacl_sdk/pepper_42/toolchain/linux_arm_newlib/bin/../lib/gcc/arm-nacl/4.9.2/../../../../arm-nacl/lib/libcrt_common.a(lib_a-strcat.o)
 .ARM.attributes
                0x00001010       0x37 /home/jfb/nacl_sdk/pepper_42/toolchain/linux_arm_newlib/bin/../lib/gcc/arm-nacl/4.9.2/../../../../arm-nacl/lib/libcrt_common.a(lib_a-strchr.o)
 .ARM.attributes
                0x00001047       0x37 /home/jfb/nacl_sdk/pepper_42/toolchain/linux_arm_newlib/bin/../lib/gcc/arm-nacl/4.9.2/../../../../arm-nacl/lib/libcrt_common.a(lib_a-strcpy.o)
 .ARM.attributes
                0x0000107e       0x37 /home/jfb/nacl_sdk/pepper_42/toolchain/linux_arm_newlib/bin/../lib/gcc/arm-nacl/4.9.2/../../../../arm-nacl/lib/libcrt_common.a(lib_a-strlcpy.o)
 .ARM.attributes
                0x000010b5       0x37 /home/jfb/nacl_sdk/pepper_42/toolchain/linux_arm_newlib/bin/../lib/gcc/arm-nacl/4.9.2/../../../../arm-nacl/lib/libcrt_common.a(lib_a-strncasecmp.o)
 .ARM.attributes
                0x000010ec       0x37 /home/jfb/nacl_sdk/pepper_42/toolchain/linux_arm_newlib/bin/../lib/gcc/arm-nacl/4.9.2/../../../../arm-nacl/lib/libcrt_common.a(lib_a-strncpy.o)
 .ARM.attributes
                0x00001123       0x37 /home/jfb/nacl_sdk/pepper_42/toolchain/linux_arm_newlib/bin/../lib/gcc/arm-nacl/4.9.2/../../../../arm-nacl/lib/libcrt_common.a(lib_a-strtol.o)
 .ARM.attributes
                0x0000115a       0x37 /home/jfb/nacl_sdk/pepper_42/toolchain/linux_arm_newlib/bin/../lib/gcc/arm-nacl/4.9.2/../../../../arm-nacl/lib/libcrt_common.a(lib_a-svfprintf.o)
 .ARM.attributes
                0x00001191       0x37 /home/jfb/nacl_sdk/pepper_42/toolchain/linux_arm_newlib/bin/../lib/gcc/arm-nacl/4.9.2/../../../../arm-nacl/lib/libcrt_common.a(lib_a-vfiprintf.o)
 .ARM.attributes
                0x000011c8       0x37 /home/jfb/nacl_sdk/pepper_42/toolchain/linux_arm_newlib/bin/../lib/gcc/arm-nacl/4.9.2/../../../../arm-nacl/lib/libcrt_common.a(lib_a-wcsnrtombs.o)
 .ARM.attributes
                0x000011ff       0x37 /home/jfb/nacl_sdk/pepper_42/toolchain/linux_arm_newlib/bin/../lib/gcc/arm-nacl/4.9.2/../../../../arm-nacl/lib/libcrt_common.a(lib_a-ctype_.o)
 .ARM.attributes
                0x00001236       0x37 /home/jfb/nacl_sdk/pepper_42/toolchain/linux_arm_newlib/bin/../lib/gcc/arm-nacl/4.9.2/../../../../arm-nacl/lib/libcrt_common.a(lib_a-fputwc.o)
 .ARM.attributes
                0x0000126d       0x37 /home/jfb/nacl_sdk/pepper_42/toolchain/linux_arm_newlib/bin/../lib/gcc/arm-nacl/4.9.2/../../../../arm-nacl/lib/libcrt_common.a(lib_a-svfiprintf.o)
 .ARM.attributes
                0x000012a4       0x37 /home/jfb/nacl_sdk/pepper_42/toolchain/linux_arm_newlib/bin/../lib/gcc/arm-nacl/4.9.2/../../../../arm-nacl/lib/libcrt_common.a(lib_a-wbuf.o)
 .ARM.attributes
                0x000012db       0x37 /home/jfb/nacl_sdk/pepper_42/toolchain/linux_arm_newlib/bin/../lib/gcc/arm-nacl/4.9.2/../../../../arm-nacl/lib/libnacl.a(close_e9b92fbd.o)
 .ARM.attributes
                0x00001312       0x37 /home/jfb/nacl_sdk/pepper_42/toolchain/linux_arm_newlib/bin/../lib/gcc/arm-nacl/4.9.2/../../../../arm-nacl/lib/libnacl.a(isatty_02f56e94.o)
 .ARM.attributes
                0x00001349       0x37 /home/jfb/nacl_sdk/pepper_42/toolchain/linux_arm_newlib/bin/../lib/gcc/arm-nacl/4.9.2/../../../../arm-nacl/lib/libnacl.a(nacl_irt_fdio_b571b5e7.o)
 .ARM.attributes
                0x00001380       0x37 /home/jfb/nacl_sdk/pepper_42/toolchain/linux_arm_newlib/bin/../lib/gcc/arm-nacl/4.9.2/../../../../arm-nacl/lib/libnacl.a(fstat_0540ff63.o)
 .ARM.attributes
                0x000013b7       0x37 /home/jfb/nacl_sdk/pepper_42/toolchain/linux_arm_newlib/bin/../lib/gcc/arm-nacl/4.9.2/../../../../arm-nacl/lib/libnacl.a(lseek_64d2d05c.o)
 .ARM.attributes
                0x000013ee       0x37 /home/jfb/nacl_sdk/pepper_42/toolchain/linux_arm_newlib/bin/../lib/gcc/arm-nacl/4.9.2/../../../../arm-nacl/lib/libnacl.a(read_df872e10.o)
 .ARM.attributes
                0x00001425       0x37 /home/jfb/nacl_sdk/pepper_42/toolchain/linux_arm_newlib/bin/../lib/gcc/arm-nacl/4.9.2/../../../../arm-nacl/lib/libnacl.a(nanosleep_e59fdef1.o)
 .ARM.attributes
                0x0000145c       0x18 /home/jfb/nacl_sdk/pepper_42/toolchain/linux_arm_newlib/bin/../lib/gcc/arm-nacl/4.9.2/libgcc.a(_udivsi3.o)
 .ARM.attributes
                0x00001474       0x18 /home/jfb/nacl_sdk/pepper_42/toolchain/linux_arm_newlib/bin/../lib/gcc/arm-nacl/4.9.2/libgcc.a(_divsi3.o)
 .ARM.attributes
                0x0000148c       0x18 /home/jfb/nacl_sdk/pepper_42/toolchain/linux_arm_newlib/bin/../lib/gcc/arm-nacl/4.9.2/libgcc.a(_aeabi_uldivmod.o)
 .ARM.attributes
                0x000014a4       0x18 /home/jfb/nacl_sdk/pepper_42/toolchain/linux_arm_newlib/bin/../lib/gcc/arm-nacl/4.9.2/libgcc.a(_dvmd_nacl.o)
 .ARM.attributes
                0x000014bc       0x37 /home/jfb/nacl_sdk/pepper_42/toolchain/linux_arm_newlib/bin/../lib/gcc/arm-nacl/4.9.2/libgcc.a(bpabi.o)
 .ARM.attributes
                0x000014f3       0x37 /home/jfb/nacl_sdk/pepper_42/toolchain/linux_arm_newlib/bin/../lib/gcc/arm-nacl/4.9.2/libgcc.a(_divdi3.o)
 .ARM.attributes
                0x0000152a       0x37 /home/jfb/nacl_sdk/pepper_42/toolchain/linux_arm_newlib/bin/../lib/gcc/arm-nacl/4.9.2/libgcc.a(_udivdi3.o)
 .ARM.attributes
                0x00001561       0x37 /home/jfb/nacl_sdk/pepper_42/toolchain/linux_arm_newlib/bin/../lib/gcc/arm-nacl/4.9.2/crtend.o
 .ARM.attributes
                0x00001598       0x16 /home/jfb/nacl_sdk/pepper_42/toolchain/linux_arm_newlib/bin/../lib/gcc/arm-nacl/4.9.2/../../../../arm-nacl/lib/crtn.o

.debug
 *(.debug)

.line
 *(.line)

.debug_srcinfo
 *(.debug_srcinfo)

.debug_sfnames
 *(.debug_sfnames)

.debug_aranges  0x00000000      0x5e0
 *(.debug_aranges)
 .debug_aranges
                0x00000000       0x20 newlib/Release/debugging_arm.o
 .debug_aranges
                0x00000020       0x20 /home/jfb/nacl_sdk/pepper_42//lib/newlib_arm/Release/liberror_handling.a(error_handling_arm.o)
 .debug_aranges
                0x00000040       0x20 /home/jfb/nacl_sdk/pepper_42//lib/newlib_arm/Release/liberror_handling.a(string_stream_arm.o)
 .debug_aranges
                0x00000060       0x20 /home/jfb/nacl_sdk/pepper_42/toolchain/linux_arm_newlib/bin/../lib/gcc/arm-nacl/4.9.2/../../../../arm-nacl/lib/libppapi_stub.a(plugin_main_irt_21ce9d26.o)
 .debug_aranges
                0x00000080       0x20 /home/jfb/nacl_sdk/pepper_42/toolchain/linux_arm_newlib/bin/../lib/gcc/arm-nacl/4.9.2/../../../../arm-nacl/lib/libppapi_stub.a(ppapi_plugin_main_399d0cf7.o)
 .debug_aranges
                0x000000a0       0x28 /home/jfb/nacl_sdk/pepper_42/toolchain/linux_arm_newlib/bin/../lib/gcc/arm-nacl/4.9.2/../../../../arm-nacl/lib/libppapi_stub.a(ppapi_plugin_start_8da67623.o)
 .debug_aranges
                0x000000c8       0x20 /home/jfb/nacl_sdk/pepper_42/toolchain/linux_arm_newlib/bin/../lib/gcc/arm-nacl/4.9.2/../../../../arm-nacl/lib/libppapi_stub.a(thread_creator_ccf263e1.o)
 .debug_aranges
                0x000000e8       0x20 /home/jfb/nacl_sdk/pepper_42/toolchain/linux_arm_newlib/bin/../lib/gcc/arm-nacl/4.9.2/../../../../arm-nacl/lib/libpthread.a(nc_thread_7e478b15.o)
 .debug_aranges
                0x00000108       0x20 /home/jfb/nacl_sdk/pepper_42/toolchain/linux_arm_newlib/bin/../lib/gcc/arm-nacl/4.9.2/../../../../arm-nacl/lib/libpthread.a(nc_condvar_305aa45a.o)
 .debug_aranges
                0x00000128       0x20 /home/jfb/nacl_sdk/pepper_42/toolchain/linux_arm_newlib/bin/../lib/gcc/arm-nacl/4.9.2/../../../../arm-nacl/lib/libpthread.a(dynamic_annotations_33ba59cc.o)
 .debug_aranges
                0x00000148       0x20 /home/jfb/nacl_sdk/pepper_42/toolchain/linux_arm_newlib/bin/../lib/gcc/arm-nacl/4.9.2/../../../../arm-nacl/lib/libpthread.a(nc_mutex_86341ae1.o)
 .debug_aranges
                0x00000168       0x20 /home/jfb/nacl_sdk/pepper_42/toolchain/linux_arm_newlib/bin/../lib/gcc/arm-nacl/4.9.2/../../../../arm-nacl/lib/libpthread.a(nc_init_irt_d3daafc0.o)
 .debug_aranges
                0x00000188       0x20 /home/jfb/nacl_sdk/pepper_42/toolchain/linux_arm_newlib/bin/../lib/gcc/arm-nacl/4.9.2/libgcc.a(unwind-arm.o)
 .debug_aranges
                0x000001a8       0x20 /home/jfb/nacl_sdk/pepper_42/toolchain/linux_arm_newlib/bin/../lib/gcc/arm-nacl/4.9.2/libgcc.a(libunwind.o)
 .debug_aranges
                0x000001c8       0x20 /home/jfb/nacl_sdk/pepper_42/toolchain/linux_arm_newlib/bin/../lib/gcc/arm-nacl/4.9.2/libgcc.a(pr-support.o)
 .debug_aranges
                0x000001e8       0x20 /home/jfb/nacl_sdk/pepper_42/toolchain/linux_arm_newlib/bin/../lib/gcc/arm-nacl/4.9.2/../../../../arm-nacl/lib/libnacl.a(_exit_710c7d0d.o)
 .debug_aranges
                0x00000208       0x20 /home/jfb/nacl_sdk/pepper_42/toolchain/linux_arm_newlib/bin/../lib/gcc/arm-nacl/4.9.2/../../../../arm-nacl/lib/libnacl.a(abort_9f6b5845.o)
 .debug_aranges
                0x00000228       0x18 /home/jfb/nacl_sdk/pepper_42/toolchain/linux_arm_newlib/bin/../lib/gcc/arm-nacl/4.9.2/../../../../arm-nacl/lib/libnacl.a(environ_25cd24d8.o)
 .debug_aranges
                0x00000240       0x20 /home/jfb/nacl_sdk/pepper_42/toolchain/linux_arm_newlib/bin/../lib/gcc/arm-nacl/4.9.2/../../../../arm-nacl/lib/libnacl.a(start_fa9ef7de.o)
 .debug_aranges
                0x00000260       0x20 /home/jfb/nacl_sdk/pepper_42/toolchain/linux_arm_newlib/bin/../lib/gcc/arm-nacl/4.9.2/../../../../arm-nacl/lib/libnacl.a(malloc_222c4a1e.o)
 .debug_aranges
                0x00000280       0x20 /home/jfb/nacl_sdk/pepper_42/toolchain/linux_arm_newlib/bin/../lib/gcc/arm-nacl/4.9.2/../../../../arm-nacl/lib/libnacl.a(nacl_irt_6de1d53f.o)
 .debug_aranges
                0x000002a0       0x20 /home/jfb/nacl_sdk/pepper_42/toolchain/linux_arm_newlib/bin/../lib/gcc/arm-nacl/4.9.2/../../../../arm-nacl/lib/libnacl.a(pthread_initialize_minimal_4b6e776b.o)
 .debug_aranges
                0x000002c0       0x20 /home/jfb/nacl_sdk/pepper_42/toolchain/linux_arm_newlib/bin/../lib/gcc/arm-nacl/4.9.2/../../../../arm-nacl/lib/libnacl.a(nacl_read_tp_5748ac47.o)
 .debug_aranges
                0x000002e0       0x20 /home/jfb/nacl_sdk/pepper_42/toolchain/linux_arm_newlib/bin/../lib/gcc/arm-nacl/4.9.2/../../../../arm-nacl/lib/libnacl.a(nacl_interface_query_ef8a99f1.o)
 .debug_aranges
                0x00000300       0x20 /home/jfb/nacl_sdk/pepper_42/toolchain/linux_arm_newlib/bin/../lib/gcc/arm-nacl/4.9.2/../../../../arm-nacl/lib/libnacl.a(mmap_767fb080.o)
 .debug_aranges
                0x00000320       0x20 /home/jfb/nacl_sdk/pepper_42/toolchain/linux_arm_newlib/bin/../lib/gcc/arm-nacl/4.9.2/../../../../arm-nacl/lib/libnacl.a(sched_yield_56c375be.o)
 .debug_aranges
                0x00000340       0x20 /home/jfb/nacl_sdk/pepper_42/toolchain/linux_arm_newlib/bin/../lib/gcc/arm-nacl/4.9.2/../../../../arm-nacl/lib/libnacl.a(munmap_d4f09867.o)
 .debug_aranges
                0x00000360       0x20 /home/jfb/nacl_sdk/pepper_42/toolchain/linux_arm_newlib/bin/../lib/gcc/arm-nacl/4.9.2/../../../../arm-nacl/lib/libnacl.a(tls_bba1975b.o)
 .debug_aranges
                0x00000380       0x20 /home/jfb/nacl_sdk/pepper_42/toolchain/linux_arm_newlib/bin/../lib/gcc/arm-nacl/4.9.2/../../../../arm-nacl/lib/libnacl.a(write_fb49787f.o)
 .debug_aranges
                0x000003a0       0x20 /home/jfb/nacl_sdk/pepper_42/toolchain/linux_arm_newlib/bin/../lib/gcc/arm-nacl/4.9.2/../../../../arm-nacl/lib/libnacl.a(nacl_tls_get_d2f842b5.o)
 .debug_aranges
                0x000003c0       0x20 /home/jfb/nacl_sdk/pepper_42/toolchain/linux_arm_newlib/bin/../lib/gcc/arm-nacl/4.9.2/../../../../arm-nacl/lib/libnacl.a(nacl_irt_init_7b4f826e.o)
 .debug_aranges
                0x000003e0       0x20 /home/jfb/nacl_sdk/pepper_42/toolchain/linux_arm_newlib/bin/../lib/gcc/arm-nacl/4.9.2/../../../../arm-nacl/lib/libnacl.a(sysconf_ad295ea2.o)
 .debug_aranges
                0x00000400       0x20 /home/jfb/nacl_sdk/pepper_42/toolchain/linux_arm_newlib/bin/../lib/gcc/arm-nacl/4.9.2/../../../../arm-nacl/lib/libnacl.a(nacl_tls_init_eb0cd232.o)
 .debug_aranges
                0x00000420       0x20 /home/jfb/nacl_sdk/pepper_42/toolchain/linux_arm_newlib/bin/../lib/gcc/arm-nacl/4.9.2/../../../../arm-nacl/lib/libnacl.a(close_e9b92fbd.o)
 .debug_aranges
                0x00000440       0x20 /home/jfb/nacl_sdk/pepper_42/toolchain/linux_arm_newlib/bin/../lib/gcc/arm-nacl/4.9.2/../../../../arm-nacl/lib/libnacl.a(isatty_02f56e94.o)
 .debug_aranges
                0x00000460       0x20 /home/jfb/nacl_sdk/pepper_42/toolchain/linux_arm_newlib/bin/../lib/gcc/arm-nacl/4.9.2/../../../../arm-nacl/lib/libnacl.a(nacl_irt_fdio_b571b5e7.o)
 .debug_aranges
                0x00000480       0x20 /home/jfb/nacl_sdk/pepper_42/toolchain/linux_arm_newlib/bin/../lib/gcc/arm-nacl/4.9.2/../../../../arm-nacl/lib/libnacl.a(fstat_0540ff63.o)
 .debug_aranges
                0x000004a0       0x20 /home/jfb/nacl_sdk/pepper_42/toolchain/linux_arm_newlib/bin/../lib/gcc/arm-nacl/4.9.2/../../../../arm-nacl/lib/libnacl.a(lseek_64d2d05c.o)
 .debug_aranges
                0x000004c0       0x20 /home/jfb/nacl_sdk/pepper_42/toolchain/linux_arm_newlib/bin/../lib/gcc/arm-nacl/4.9.2/../../../../arm-nacl/lib/libnacl.a(read_df872e10.o)
 .debug_aranges
                0x000004e0       0x20 /home/jfb/nacl_sdk/pepper_42/toolchain/linux_arm_newlib/bin/../lib/gcc/arm-nacl/4.9.2/../../../../arm-nacl/lib/libnacl.a(nanosleep_e59fdef1.o)
 .debug_aranges
                0x00000500       0x20 /home/jfb/nacl_sdk/pepper_42/toolchain/linux_arm_newlib/bin/../lib/gcc/arm-nacl/4.9.2/libgcc.a(_udivsi3.o)
 .debug_aranges
                0x00000520       0x20 /home/jfb/nacl_sdk/pepper_42/toolchain/linux_arm_newlib/bin/../lib/gcc/arm-nacl/4.9.2/libgcc.a(_divsi3.o)
 .debug_aranges
                0x00000540       0x20 /home/jfb/nacl_sdk/pepper_42/toolchain/linux_arm_newlib/bin/../lib/gcc/arm-nacl/4.9.2/libgcc.a(_aeabi_uldivmod.o)
 .debug_aranges
                0x00000560       0x20 /home/jfb/nacl_sdk/pepper_42/toolchain/linux_arm_newlib/bin/../lib/gcc/arm-nacl/4.9.2/libgcc.a(_dvmd_nacl.o)
 .debug_aranges
                0x00000580       0x20 /home/jfb/nacl_sdk/pepper_42/toolchain/linux_arm_newlib/bin/../lib/gcc/arm-nacl/4.9.2/libgcc.a(bpabi.o)
 .debug_aranges
                0x000005a0       0x20 /home/jfb/nacl_sdk/pepper_42/toolchain/linux_arm_newlib/bin/../lib/gcc/arm-nacl/4.9.2/libgcc.a(_divdi3.o)
 .debug_aranges
                0x000005c0       0x20 /home/jfb/nacl_sdk/pepper_42/toolchain/linux_arm_newlib/bin/../lib/gcc/arm-nacl/4.9.2/libgcc.a(_udivdi3.o)

.debug_pubnames
 *(.debug_pubnames)

.debug_info     0x00000000    0x13d5e
 *(.debug_info .gnu.linkonce.wi.*)
 .debug_info    0x00000000     0x1850 newlib/Release/debugging_arm.o
 .debug_info    0x00001850     0x1629 /home/jfb/nacl_sdk/pepper_42//lib/newlib_arm/Release/liberror_handling.a(error_handling_arm.o)
 .debug_info    0x00002e79      0x33a /home/jfb/nacl_sdk/pepper_42//lib/newlib_arm/Release/liberror_handling.a(string_stream_arm.o)
 .debug_info    0x000031b3       0xa8 /home/jfb/nacl_sdk/pepper_42/toolchain/linux_arm_newlib/bin/../lib/gcc/arm-nacl/4.9.2/../../../../arm-nacl/lib/libppapi_stub.a(plugin_main_irt_21ce9d26.o)
 .debug_info    0x0000325b      0x16b /home/jfb/nacl_sdk/pepper_42/toolchain/linux_arm_newlib/bin/../lib/gcc/arm-nacl/4.9.2/../../../../arm-nacl/lib/libppapi_stub.a(ppapi_plugin_main_399d0cf7.o)
 .debug_info    0x000033c6      0x4c7 /home/jfb/nacl_sdk/pepper_42/toolchain/linux_arm_newlib/bin/../lib/gcc/arm-nacl/4.9.2/../../../../arm-nacl/lib/libppapi_stub.a(ppapi_plugin_start_8da67623.o)
 .debug_info    0x0000388d      0x3c0 /home/jfb/nacl_sdk/pepper_42/toolchain/linux_arm_newlib/bin/../lib/gcc/arm-nacl/4.9.2/../../../../arm-nacl/lib/libppapi_stub.a(thread_creator_ccf263e1.o)
 .debug_info    0x00003c4d     0x1ef8 /home/jfb/nacl_sdk/pepper_42/toolchain/linux_arm_newlib/bin/../lib/gcc/arm-nacl/4.9.2/../../../../arm-nacl/lib/libpthread.a(nc_thread_7e478b15.o)
 .debug_info    0x00005b45      0x66d /home/jfb/nacl_sdk/pepper_42/toolchain/linux_arm_newlib/bin/../lib/gcc/arm-nacl/4.9.2/../../../../arm-nacl/lib/libpthread.a(nc_condvar_305aa45a.o)
 .debug_info    0x000061b2      0xa68 /home/jfb/nacl_sdk/pepper_42/toolchain/linux_arm_newlib/bin/../lib/gcc/arm-nacl/4.9.2/../../../../arm-nacl/lib/libpthread.a(dynamic_annotations_33ba59cc.o)
 .debug_info    0x00006c1a      0x914 /home/jfb/nacl_sdk/pepper_42/toolchain/linux_arm_newlib/bin/../lib/gcc/arm-nacl/4.9.2/../../../../arm-nacl/lib/libpthread.a(nc_mutex_86341ae1.o)
 .debug_info    0x0000752e      0x288 /home/jfb/nacl_sdk/pepper_42/toolchain/linux_arm_newlib/bin/../lib/gcc/arm-nacl/4.9.2/../../../../arm-nacl/lib/libpthread.a(nc_init_irt_d3daafc0.o)
 .debug_info    0x000077b6     0x1c6a /home/jfb/nacl_sdk/pepper_42/toolchain/linux_arm_newlib/bin/../lib/gcc/arm-nacl/4.9.2/libgcc.a(unwind-arm.o)
 .debug_info    0x00009420       0xce /home/jfb/nacl_sdk/pepper_42/toolchain/linux_arm_newlib/bin/../lib/gcc/arm-nacl/4.9.2/libgcc.a(libunwind.o)
 .debug_info    0x000094ee      0xa58 /home/jfb/nacl_sdk/pepper_42/toolchain/linux_arm_newlib/bin/../lib/gcc/arm-nacl/4.9.2/libgcc.a(pr-support.o)
 .debug_info    0x00009f46      0x22a /home/jfb/nacl_sdk/pepper_42/toolchain/linux_arm_newlib/bin/../lib/gcc/arm-nacl/4.9.2/../../../../arm-nacl/lib/libnacl.a(_exit_710c7d0d.o)
 .debug_info    0x0000a170      0x100 /home/jfb/nacl_sdk/pepper_42/toolchain/linux_arm_newlib/bin/../lib/gcc/arm-nacl/4.9.2/../../../../arm-nacl/lib/libnacl.a(abort_9f6b5845.o)
 .debug_info    0x0000a270       0x6a /home/jfb/nacl_sdk/pepper_42/toolchain/linux_arm_newlib/bin/../lib/gcc/arm-nacl/4.9.2/../../../../arm-nacl/lib/libnacl.a(environ_25cd24d8.o)
 .debug_info    0x0000a2da      0x3ce /home/jfb/nacl_sdk/pepper_42/toolchain/linux_arm_newlib/bin/../lib/gcc/arm-nacl/4.9.2/../../../../arm-nacl/lib/libnacl.a(start_fa9ef7de.o)
 .debug_info    0x0000a6a8     0x4955 /home/jfb/nacl_sdk/pepper_42/toolchain/linux_arm_newlib/bin/../lib/gcc/arm-nacl/4.9.2/../../../../arm-nacl/lib/libnacl.a(malloc_222c4a1e.o)
 .debug_info    0x0000effd      0xcf5 /home/jfb/nacl_sdk/pepper_42/toolchain/linux_arm_newlib/bin/../lib/gcc/arm-nacl/4.9.2/../../../../arm-nacl/lib/libnacl.a(nacl_irt_6de1d53f.o)
 .debug_info    0x0000fcf2      0x1f3 /home/jfb/nacl_sdk/pepper_42/toolchain/linux_arm_newlib/bin/../lib/gcc/arm-nacl/4.9.2/../../../../arm-nacl/lib/libnacl.a(pthread_initialize_minimal_4b6e776b.o)
 .debug_info    0x0000fee5       0xaa /home/jfb/nacl_sdk/pepper_42/toolchain/linux_arm_newlib/bin/../lib/gcc/arm-nacl/4.9.2/../../../../arm-nacl/lib/libnacl.a(nacl_read_tp_5748ac47.o)
 .debug_info    0x0000ff8f      0x129 /home/jfb/nacl_sdk/pepper_42/toolchain/linux_arm_newlib/bin/../lib/gcc/arm-nacl/4.9.2/../../../../arm-nacl/lib/libnacl.a(nacl_interface_query_ef8a99f1.o)
 .debug_info    0x000100b8      0x239 /home/jfb/nacl_sdk/pepper_42/toolchain/linux_arm_newlib/bin/../lib/gcc/arm-nacl/4.9.2/../../../../arm-nacl/lib/libnacl.a(mmap_767fb080.o)
 .debug_info    0x000102f1      0x235 /home/jfb/nacl_sdk/pepper_42/toolchain/linux_arm_newlib/bin/../lib/gcc/arm-nacl/4.9.2/../../../../arm-nacl/lib/libnacl.a(sched_yield_56c375be.o)
 .debug_info    0x00010526      0x1ca /home/jfb/nacl_sdk/pepper_42/toolchain/linux_arm_newlib/bin/../lib/gcc/arm-nacl/4.9.2/../../../../arm-nacl/lib/libnacl.a(munmap_d4f09867.o)
 .debug_info    0x000106f0      0x8ed /home/jfb/nacl_sdk/pepper_42/toolchain/linux_arm_newlib/bin/../lib/gcc/arm-nacl/4.9.2/../../../../arm-nacl/lib/libnacl.a(tls_bba1975b.o)
 .debug_info    0x00010fdd      0x2df /home/jfb/nacl_sdk/pepper_42/toolchain/linux_arm_newlib/bin/../lib/gcc/arm-nacl/4.9.2/../../../../arm-nacl/lib/libnacl.a(write_fb49787f.o)
 .debug_info    0x000112bc       0xe4 /home/jfb/nacl_sdk/pepper_42/toolchain/linux_arm_newlib/bin/../lib/gcc/arm-nacl/4.9.2/../../../../arm-nacl/lib/libnacl.a(nacl_tls_get_d2f842b5.o)
 .debug_info    0x000113a0      0x75e /home/jfb/nacl_sdk/pepper_42/toolchain/linux_arm_newlib/bin/../lib/gcc/arm-nacl/4.9.2/../../../../arm-nacl/lib/libnacl.a(nacl_irt_init_7b4f826e.o)
 .debug_info    0x00011afe      0x269 /home/jfb/nacl_sdk/pepper_42/toolchain/linux_arm_newlib/bin/../lib/gcc/arm-nacl/4.9.2/../../../../arm-nacl/lib/libnacl.a(sysconf_ad295ea2.o)
 .debug_info    0x00011d67      0x105 /home/jfb/nacl_sdk/pepper_42/toolchain/linux_arm_newlib/bin/../lib/gcc/arm-nacl/4.9.2/../../../../arm-nacl/lib/libnacl.a(nacl_tls_init_eb0cd232.o)
 .debug_info    0x00011e6c      0x29f /home/jfb/nacl_sdk/pepper_42/toolchain/linux_arm_newlib/bin/../lib/gcc/arm-nacl/4.9.2/../../../../arm-nacl/lib/libnacl.a(close_e9b92fbd.o)
 .debug_info    0x0001210b      0x362 /home/jfb/nacl_sdk/pepper_42/toolchain/linux_arm_newlib/bin/../lib/gcc/arm-nacl/4.9.2/../../../../arm-nacl/lib/libnacl.a(isatty_02f56e94.o)
 .debug_info    0x0001246d      0x358 /home/jfb/nacl_sdk/pepper_42/toolchain/linux_arm_newlib/bin/../lib/gcc/arm-nacl/4.9.2/../../../../arm-nacl/lib/libnacl.a(nacl_irt_fdio_b571b5e7.o)
 .debug_info    0x000127c5      0x48e /home/jfb/nacl_sdk/pepper_42/toolchain/linux_arm_newlib/bin/../lib/gcc/arm-nacl/4.9.2/../../../../arm-nacl/lib/libnacl.a(fstat_0540ff63.o)
 .debug_info    0x00012c53      0x2fd /home/jfb/nacl_sdk/pepper_42/toolchain/linux_arm_newlib/bin/../lib/gcc/arm-nacl/4.9.2/../../../../arm-nacl/lib/libnacl.a(lseek_64d2d05c.o)
 .debug_info    0x00012f50      0x2df /home/jfb/nacl_sdk/pepper_42/toolchain/linux_arm_newlib/bin/../lib/gcc/arm-nacl/4.9.2/../../../../arm-nacl/lib/libnacl.a(read_df872e10.o)
 .debug_info    0x0001322f      0x26b /home/jfb/nacl_sdk/pepper_42/toolchain/linux_arm_newlib/bin/../lib/gcc/arm-nacl/4.9.2/../../../../arm-nacl/lib/libnacl.a(nanosleep_e59fdef1.o)
 .debug_info    0x0001349a       0xce /home/jfb/nacl_sdk/pepper_42/toolchain/linux_arm_newlib/bin/../lib/gcc/arm-nacl/4.9.2/libgcc.a(_udivsi3.o)
 .debug_info    0x00013568       0xce /home/jfb/nacl_sdk/pepper_42/toolchain/linux_arm_newlib/bin/../lib/gcc/arm-nacl/4.9.2/libgcc.a(_divsi3.o)
 .debug_info    0x00013636       0xca /home/jfb/nacl_sdk/pepper_42/toolchain/linux_arm_newlib/bin/../lib/gcc/arm-nacl/4.9.2/libgcc.a(_aeabi_uldivmod.o)
 .debug_info    0x00013700       0xce /home/jfb/nacl_sdk/pepper_42/toolchain/linux_arm_newlib/bin/../lib/gcc/arm-nacl/4.9.2/libgcc.a(_dvmd_nacl.o)
 .debug_info    0x000137ce      0x164 /home/jfb/nacl_sdk/pepper_42/toolchain/linux_arm_newlib/bin/../lib/gcc/arm-nacl/4.9.2/libgcc.a(bpabi.o)
 .debug_info    0x00013932      0x265 /home/jfb/nacl_sdk/pepper_42/toolchain/linux_arm_newlib/bin/../lib/gcc/arm-nacl/4.9.2/libgcc.a(_divdi3.o)
 .debug_info    0x00013b97      0x1c7 /home/jfb/nacl_sdk/pepper_42/toolchain/linux_arm_newlib/bin/../lib/gcc/arm-nacl/4.9.2/libgcc.a(_udivdi3.o)

.debug_abbrev   0x00000000     0x45a1
 *(.debug_abbrev)
 .debug_abbrev  0x00000000      0x42e newlib/Release/debugging_arm.o
 .debug_abbrev  0x0000042e      0x401 /home/jfb/nacl_sdk/pepper_42//lib/newlib_arm/Release/liberror_handling.a(error_handling_arm.o)
 .debug_abbrev  0x0000082f      0x1b9 /home/jfb/nacl_sdk/pepper_42//lib/newlib_arm/Release/liberror_handling.a(string_stream_arm.o)
 .debug_abbrev  0x000009e8       0x67 /home/jfb/nacl_sdk/pepper_42/toolchain/linux_arm_newlib/bin/../lib/gcc/arm-nacl/4.9.2/../../../../arm-nacl/lib/libppapi_stub.a(plugin_main_irt_21ce9d26.o)
 .debug_abbrev  0x00000a4f       0xdb /home/jfb/nacl_sdk/pepper_42/toolchain/linux_arm_newlib/bin/../lib/gcc/arm-nacl/4.9.2/../../../../arm-nacl/lib/libppapi_stub.a(ppapi_plugin_main_399d0cf7.o)
 .debug_abbrev  0x00000b2a      0x1d8 /home/jfb/nacl_sdk/pepper_42/toolchain/linux_arm_newlib/bin/../lib/gcc/arm-nacl/4.9.2/../../../../arm-nacl/lib/libppapi_stub.a(ppapi_plugin_start_8da67623.o)
 .debug_abbrev  0x00000d02      0x161 /home/jfb/nacl_sdk/pepper_42/toolchain/linux_arm_newlib/bin/../lib/gcc/arm-nacl/4.9.2/../../../../arm-nacl/lib/libppapi_stub.a(thread_creator_ccf263e1.o)
 .debug_abbrev  0x00000e63      0x57d /home/jfb/nacl_sdk/pepper_42/toolchain/linux_arm_newlib/bin/../lib/gcc/arm-nacl/4.9.2/../../../../arm-nacl/lib/libpthread.a(nc_thread_7e478b15.o)
 .debug_abbrev  0x000013e0      0x232 /home/jfb/nacl_sdk/pepper_42/toolchain/linux_arm_newlib/bin/../lib/gcc/arm-nacl/4.9.2/../../../../arm-nacl/lib/libpthread.a(nc_condvar_305aa45a.o)
 .debug_abbrev  0x00001612      0x14a /home/jfb/nacl_sdk/pepper_42/toolchain/linux_arm_newlib/bin/../lib/gcc/arm-nacl/4.9.2/../../../../arm-nacl/lib/libpthread.a(dynamic_annotations_33ba59cc.o)
 .debug_abbrev  0x0000175c      0x2e0 /home/jfb/nacl_sdk/pepper_42/toolchain/linux_arm_newlib/bin/../lib/gcc/arm-nacl/4.9.2/../../../../arm-nacl/lib/libpthread.a(nc_mutex_86341ae1.o)
 .debug_abbrev  0x00001a3c      0x118 /home/jfb/nacl_sdk/pepper_42/toolchain/linux_arm_newlib/bin/../lib/gcc/arm-nacl/4.9.2/../../../../arm-nacl/lib/libpthread.a(nc_init_irt_d3daafc0.o)
 .debug_abbrev  0x00001b54      0x43a /home/jfb/nacl_sdk/pepper_42/toolchain/linux_arm_newlib/bin/../lib/gcc/arm-nacl/4.9.2/libgcc.a(unwind-arm.o)
 .debug_abbrev  0x00001f8e       0x14 /home/jfb/nacl_sdk/pepper_42/toolchain/linux_arm_newlib/bin/../lib/gcc/arm-nacl/4.9.2/libgcc.a(libunwind.o)
 .debug_abbrev  0x00001fa2      0x26e /home/jfb/nacl_sdk/pepper_42/toolchain/linux_arm_newlib/bin/../lib/gcc/arm-nacl/4.9.2/libgcc.a(pr-support.o)
 .debug_abbrev  0x00002210       0xd8 /home/jfb/nacl_sdk/pepper_42/toolchain/linux_arm_newlib/bin/../lib/gcc/arm-nacl/4.9.2/../../../../arm-nacl/lib/libnacl.a(_exit_710c7d0d.o)
 .debug_abbrev  0x000022e8       0xb8 /home/jfb/nacl_sdk/pepper_42/toolchain/linux_arm_newlib/bin/../lib/gcc/arm-nacl/4.9.2/../../../../arm-nacl/lib/libnacl.a(abort_9f6b5845.o)
 .debug_abbrev  0x000023a0       0x56 /home/jfb/nacl_sdk/pepper_42/toolchain/linux_arm_newlib/bin/../lib/gcc/arm-nacl/4.9.2/../../../../arm-nacl/lib/libnacl.a(environ_25cd24d8.o)
 .debug_abbrev  0x000023f6      0x1f0 /home/jfb/nacl_sdk/pepper_42/toolchain/linux_arm_newlib/bin/../lib/gcc/arm-nacl/4.9.2/../../../../arm-nacl/lib/libnacl.a(start_fa9ef7de.o)
 .debug_abbrev  0x000025e6      0x4ce /home/jfb/nacl_sdk/pepper_42/toolchain/linux_arm_newlib/bin/../lib/gcc/arm-nacl/4.9.2/../../../../arm-nacl/lib/libnacl.a(malloc_222c4a1e.o)
 .debug_abbrev  0x00002ab4      0x29c /home/jfb/nacl_sdk/pepper_42/toolchain/linux_arm_newlib/bin/../lib/gcc/arm-nacl/4.9.2/../../../../arm-nacl/lib/libnacl.a(nacl_irt_6de1d53f.o)
 .debug_abbrev  0x00002d50      0x111 /home/jfb/nacl_sdk/pepper_42/toolchain/linux_arm_newlib/bin/../lib/gcc/arm-nacl/4.9.2/../../../../arm-nacl/lib/libnacl.a(pthread_initialize_minimal_4b6e776b.o)
 .debug_abbrev  0x00002e61       0x6e /home/jfb/nacl_sdk/pepper_42/toolchain/linux_arm_newlib/bin/../lib/gcc/arm-nacl/4.9.2/../../../../arm-nacl/lib/libnacl.a(nacl_read_tp_5748ac47.o)
 .debug_abbrev  0x00002ecf       0xb4 /home/jfb/nacl_sdk/pepper_42/toolchain/linux_arm_newlib/bin/../lib/gcc/arm-nacl/4.9.2/../../../../arm-nacl/lib/libnacl.a(nacl_interface_query_ef8a99f1.o)
 .debug_abbrev  0x00002f83      0x109 /home/jfb/nacl_sdk/pepper_42/toolchain/linux_arm_newlib/bin/../lib/gcc/arm-nacl/4.9.2/../../../../arm-nacl/lib/libnacl.a(mmap_767fb080.o)
 .debug_abbrev  0x0000308c       0xe3 /home/jfb/nacl_sdk/pepper_42/toolchain/linux_arm_newlib/bin/../lib/gcc/arm-nacl/4.9.2/../../../../arm-nacl/lib/libnacl.a(sched_yield_56c375be.o)
 .debug_abbrev  0x0000316f       0xf7 /home/jfb/nacl_sdk/pepper_42/toolchain/linux_arm_newlib/bin/../lib/gcc/arm-nacl/4.9.2/../../../../arm-nacl/lib/libnacl.a(munmap_d4f09867.o)
 .debug_abbrev  0x00003266      0x2b1 /home/jfb/nacl_sdk/pepper_42/toolchain/linux_arm_newlib/bin/../lib/gcc/arm-nacl/4.9.2/../../../../arm-nacl/lib/libnacl.a(tls_bba1975b.o)
 .debug_abbrev  0x00003517      0x132 /home/jfb/nacl_sdk/pepper_42/toolchain/linux_arm_newlib/bin/../lib/gcc/arm-nacl/4.9.2/../../../../arm-nacl/lib/libnacl.a(write_fb49787f.o)
 .debug_abbrev  0x00003649       0x9b /home/jfb/nacl_sdk/pepper_42/toolchain/linux_arm_newlib/bin/../lib/gcc/arm-nacl/4.9.2/../../../../arm-nacl/lib/libnacl.a(nacl_tls_get_d2f842b5.o)
 .debug_abbrev  0x000036e4      0x21b /home/jfb/nacl_sdk/pepper_42/toolchain/linux_arm_newlib/bin/../lib/gcc/arm-nacl/4.9.2/../../../../arm-nacl/lib/libnacl.a(nacl_irt_init_7b4f826e.o)
 .debug_abbrev  0x000038ff      0x118 /home/jfb/nacl_sdk/pepper_42/toolchain/linux_arm_newlib/bin/../lib/gcc/arm-nacl/4.9.2/../../../../arm-nacl/lib/libnacl.a(sysconf_ad295ea2.o)
 .debug_abbrev  0x00003a17       0xc7 /home/jfb/nacl_sdk/pepper_42/toolchain/linux_arm_newlib/bin/../lib/gcc/arm-nacl/4.9.2/../../../../arm-nacl/lib/libnacl.a(nacl_tls_init_eb0cd232.o)
 .debug_abbrev  0x00003ade      0x114 /home/jfb/nacl_sdk/pepper_42/toolchain/linux_arm_newlib/bin/../lib/gcc/arm-nacl/4.9.2/../../../../arm-nacl/lib/libnacl.a(close_e9b92fbd.o)
 .debug_abbrev  0x00003bf2      0x13f /home/jfb/nacl_sdk/pepper_42/toolchain/linux_arm_newlib/bin/../lib/gcc/arm-nacl/4.9.2/../../../../arm-nacl/lib/libnacl.a(isatty_02f56e94.o)
 .debug_abbrev  0x00003d31      0x100 /home/jfb/nacl_sdk/pepper_42/toolchain/linux_arm_newlib/bin/../lib/gcc/arm-nacl/4.9.2/../../../../arm-nacl/lib/libnacl.a(nacl_irt_fdio_b571b5e7.o)
 .debug_abbrev  0x00003e31      0x114 /home/jfb/nacl_sdk/pepper_42/toolchain/linux_arm_newlib/bin/../lib/gcc/arm-nacl/4.9.2/../../../../arm-nacl/lib/libnacl.a(fstat_0540ff63.o)
 .debug_abbrev  0x00003f45      0x132 /home/jfb/nacl_sdk/pepper_42/toolchain/linux_arm_newlib/bin/../lib/gcc/arm-nacl/4.9.2/../../../../arm-nacl/lib/libnacl.a(lseek_64d2d05c.o)
 .debug_abbrev  0x00004077      0x132 /home/jfb/nacl_sdk/pepper_42/toolchain/linux_arm_newlib/bin/../lib/gcc/arm-nacl/4.9.2/../../../../arm-nacl/lib/libnacl.a(read_df872e10.o)
 .debug_abbrev  0x000041a9      0x109 /home/jfb/nacl_sdk/pepper_42/toolchain/linux_arm_newlib/bin/../lib/gcc/arm-nacl/4.9.2/../../../../arm-nacl/lib/libnacl.a(nanosleep_e59fdef1.o)
 .debug_abbrev  0x000042b2       0x14 /home/jfb/nacl_sdk/pepper_42/toolchain/linux_arm_newlib/bin/../lib/gcc/arm-nacl/4.9.2/libgcc.a(_udivsi3.o)
 .debug_abbrev  0x000042c6       0x14 /home/jfb/nacl_sdk/pepper_42/toolchain/linux_arm_newlib/bin/../lib/gcc/arm-nacl/4.9.2/libgcc.a(_divsi3.o)
 .debug_abbrev  0x000042da       0x14 /home/jfb/nacl_sdk/pepper_42/toolchain/linux_arm_newlib/bin/../lib/gcc/arm-nacl/4.9.2/libgcc.a(_aeabi_uldivmod.o)
 .debug_abbrev  0x000042ee       0x14 /home/jfb/nacl_sdk/pepper_42/toolchain/linux_arm_newlib/bin/../lib/gcc/arm-nacl/4.9.2/libgcc.a(_dvmd_nacl.o)
 .debug_abbrev  0x00004302       0xb7 /home/jfb/nacl_sdk/pepper_42/toolchain/linux_arm_newlib/bin/../lib/gcc/arm-nacl/4.9.2/libgcc.a(bpabi.o)
 .debug_abbrev  0x000043b9      0x121 /home/jfb/nacl_sdk/pepper_42/toolchain/linux_arm_newlib/bin/../lib/gcc/arm-nacl/4.9.2/libgcc.a(_divdi3.o)
 .debug_abbrev  0x000044da       0xc7 /home/jfb/nacl_sdk/pepper_42/toolchain/linux_arm_newlib/bin/../lib/gcc/arm-nacl/4.9.2/libgcc.a(_udivdi3.o)

.debug_line     0x00000000     0x7590
 *(.debug_line .debug_line.* .debug_line_end)
 .debug_line    0x00000000      0x43f newlib/Release/debugging_arm.o
 .debug_line    0x0000043f      0x4c1 /home/jfb/nacl_sdk/pepper_42//lib/newlib_arm/Release/liberror_handling.a(error_handling_arm.o)
 .debug_line    0x00000900      0x1e5 /home/jfb/nacl_sdk/pepper_42//lib/newlib_arm/Release/liberror_handling.a(string_stream_arm.o)
 .debug_line    0x00000ae5       0x8b /home/jfb/nacl_sdk/pepper_42/toolchain/linux_arm_newlib/bin/../lib/gcc/arm-nacl/4.9.2/../../../../arm-nacl/lib/libppapi_stub.a(plugin_main_irt_21ce9d26.o)
 .debug_line    0x00000b70      0x1f4 /home/jfb/nacl_sdk/pepper_42/toolchain/linux_arm_newlib/bin/../lib/gcc/arm-nacl/4.9.2/../../../../arm-nacl/lib/libppapi_stub.a(ppapi_plugin_main_399d0cf7.o)
 .debug_line    0x00000d64      0x3ad /home/jfb/nacl_sdk/pepper_42/toolchain/linux_arm_newlib/bin/../lib/gcc/arm-nacl/4.9.2/../../../../arm-nacl/lib/libppapi_stub.a(ppapi_plugin_start_8da67623.o)
 .debug_line    0x00001111      0x243 /home/jfb/nacl_sdk/pepper_42/toolchain/linux_arm_newlib/bin/../lib/gcc/arm-nacl/4.9.2/../../../../arm-nacl/lib/libppapi_stub.a(thread_creator_ccf263e1.o)
 .debug_line    0x00001354      0x7cf /home/jfb/nacl_sdk/pepper_42/toolchain/linux_arm_newlib/bin/../lib/gcc/arm-nacl/4.9.2/../../../../arm-nacl/lib/libpthread.a(nc_thread_7e478b15.o)
 .debug_line    0x00001b23      0x24e /home/jfb/nacl_sdk/pepper_42/toolchain/linux_arm_newlib/bin/../lib/gcc/arm-nacl/4.9.2/../../../../arm-nacl/lib/libpthread.a(nc_condvar_305aa45a.o)
 .debug_line    0x00001d71      0x134 /home/jfb/nacl_sdk/pepper_42/toolchain/linux_arm_newlib/bin/../lib/gcc/arm-nacl/4.9.2/../../../../arm-nacl/lib/libpthread.a(dynamic_annotations_33ba59cc.o)
 .debug_line    0x00001ea5      0x312 /home/jfb/nacl_sdk/pepper_42/toolchain/linux_arm_newlib/bin/../lib/gcc/arm-nacl/4.9.2/../../../../arm-nacl/lib/libpthread.a(nc_mutex_86341ae1.o)
 .debug_line    0x000021b7      0x250 /home/jfb/nacl_sdk/pepper_42/toolchain/linux_arm_newlib/bin/../lib/gcc/arm-nacl/4.9.2/../../../../arm-nacl/lib/libpthread.a(nc_init_irt_d3daafc0.o)
 .debug_line    0x00002407      0x588 /home/jfb/nacl_sdk/pepper_42/toolchain/linux_arm_newlib/bin/../lib/gcc/arm-nacl/4.9.2/libgcc.a(unwind-arm.o)
 .debug_line    0x0000298f       0x9a /home/jfb/nacl_sdk/pepper_42/toolchain/linux_arm_newlib/bin/../lib/gcc/arm-nacl/4.9.2/libgcc.a(libunwind.o)
 .debug_line    0x00002a29      0x212 /home/jfb/nacl_sdk/pepper_42/toolchain/linux_arm_newlib/bin/../lib/gcc/arm-nacl/4.9.2/libgcc.a(pr-support.o)
 .debug_line    0x00002c3b      0x24c /home/jfb/nacl_sdk/pepper_42/toolchain/linux_arm_newlib/bin/../lib/gcc/arm-nacl/4.9.2/../../../../arm-nacl/lib/libnacl.a(_exit_710c7d0d.o)
 .debug_line    0x00002e87      0x1b9 /home/jfb/nacl_sdk/pepper_42/toolchain/linux_arm_newlib/bin/../lib/gcc/arm-nacl/4.9.2/../../../../arm-nacl/lib/libnacl.a(abort_9f6b5845.o)
 .debug_line    0x00003040       0x30 /home/jfb/nacl_sdk/pepper_42/toolchain/linux_arm_newlib/bin/../lib/gcc/arm-nacl/4.9.2/../../../../arm-nacl/lib/libnacl.a(environ_25cd24d8.o)
 .debug_line    0x00003070      0x29d /home/jfb/nacl_sdk/pepper_42/toolchain/linux_arm_newlib/bin/../lib/gcc/arm-nacl/4.9.2/../../../../arm-nacl/lib/libnacl.a(start_fa9ef7de.o)
 .debug_line    0x0000330d      0xedd /home/jfb/nacl_sdk/pepper_42/toolchain/linux_arm_newlib/bin/../lib/gcc/arm-nacl/4.9.2/../../../../arm-nacl/lib/libnacl.a(malloc_222c4a1e.o)
 .debug_line    0x000041ea      0x2eb /home/jfb/nacl_sdk/pepper_42/toolchain/linux_arm_newlib/bin/../lib/gcc/arm-nacl/4.9.2/../../../../arm-nacl/lib/libnacl.a(nacl_irt_6de1d53f.o)
 .debug_line    0x000044d5      0x2c6 /home/jfb/nacl_sdk/pepper_42/toolchain/linux_arm_newlib/bin/../lib/gcc/arm-nacl/4.9.2/../../../../arm-nacl/lib/libnacl.a(pthread_initialize_minimal_4b6e776b.o)
 .debug_line    0x0000479b       0x7d /home/jfb/nacl_sdk/pepper_42/toolchain/linux_arm_newlib/bin/../lib/gcc/arm-nacl/4.9.2/../../../../arm-nacl/lib/libnacl.a(nacl_read_tp_5748ac47.o)
 .debug_line    0x00004818      0x140 /home/jfb/nacl_sdk/pepper_42/toolchain/linux_arm_newlib/bin/../lib/gcc/arm-nacl/4.9.2/../../../../arm-nacl/lib/libnacl.a(nacl_interface_query_ef8a99f1.o)
 .debug_line    0x00004958      0x2d8 /home/jfb/nacl_sdk/pepper_42/toolchain/linux_arm_newlib/bin/../lib/gcc/arm-nacl/4.9.2/../../../../arm-nacl/lib/libnacl.a(mmap_767fb080.o)
 .debug_line    0x00004c30      0x262 /home/jfb/nacl_sdk/pepper_42/toolchain/linux_arm_newlib/bin/../lib/gcc/arm-nacl/4.9.2/../../../../arm-nacl/lib/libnacl.a(sched_yield_56c375be.o)
 .debug_line    0x00004e92      0x2c2 /home/jfb/nacl_sdk/pepper_42/toolchain/linux_arm_newlib/bin/../lib/gcc/arm-nacl/4.9.2/../../../../arm-nacl/lib/libnacl.a(munmap_d4f09867.o)
 .debug_line    0x00005154      0x313 /home/jfb/nacl_sdk/pepper_42/toolchain/linux_arm_newlib/bin/../lib/gcc/arm-nacl/4.9.2/../../../../arm-nacl/lib/libnacl.a(tls_bba1975b.o)
 .debug_line    0x00005467      0x2c4 /home/jfb/nacl_sdk/pepper_42/toolchain/linux_arm_newlib/bin/../lib/gcc/arm-nacl/4.9.2/../../../../arm-nacl/lib/libnacl.a(write_fb49787f.o)
 .debug_line    0x0000572b       0xaf /home/jfb/nacl_sdk/pepper_42/toolchain/linux_arm_newlib/bin/../lib/gcc/arm-nacl/4.9.2/../../../../arm-nacl/lib/libnacl.a(nacl_tls_get_d2f842b5.o)
 .debug_line    0x000057da      0x327 /home/jfb/nacl_sdk/pepper_42/toolchain/linux_arm_newlib/bin/../lib/gcc/arm-nacl/4.9.2/../../../../arm-nacl/lib/libnacl.a(nacl_irt_init_7b4f826e.o)
 .debug_line    0x00005b01      0x260 /home/jfb/nacl_sdk/pepper_42/toolchain/linux_arm_newlib/bin/../lib/gcc/arm-nacl/4.9.2/../../../../arm-nacl/lib/libnacl.a(sysconf_ad295ea2.o)
 .debug_line    0x00005d61       0xb0 /home/jfb/nacl_sdk/pepper_42/toolchain/linux_arm_newlib/bin/../lib/gcc/arm-nacl/4.9.2/../../../../arm-nacl/lib/libnacl.a(nacl_tls_init_eb0cd232.o)
 .debug_line    0x00005e11      0x2c3 /home/jfb/nacl_sdk/pepper_42/toolchain/linux_arm_newlib/bin/../lib/gcc/arm-nacl/4.9.2/../../../../arm-nacl/lib/libnacl.a(close_e9b92fbd.o)
 .debug_line    0x000060d4      0x2e2 /home/jfb/nacl_sdk/pepper_42/toolchain/linux_arm_newlib/bin/../lib/gcc/arm-nacl/4.9.2/../../../../arm-nacl/lib/libnacl.a(isatty_02f56e94.o)
 .debug_line    0x000063b6      0x2d4 /home/jfb/nacl_sdk/pepper_42/toolchain/linux_arm_newlib/bin/../lib/gcc/arm-nacl/4.9.2/../../../../arm-nacl/lib/libnacl.a(nacl_irt_fdio_b571b5e7.o)
 .debug_line    0x0000668a      0x354 /home/jfb/nacl_sdk/pepper_42/toolchain/linux_arm_newlib/bin/../lib/gcc/arm-nacl/4.9.2/../../../../arm-nacl/lib/libnacl.a(fstat_0540ff63.o)
 .debug_line    0x000069de      0x2da /home/jfb/nacl_sdk/pepper_42/toolchain/linux_arm_newlib/bin/../lib/gcc/arm-nacl/4.9.2/../../../../arm-nacl/lib/libnacl.a(lseek_64d2d05c.o)
 .debug_line    0x00006cb8      0x2c3 /home/jfb/nacl_sdk/pepper_42/toolchain/linux_arm_newlib/bin/../lib/gcc/arm-nacl/4.9.2/../../../../arm-nacl/lib/libnacl.a(read_df872e10.o)
 .debug_line    0x00006f7b      0x25f /home/jfb/nacl_sdk/pepper_42/toolchain/linux_arm_newlib/bin/../lib/gcc/arm-nacl/4.9.2/../../../../arm-nacl/lib/libnacl.a(nanosleep_e59fdef1.o)
 .debug_line    0x000071da       0x84 /home/jfb/nacl_sdk/pepper_42/toolchain/linux_arm_newlib/bin/../lib/gcc/arm-nacl/4.9.2/libgcc.a(_udivsi3.o)
 .debug_line    0x0000725e       0x90 /home/jfb/nacl_sdk/pepper_42/toolchain/linux_arm_newlib/bin/../lib/gcc/arm-nacl/4.9.2/libgcc.a(_divsi3.o)
 .debug_line    0x000072ee       0x6a /home/jfb/nacl_sdk/pepper_42/toolchain/linux_arm_newlib/bin/../lib/gcc/arm-nacl/4.9.2/libgcc.a(_aeabi_uldivmod.o)
 .debug_line    0x00007358       0x67 /home/jfb/nacl_sdk/pepper_42/toolchain/linux_arm_newlib/bin/../lib/gcc/arm-nacl/4.9.2/libgcc.a(_dvmd_nacl.o)
 .debug_line    0x000073bf       0x79 /home/jfb/nacl_sdk/pepper_42/toolchain/linux_arm_newlib/bin/../lib/gcc/arm-nacl/4.9.2/libgcc.a(bpabi.o)
 .debug_line    0x00007438       0xb7 /home/jfb/nacl_sdk/pepper_42/toolchain/linux_arm_newlib/bin/../lib/gcc/arm-nacl/4.9.2/libgcc.a(_divdi3.o)
 .debug_line    0x000074ef       0xa1 /home/jfb/nacl_sdk/pepper_42/toolchain/linux_arm_newlib/bin/../lib/gcc/arm-nacl/4.9.2/libgcc.a(_udivdi3.o)

.debug_frame    0x00000000     0x1fd0
 *(.debug_frame)
 .debug_frame   0x00000000      0x2ac newlib/Release/debugging_arm.o
 .debug_frame   0x000002ac      0x134 /home/jfb/nacl_sdk/pepper_42//lib/newlib_arm/Release/liberror_handling.a(error_handling_arm.o)
 .debug_frame   0x000003e0       0xb0 /home/jfb/nacl_sdk/pepper_42//lib/newlib_arm/Release/liberror_handling.a(string_stream_arm.o)
 .debug_frame   0x00000490       0x20 /home/jfb/nacl_sdk/pepper_42/toolchain/linux_arm_newlib/bin/../lib/gcc/arm-nacl/4.9.2/../../../../arm-nacl/lib/libppapi_stub.a(plugin_main_irt_21ce9d26.o)
 .debug_frame   0x000004b0       0x20 /home/jfb/nacl_sdk/pepper_42/toolchain/linux_arm_newlib/bin/../lib/gcc/arm-nacl/4.9.2/../../../../arm-nacl/lib/libppapi_stub.a(ppapi_plugin_main_399d0cf7.o)
 .debug_frame   0x000004d0       0x54 /home/jfb/nacl_sdk/pepper_42/toolchain/linux_arm_newlib/bin/../lib/gcc/arm-nacl/4.9.2/../../../../arm-nacl/lib/libppapi_stub.a(ppapi_plugin_start_8da67623.o)
 .debug_frame   0x00000524       0x40 /home/jfb/nacl_sdk/pepper_42/toolchain/linux_arm_newlib/bin/../lib/gcc/arm-nacl/4.9.2/../../../../arm-nacl/lib/libppapi_stub.a(thread_creator_ccf263e1.o)
 .debug_frame   0x00000564      0x458 /home/jfb/nacl_sdk/pepper_42/toolchain/linux_arm_newlib/bin/../lib/gcc/arm-nacl/4.9.2/../../../../arm-nacl/lib/libpthread.a(nc_thread_7e478b15.o)
 .debug_frame   0x000009bc       0xb8 /home/jfb/nacl_sdk/pepper_42/toolchain/linux_arm_newlib/bin/../lib/gcc/arm-nacl/4.9.2/../../../../arm-nacl/lib/libpthread.a(nc_condvar_305aa45a.o)
 .debug_frame   0x00000a74      0x288 /home/jfb/nacl_sdk/pepper_42/toolchain/linux_arm_newlib/bin/../lib/gcc/arm-nacl/4.9.2/../../../../arm-nacl/lib/libpthread.a(dynamic_annotations_33ba59cc.o)
 .debug_frame   0x00000cfc      0x164 /home/jfb/nacl_sdk/pepper_42/toolchain/linux_arm_newlib/bin/../lib/gcc/arm-nacl/4.9.2/../../../../arm-nacl/lib/libpthread.a(nc_mutex_86341ae1.o)
 .debug_frame   0x00000e60       0x38 /home/jfb/nacl_sdk/pepper_42/toolchain/linux_arm_newlib/bin/../lib/gcc/arm-nacl/4.9.2/../../../../arm-nacl/lib/libpthread.a(nc_init_irt_d3daafc0.o)
 .debug_frame   0x00000e98      0x35c /home/jfb/nacl_sdk/pepper_42/toolchain/linux_arm_newlib/bin/../lib/gcc/arm-nacl/4.9.2/libgcc.a(unwind-arm.o)
 .debug_frame   0x000011f4      0x134 /home/jfb/nacl_sdk/pepper_42/toolchain/linux_arm_newlib/bin/../lib/gcc/arm-nacl/4.9.2/libgcc.a(pr-support.o)
 .debug_frame   0x00001328       0x2c /home/jfb/nacl_sdk/pepper_42/toolchain/linux_arm_newlib/bin/../lib/gcc/arm-nacl/4.9.2/../../../../arm-nacl/lib/libnacl.a(_exit_710c7d0d.o)
 .debug_frame   0x00001354       0x2c /home/jfb/nacl_sdk/pepper_42/toolchain/linux_arm_newlib/bin/../lib/gcc/arm-nacl/4.9.2/../../../../arm-nacl/lib/libnacl.a(abort_9f6b5845.o)
 .debug_frame   0x00001380       0x30 /home/jfb/nacl_sdk/pepper_42/toolchain/linux_arm_newlib/bin/../lib/gcc/arm-nacl/4.9.2/../../../../arm-nacl/lib/libnacl.a(start_fa9ef7de.o)
 .debug_frame   0x000013b0      0x550 /home/jfb/nacl_sdk/pepper_42/toolchain/linux_arm_newlib/bin/../lib/gcc/arm-nacl/4.9.2/../../../../arm-nacl/lib/libnacl.a(malloc_222c4a1e.o)
 .debug_frame   0x00001900      0x120 /home/jfb/nacl_sdk/pepper_42/toolchain/linux_arm_newlib/bin/../lib/gcc/arm-nacl/4.9.2/../../../../arm-nacl/lib/libnacl.a(nacl_irt_6de1d53f.o)
 .debug_frame   0x00001a20       0x38 /home/jfb/nacl_sdk/pepper_42/toolchain/linux_arm_newlib/bin/../lib/gcc/arm-nacl/4.9.2/../../../../arm-nacl/lib/libnacl.a(pthread_initialize_minimal_4b6e776b.o)
 .debug_frame   0x00001a58       0x20 /home/jfb/nacl_sdk/pepper_42/toolchain/linux_arm_newlib/bin/../lib/gcc/arm-nacl/4.9.2/../../../../arm-nacl/lib/libnacl.a(nacl_read_tp_5748ac47.o)
 .debug_frame   0x00001a78       0x20 /home/jfb/nacl_sdk/pepper_42/toolchain/linux_arm_newlib/bin/../lib/gcc/arm-nacl/4.9.2/../../../../arm-nacl/lib/libnacl.a(nacl_interface_query_ef8a99f1.o)
 .debug_frame   0x00001a98       0x44 /home/jfb/nacl_sdk/pepper_42/toolchain/linux_arm_newlib/bin/../lib/gcc/arm-nacl/4.9.2/../../../../arm-nacl/lib/libnacl.a(mmap_767fb080.o)
 .debug_frame   0x00001adc       0x38 /home/jfb/nacl_sdk/pepper_42/toolchain/linux_arm_newlib/bin/../lib/gcc/arm-nacl/4.9.2/../../../../arm-nacl/lib/libnacl.a(sched_yield_56c375be.o)
 .debug_frame   0x00001b14       0x38 /home/jfb/nacl_sdk/pepper_42/toolchain/linux_arm_newlib/bin/../lib/gcc/arm-nacl/4.9.2/../../../../arm-nacl/lib/libnacl.a(munmap_d4f09867.o)
 .debug_frame   0x00001b4c       0xa0 /home/jfb/nacl_sdk/pepper_42/toolchain/linux_arm_newlib/bin/../lib/gcc/arm-nacl/4.9.2/../../../../arm-nacl/lib/libnacl.a(tls_bba1975b.o)
 .debug_frame   0x00001bec       0x38 /home/jfb/nacl_sdk/pepper_42/toolchain/linux_arm_newlib/bin/../lib/gcc/arm-nacl/4.9.2/../../../../arm-nacl/lib/libnacl.a(write_fb49787f.o)
 .debug_frame   0x00001c24       0x20 /home/jfb/nacl_sdk/pepper_42/toolchain/linux_arm_newlib/bin/../lib/gcc/arm-nacl/4.9.2/../../../../arm-nacl/lib/libnacl.a(nacl_tls_get_d2f842b5.o)
 .debug_frame   0x00001c44       0x48 /home/jfb/nacl_sdk/pepper_42/toolchain/linux_arm_newlib/bin/../lib/gcc/arm-nacl/4.9.2/../../../../arm-nacl/lib/libnacl.a(nacl_irt_init_7b4f826e.o)
 .debug_frame   0x00001c8c       0x38 /home/jfb/nacl_sdk/pepper_42/toolchain/linux_arm_newlib/bin/../lib/gcc/arm-nacl/4.9.2/../../../../arm-nacl/lib/libnacl.a(sysconf_ad295ea2.o)
 .debug_frame   0x00001cc4       0x20 /home/jfb/nacl_sdk/pepper_42/toolchain/linux_arm_newlib/bin/../lib/gcc/arm-nacl/4.9.2/../../../../arm-nacl/lib/libnacl.a(nacl_tls_init_eb0cd232.o)
 .debug_frame   0x00001ce4       0x38 /home/jfb/nacl_sdk/pepper_42/toolchain/linux_arm_newlib/bin/../lib/gcc/arm-nacl/4.9.2/../../../../arm-nacl/lib/libnacl.a(close_e9b92fbd.o)
 .debug_frame   0x00001d1c       0x38 /home/jfb/nacl_sdk/pepper_42/toolchain/linux_arm_newlib/bin/../lib/gcc/arm-nacl/4.9.2/../../../../arm-nacl/lib/libnacl.a(isatty_02f56e94.o)
 .debug_frame   0x00001d54       0x44 /home/jfb/nacl_sdk/pepper_42/toolchain/linux_arm_newlib/bin/../lib/gcc/arm-nacl/4.9.2/../../../../arm-nacl/lib/libnacl.a(nacl_irt_fdio_b571b5e7.o)
 .debug_frame   0x00001d98       0x38 /home/jfb/nacl_sdk/pepper_42/toolchain/linux_arm_newlib/bin/../lib/gcc/arm-nacl/4.9.2/../../../../arm-nacl/lib/libnacl.a(fstat_0540ff63.o)
 .debug_frame   0x00001dd0       0x38 /home/jfb/nacl_sdk/pepper_42/toolchain/linux_arm_newlib/bin/../lib/gcc/arm-nacl/4.9.2/../../../../arm-nacl/lib/libnacl.a(lseek_64d2d05c.o)
 .debug_frame   0x00001e08       0x38 /home/jfb/nacl_sdk/pepper_42/toolchain/linux_arm_newlib/bin/../lib/gcc/arm-nacl/4.9.2/../../../../arm-nacl/lib/libnacl.a(read_df872e10.o)
 .debug_frame   0x00001e40       0x38 /home/jfb/nacl_sdk/pepper_42/toolchain/linux_arm_newlib/bin/../lib/gcc/arm-nacl/4.9.2/../../../../arm-nacl/lib/libnacl.a(nanosleep_e59fdef1.o)
 .debug_frame   0x00001e78       0x20 /home/jfb/nacl_sdk/pepper_42/toolchain/linux_arm_newlib/bin/../lib/gcc/arm-nacl/4.9.2/libgcc.a(_udivsi3.o)
 .debug_frame   0x00001e98       0x20 /home/jfb/nacl_sdk/pepper_42/toolchain/linux_arm_newlib/bin/../lib/gcc/arm-nacl/4.9.2/libgcc.a(_divsi3.o)
 .debug_frame   0x00001eb8       0x28 /home/jfb/nacl_sdk/pepper_42/toolchain/linux_arm_newlib/bin/../lib/gcc/arm-nacl/4.9.2/libgcc.a(_aeabi_uldivmod.o)
 .debug_frame   0x00001ee0       0x78 /home/jfb/nacl_sdk/pepper_42/toolchain/linux_arm_newlib/bin/../lib/gcc/arm-nacl/4.9.2/libgcc.a(bpabi.o)
 .debug_frame   0x00001f58       0x44 /home/jfb/nacl_sdk/pepper_42/toolchain/linux_arm_newlib/bin/../lib/gcc/arm-nacl/4.9.2/libgcc.a(_divdi3.o)
 .debug_frame   0x00001f9c       0x34 /home/jfb/nacl_sdk/pepper_42/toolchain/linux_arm_newlib/bin/../lib/gcc/arm-nacl/4.9.2/libgcc.a(_udivdi3.o)

.debug_str      0x00000000     0x433a
 *(.debug_str)
 .debug_str     0x00000000      0xdc6 newlib/Release/debugging_arm.o
                                0xf55 (size before relaxing)
 .debug_str     0x00000dc6      0x404 /home/jfb/nacl_sdk/pepper_42//lib/newlib_arm/Release/liberror_handling.a(error_handling_arm.o)
                                0x992 (size before relaxing)
 .debug_str     0x000011ca       0x60 /home/jfb/nacl_sdk/pepper_42//lib/newlib_arm/Release/liberror_handling.a(string_stream_arm.o)
                                0x1cd (size before relaxing)
 .debug_str     0x0000122a       0xf0 /home/jfb/nacl_sdk/pepper_42/toolchain/linux_arm_newlib/bin/../lib/gcc/arm-nacl/4.9.2/../../../../arm-nacl/lib/libppapi_stub.a(plugin_main_irt_21ce9d26.o)
                                0x182 (size before relaxing)
 .debug_str     0x0000131a       0x51 /home/jfb/nacl_sdk/pepper_42/toolchain/linux_arm_newlib/bin/../lib/gcc/arm-nacl/4.9.2/../../../../arm-nacl/lib/libppapi_stub.a(ppapi_plugin_main_399d0cf7.o)
                                0x207 (size before relaxing)
 .debug_str     0x0000136b       0xfb /home/jfb/nacl_sdk/pepper_42/toolchain/linux_arm_newlib/bin/../lib/gcc/arm-nacl/4.9.2/../../../../arm-nacl/lib/libppapi_stub.a(ppapi_plugin_start_8da67623.o)
                                0x350 (size before relaxing)
 .debug_str     0x00001466       0x3b /home/jfb/nacl_sdk/pepper_42/toolchain/linux_arm_newlib/bin/../lib/gcc/arm-nacl/4.9.2/../../../../arm-nacl/lib/libppapi_stub.a(thread_creator_ccf263e1.o)
                                0x311 (size before relaxing)
 .debug_str     0x000014a1      0xa72 /home/jfb/nacl_sdk/pepper_42/toolchain/linux_arm_newlib/bin/../lib/gcc/arm-nacl/4.9.2/../../../../arm-nacl/lib/libpthread.a(nc_thread_7e478b15.o)
                                0xd97 (size before relaxing)
 .debug_str     0x00001f13       0xc3 /home/jfb/nacl_sdk/pepper_42/toolchain/linux_arm_newlib/bin/../lib/gcc/arm-nacl/4.9.2/../../../../arm-nacl/lib/libpthread.a(nc_condvar_305aa45a.o)
                                0x4bb (size before relaxing)
 .debug_str     0x00001fd6      0x45f /home/jfb/nacl_sdk/pepper_42/toolchain/linux_arm_newlib/bin/../lib/gcc/arm-nacl/4.9.2/../../../../arm-nacl/lib/libpthread.a(dynamic_annotations_33ba59cc.o)
                                0x63b (size before relaxing)
 .debug_str     0x00002435      0x11a /home/jfb/nacl_sdk/pepper_42/toolchain/linux_arm_newlib/bin/../lib/gcc/arm-nacl/4.9.2/../../../../arm-nacl/lib/libpthread.a(nc_mutex_86341ae1.o)
                                0x660 (size before relaxing)
 .debug_str     0x0000254f       0x2c /home/jfb/nacl_sdk/pepper_42/toolchain/linux_arm_newlib/bin/../lib/gcc/arm-nacl/4.9.2/../../../../arm-nacl/lib/libpthread.a(nc_init_irt_d3daafc0.o)
                                0x276 (size before relaxing)
 .debug_str     0x0000257b      0xb1a /home/jfb/nacl_sdk/pepper_42/toolchain/linux_arm_newlib/bin/../lib/gcc/arm-nacl/4.9.2/libgcc.a(unwind-arm.o)
                                0xc14 (size before relaxing)
 .debug_str     0x00003095       0xe6 /home/jfb/nacl_sdk/pepper_42/toolchain/linux_arm_newlib/bin/../lib/gcc/arm-nacl/4.9.2/libgcc.a(pr-support.o)
                                0x5a8 (size before relaxing)
 .debug_str     0x0000317b       0xa4 /home/jfb/nacl_sdk/pepper_42/toolchain/linux_arm_newlib/bin/../lib/gcc/arm-nacl/4.9.2/../../../../arm-nacl/lib/libnacl.a(_exit_710c7d0d.o)
                                0x20b (size before relaxing)
 .debug_str     0x0000321f        0x8 /home/jfb/nacl_sdk/pepper_42/toolchain/linux_arm_newlib/bin/../lib/gcc/arm-nacl/4.9.2/../../../../arm-nacl/lib/libnacl.a(abort_9f6b5845.o)
                                0x174 (size before relaxing)
 .debug_str     0x00003227       0x16 /home/jfb/nacl_sdk/pepper_42/toolchain/linux_arm_newlib/bin/../lib/gcc/arm-nacl/4.9.2/../../../../arm-nacl/lib/libnacl.a(environ_25cd24d8.o)
                                 0xeb (size before relaxing)
 .debug_str     0x0000323d      0x137 /home/jfb/nacl_sdk/pepper_42/toolchain/linux_arm_newlib/bin/../lib/gcc/arm-nacl/4.9.2/../../../../arm-nacl/lib/libnacl.a(start_fa9ef7de.o)
                                0x31c (size before relaxing)
 .debug_str     0x00003374      0x6c2 /home/jfb/nacl_sdk/pepper_42/toolchain/linux_arm_newlib/bin/../lib/gcc/arm-nacl/4.9.2/../../../../arm-nacl/lib/libnacl.a(malloc_222c4a1e.o)
                                0xd95 (size before relaxing)
 .debug_str     0x00003a36      0x27a /home/jfb/nacl_sdk/pepper_42/toolchain/linux_arm_newlib/bin/../lib/gcc/arm-nacl/4.9.2/../../../../arm-nacl/lib/libnacl.a(nacl_irt_6de1d53f.o)
                                0x5e8 (size before relaxing)
 .debug_str     0x00003cb0       0x2b /home/jfb/nacl_sdk/pepper_42/toolchain/linux_arm_newlib/bin/../lib/gcc/arm-nacl/4.9.2/../../../../arm-nacl/lib/libnacl.a(pthread_initialize_minimal_4b6e776b.o)
                                0x23b (size before relaxing)
 .debug_str     0x00003cdb       0x1c /home/jfb/nacl_sdk/pepper_42/toolchain/linux_arm_newlib/bin/../lib/gcc/arm-nacl/4.9.2/../../../../arm-nacl/lib/libnacl.a(nacl_read_tp_5748ac47.o)
                                0x17c (size before relaxing)
 .debug_str     0x00003cf7       0x31 /home/jfb/nacl_sdk/pepper_42/toolchain/linux_arm_newlib/bin/../lib/gcc/arm-nacl/4.9.2/../../../../arm-nacl/lib/libnacl.a(nacl_interface_query_ef8a99f1.o)
                                0x1c9 (size before relaxing)
 .debug_str     0x00003d28       0x11 /home/jfb/nacl_sdk/pepper_42/toolchain/linux_arm_newlib/bin/../lib/gcc/arm-nacl/4.9.2/../../../../arm-nacl/lib/libnacl.a(mmap_767fb080.o)
                                0x1f9 (size before relaxing)
 .debug_str     0x00003d39        0xe /home/jfb/nacl_sdk/pepper_42/toolchain/linux_arm_newlib/bin/../lib/gcc/arm-nacl/4.9.2/../../../../arm-nacl/lib/libnacl.a(sched_yield_56c375be.o)
                                0x212 (size before relaxing)
 .debug_str     0x00003d47        0x9 /home/jfb/nacl_sdk/pepper_42/toolchain/linux_arm_newlib/bin/../lib/gcc/arm-nacl/4.9.2/../../../../arm-nacl/lib/libnacl.a(munmap_d4f09867.o)
                                0x1d7 (size before relaxing)
 .debug_str     0x00003d50      0x2a2 /home/jfb/nacl_sdk/pepper_42/toolchain/linux_arm_newlib/bin/../lib/gcc/arm-nacl/4.9.2/../../../../arm-nacl/lib/libnacl.a(tls_bba1975b.o)
                                0x515 (size before relaxing)
 .debug_str     0x00003ff2        0x8 /home/jfb/nacl_sdk/pepper_42/toolchain/linux_arm_newlib/bin/../lib/gcc/arm-nacl/4.9.2/../../../../arm-nacl/lib/libnacl.a(write_fb49787f.o)
                                0x1f8 (size before relaxing)
 .debug_str     0x00003ffa        0xf /home/jfb/nacl_sdk/pepper_42/toolchain/linux_arm_newlib/bin/../lib/gcc/arm-nacl/4.9.2/../../../../arm-nacl/lib/libnacl.a(nacl_tls_get_d2f842b5.o)
                                0x19d (size before relaxing)
 .debug_str     0x00004009       0x52 /home/jfb/nacl_sdk/pepper_42/toolchain/linux_arm_newlib/bin/../lib/gcc/arm-nacl/4.9.2/../../../../arm-nacl/lib/libnacl.a(nacl_irt_init_7b4f826e.o)
                                0x3e0 (size before relaxing)
 .debug_str     0x0000405b        0xa /home/jfb/nacl_sdk/pepper_42/toolchain/linux_arm_newlib/bin/../lib/gcc/arm-nacl/4.9.2/../../../../arm-nacl/lib/libnacl.a(sysconf_ad295ea2.o)
                                0x219 (size before relaxing)
 .debug_str     0x00004065       0x1b /home/jfb/nacl_sdk/pepper_42/toolchain/linux_arm_newlib/bin/../lib/gcc/arm-nacl/4.9.2/../../../../arm-nacl/lib/libnacl.a(nacl_tls_init_eb0cd232.o)
                                0x1aa (size before relaxing)
 .debug_str     0x00004080        0x8 /home/jfb/nacl_sdk/pepper_42/toolchain/linux_arm_newlib/bin/../lib/gcc/arm-nacl/4.9.2/../../../../arm-nacl/lib/libnacl.a(close_e9b92fbd.o)
                                0x1eb (size before relaxing)
 .debug_str     0x00004088        0x9 /home/jfb/nacl_sdk/pepper_42/toolchain/linux_arm_newlib/bin/../lib/gcc/arm-nacl/4.9.2/../../../../arm-nacl/lib/libnacl.a(isatty_02f56e94.o)
                                0x242 (size before relaxing)
 .debug_str     0x00004091       0x2c /home/jfb/nacl_sdk/pepper_42/toolchain/linux_arm_newlib/bin/../lib/gcc/arm-nacl/4.9.2/../../../../arm-nacl/lib/libnacl.a(nacl_irt_fdio_b571b5e7.o)
                                0x24e (size before relaxing)
 .debug_str     0x000040bd       0xdd /home/jfb/nacl_sdk/pepper_42/toolchain/linux_arm_newlib/bin/../lib/gcc/arm-nacl/4.9.2/../../../../arm-nacl/lib/libnacl.a(fstat_0540ff63.o)
                                0x34c (size before relaxing)
 .debug_str     0x0000419a        0xe /home/jfb/nacl_sdk/pepper_42/toolchain/linux_arm_newlib/bin/../lib/gcc/arm-nacl/4.9.2/../../../../arm-nacl/lib/libnacl.a(lseek_64d2d05c.o)
                                0x213 (size before relaxing)
 .debug_str     0x000041a8        0xe /home/jfb/nacl_sdk/pepper_42/toolchain/linux_arm_newlib/bin/../lib/gcc/arm-nacl/4.9.2/../../../../arm-nacl/lib/libnacl.a(read_df872e10.o)
                                0x1f6 (size before relaxing)
 .debug_str     0x000041a8        0xc /home/jfb/nacl_sdk/pepper_42/toolchain/linux_arm_newlib/bin/../lib/gcc/arm-nacl/4.9.2/../../../../arm-nacl/lib/libnacl.a(nanosleep_e59fdef1.o)
                                0x210 (size before relaxing)
 .debug_str     0x000041b4      0x10c /home/jfb/nacl_sdk/pepper_42/toolchain/linux_arm_newlib/bin/../lib/gcc/arm-nacl/4.9.2/libgcc.a(bpabi.o)
                                0x1ac (size before relaxing)
 .debug_str     0x000042c0       0x7a /home/jfb/nacl_sdk/pepper_42/toolchain/linux_arm_newlib/bin/../lib/gcc/arm-nacl/4.9.2/libgcc.a(_divdi3.o)
                                0x237 (size before relaxing)
 .debug_str     0x0000433a      0x214 /home/jfb/nacl_sdk/pepper_42/toolchain/linux_arm_newlib/bin/../lib/gcc/arm-nacl/4.9.2/libgcc.a(_udivdi3.o)

.debug_loc      0x00000000     0xfaf3
 *(.debug_loc)
 .debug_loc     0x00000000      0x45f newlib/Release/debugging_arm.o
 .debug_loc     0x0000045f      0xb32 /home/jfb/nacl_sdk/pepper_42//lib/newlib_arm/Release/liberror_handling.a(error_handling_arm.o)
 .debug_loc     0x00000f91      0x115 /home/jfb/nacl_sdk/pepper_42//lib/newlib_arm/Release/liberror_handling.a(string_stream_arm.o)
 .debug_loc     0x000010a6       0xbe /home/jfb/nacl_sdk/pepper_42/toolchain/linux_arm_newlib/bin/../lib/gcc/arm-nacl/4.9.2/../../../../arm-nacl/lib/libppapi_stub.a(ppapi_plugin_start_8da67623.o)
 .debug_loc     0x00001164       0xbb /home/jfb/nacl_sdk/pepper_42/toolchain/linux_arm_newlib/bin/../lib/gcc/arm-nacl/4.9.2/../../../../arm-nacl/lib/libppapi_stub.a(thread_creator_ccf263e1.o)
 .debug_loc     0x0000121f     0x1121 /home/jfb/nacl_sdk/pepper_42/toolchain/linux_arm_newlib/bin/../lib/gcc/arm-nacl/4.9.2/../../../../arm-nacl/lib/libpthread.a(nc_thread_7e478b15.o)
 .debug_loc     0x00002340      0x1bd /home/jfb/nacl_sdk/pepper_42/toolchain/linux_arm_newlib/bin/../lib/gcc/arm-nacl/4.9.2/../../../../arm-nacl/lib/libpthread.a(nc_condvar_305aa45a.o)
 .debug_loc     0x000024fd       0x3c /home/jfb/nacl_sdk/pepper_42/toolchain/linux_arm_newlib/bin/../lib/gcc/arm-nacl/4.9.2/../../../../arm-nacl/lib/libpthread.a(dynamic_annotations_33ba59cc.o)
 .debug_loc     0x00002539      0x4ff /home/jfb/nacl_sdk/pepper_42/toolchain/linux_arm_newlib/bin/../lib/gcc/arm-nacl/4.9.2/../../../../arm-nacl/lib/libpthread.a(nc_mutex_86341ae1.o)
 .debug_loc     0x00002a38     0x1b2c /home/jfb/nacl_sdk/pepper_42/toolchain/linux_arm_newlib/bin/../lib/gcc/arm-nacl/4.9.2/libgcc.a(unwind-arm.o)
 .debug_loc     0x00004564      0x531 /home/jfb/nacl_sdk/pepper_42/toolchain/linux_arm_newlib/bin/../lib/gcc/arm-nacl/4.9.2/libgcc.a(pr-support.o)
 .debug_loc     0x00004a95       0x21 /home/jfb/nacl_sdk/pepper_42/toolchain/linux_arm_newlib/bin/../lib/gcc/arm-nacl/4.9.2/../../../../arm-nacl/lib/libnacl.a(_exit_710c7d0d.o)
 .debug_loc     0x00004ab6      0x101 /home/jfb/nacl_sdk/pepper_42/toolchain/linux_arm_newlib/bin/../lib/gcc/arm-nacl/4.9.2/../../../../arm-nacl/lib/libnacl.a(start_fa9ef7de.o)
 .debug_loc     0x00004bb7     0x9b4f /home/jfb/nacl_sdk/pepper_42/toolchain/linux_arm_newlib/bin/../lib/gcc/arm-nacl/4.9.2/../../../../arm-nacl/lib/libnacl.a(malloc_222c4a1e.o)
 .debug_loc     0x0000e706      0x33d /home/jfb/nacl_sdk/pepper_42/toolchain/linux_arm_newlib/bin/../lib/gcc/arm-nacl/4.9.2/../../../../arm-nacl/lib/libnacl.a(nacl_irt_6de1d53f.o)
 .debug_loc     0x0000ea43       0x68 /home/jfb/nacl_sdk/pepper_42/toolchain/linux_arm_newlib/bin/../lib/gcc/arm-nacl/4.9.2/../../../../arm-nacl/lib/libnacl.a(pthread_initialize_minimal_4b6e776b.o)
 .debug_loc     0x0000eaab       0x92 /home/jfb/nacl_sdk/pepper_42/toolchain/linux_arm_newlib/bin/../lib/gcc/arm-nacl/4.9.2/../../../../arm-nacl/lib/libnacl.a(nacl_interface_query_ef8a99f1.o)
 .debug_loc     0x0000eb3d       0xc2 /home/jfb/nacl_sdk/pepper_42/toolchain/linux_arm_newlib/bin/../lib/gcc/arm-nacl/4.9.2/../../../../arm-nacl/lib/libnacl.a(mmap_767fb080.o)
 .debug_loc     0x0000ebff       0x29 /home/jfb/nacl_sdk/pepper_42/toolchain/linux_arm_newlib/bin/../lib/gcc/arm-nacl/4.9.2/../../../../arm-nacl/lib/libnacl.a(sched_yield_56c375be.o)
 .debug_loc     0x0000ec28       0x6b /home/jfb/nacl_sdk/pepper_42/toolchain/linux_arm_newlib/bin/../lib/gcc/arm-nacl/4.9.2/../../../../arm-nacl/lib/libnacl.a(munmap_d4f09867.o)
 .debug_loc     0x0000ec93      0x41d /home/jfb/nacl_sdk/pepper_42/toolchain/linux_arm_newlib/bin/../lib/gcc/arm-nacl/4.9.2/../../../../arm-nacl/lib/libnacl.a(tls_bba1975b.o)
 .debug_loc     0x0000f0b0       0x8c /home/jfb/nacl_sdk/pepper_42/toolchain/linux_arm_newlib/bin/../lib/gcc/arm-nacl/4.9.2/../../../../arm-nacl/lib/libnacl.a(write_fb49787f.o)
 .debug_loc     0x0000f13c       0x6d /home/jfb/nacl_sdk/pepper_42/toolchain/linux_arm_newlib/bin/../lib/gcc/arm-nacl/4.9.2/../../../../arm-nacl/lib/libnacl.a(nacl_irt_init_7b4f826e.o)
 .debug_loc     0x0000f1a9       0x4a /home/jfb/nacl_sdk/pepper_42/toolchain/linux_arm_newlib/bin/../lib/gcc/arm-nacl/4.9.2/../../../../arm-nacl/lib/libnacl.a(sysconf_ad295ea2.o)
 .debug_loc     0x0000f1f3       0x21 /home/jfb/nacl_sdk/pepper_42/toolchain/linux_arm_newlib/bin/../lib/gcc/arm-nacl/4.9.2/../../../../arm-nacl/lib/libnacl.a(nacl_tls_init_eb0cd232.o)
 .debug_loc     0x0000f214       0x4a /home/jfb/nacl_sdk/pepper_42/toolchain/linux_arm_newlib/bin/../lib/gcc/arm-nacl/4.9.2/../../../../arm-nacl/lib/libnacl.a(close_e9b92fbd.o)
 .debug_loc     0x0000f25e       0x79 /home/jfb/nacl_sdk/pepper_42/toolchain/linux_arm_newlib/bin/../lib/gcc/arm-nacl/4.9.2/../../../../arm-nacl/lib/libnacl.a(isatty_02f56e94.o)
 .debug_loc     0x0000f2d7       0x6b /home/jfb/nacl_sdk/pepper_42/toolchain/linux_arm_newlib/bin/../lib/gcc/arm-nacl/4.9.2/../../../../arm-nacl/lib/libnacl.a(fstat_0540ff63.o)
 .debug_loc     0x0000f342       0x7d /home/jfb/nacl_sdk/pepper_42/toolchain/linux_arm_newlib/bin/../lib/gcc/arm-nacl/4.9.2/../../../../arm-nacl/lib/libnacl.a(lseek_64d2d05c.o)
 .debug_loc     0x0000f3bf       0x8c /home/jfb/nacl_sdk/pepper_42/toolchain/linux_arm_newlib/bin/../lib/gcc/arm-nacl/4.9.2/../../../../arm-nacl/lib/libnacl.a(read_df872e10.o)
 .debug_loc     0x0000f44b       0x6b /home/jfb/nacl_sdk/pepper_42/toolchain/linux_arm_newlib/bin/../lib/gcc/arm-nacl/4.9.2/../../../../arm-nacl/lib/libnacl.a(nanosleep_e59fdef1.o)
 .debug_loc     0x0000f4b6       0xa0 /home/jfb/nacl_sdk/pepper_42/toolchain/linux_arm_newlib/bin/../lib/gcc/arm-nacl/4.9.2/libgcc.a(bpabi.o)
 .debug_loc     0x0000f556      0x2e0 /home/jfb/nacl_sdk/pepper_42/toolchain/linux_arm_newlib/bin/../lib/gcc/arm-nacl/4.9.2/libgcc.a(_divdi3.o)
 .debug_loc     0x0000f836      0x2bd /home/jfb/nacl_sdk/pepper_42/toolchain/linux_arm_newlib/bin/../lib/gcc/arm-nacl/4.9.2/libgcc.a(_udivdi3.o)

.debug_macinfo
 *(.debug_macinfo)

.debug_weaknames
 *(.debug_weaknames)

.debug_funcnames
 *(.debug_funcnames)

.debug_typenames
 *(.debug_typenames)

.debug_varnames
 *(.debug_varnames)

.debug_pubtypes
 *(.debug_pubtypes)

.debug_ranges   0x00000000     0x1a78
 *(.debug_ranges)
 .debug_ranges  0x00000000       0xe0 newlib/Release/debugging_arm.o
 .debug_ranges  0x000000e0       0x60 /home/jfb/nacl_sdk/pepper_42//lib/newlib_arm/Release/liberror_handling.a(error_handling_arm.o)
 .debug_ranges  0x00000140       0x10 /home/jfb/nacl_sdk/pepper_42/toolchain/linux_arm_newlib/bin/../lib/gcc/arm-nacl/4.9.2/../../../../arm-nacl/lib/libppapi_stub.a(plugin_main_irt_21ce9d26.o)
 .debug_ranges  0x00000150       0x58 /home/jfb/nacl_sdk/pepper_42/toolchain/linux_arm_newlib/bin/../lib/gcc/arm-nacl/4.9.2/../../../../arm-nacl/lib/libppapi_stub.a(ppapi_plugin_start_8da67623.o)
 .debug_ranges  0x000001a8      0x218 /home/jfb/nacl_sdk/pepper_42/toolchain/linux_arm_newlib/bin/../lib/gcc/arm-nacl/4.9.2/../../../../arm-nacl/lib/libpthread.a(nc_thread_7e478b15.o)
 .debug_ranges  0x000003c0       0x30 /home/jfb/nacl_sdk/pepper_42/toolchain/linux_arm_newlib/bin/../lib/gcc/arm-nacl/4.9.2/../../../../arm-nacl/lib/libpthread.a(nc_condvar_305aa45a.o)
 .debug_ranges  0x000003f0       0x18 /home/jfb/nacl_sdk/pepper_42/toolchain/linux_arm_newlib/bin/../lib/gcc/arm-nacl/4.9.2/../../../../arm-nacl/lib/libpthread.a(dynamic_annotations_33ba59cc.o)
 .debug_ranges  0x00000408       0x78 /home/jfb/nacl_sdk/pepper_42/toolchain/linux_arm_newlib/bin/../lib/gcc/arm-nacl/4.9.2/../../../../arm-nacl/lib/libpthread.a(nc_mutex_86341ae1.o)
 .debug_ranges  0x00000480      0x158 /home/jfb/nacl_sdk/pepper_42/toolchain/linux_arm_newlib/bin/../lib/gcc/arm-nacl/4.9.2/libgcc.a(unwind-arm.o)
 .debug_ranges  0x000005d8       0x30 /home/jfb/nacl_sdk/pepper_42/toolchain/linux_arm_newlib/bin/../lib/gcc/arm-nacl/4.9.2/../../../../arm-nacl/lib/libnacl.a(start_fa9ef7de.o)
 .debug_ranges  0x00000608     0x1238 /home/jfb/nacl_sdk/pepper_42/toolchain/linux_arm_newlib/bin/../lib/gcc/arm-nacl/4.9.2/../../../../arm-nacl/lib/libnacl.a(malloc_222c4a1e.o)
 .debug_ranges  0x00001840       0x18 /home/jfb/nacl_sdk/pepper_42/toolchain/linux_arm_newlib/bin/../lib/gcc/arm-nacl/4.9.2/../../../../arm-nacl/lib/libnacl.a(nacl_irt_6de1d53f.o)
 .debug_ranges  0x00001858      0x1a0 /home/jfb/nacl_sdk/pepper_42/toolchain/linux_arm_newlib/bin/../lib/gcc/arm-nacl/4.9.2/../../../../arm-nacl/lib/libnacl.a(tls_bba1975b.o)
 .debug_ranges  0x000019f8       0x30 /home/jfb/nacl_sdk/pepper_42/toolchain/linux_arm_newlib/bin/../lib/gcc/arm-nacl/4.9.2/../../../../arm-nacl/lib/libnacl.a(nacl_irt_init_7b4f826e.o)
 .debug_ranges  0x00001a28       0x28 /home/jfb/nacl_sdk/pepper_42/toolchain/linux_arm_newlib/bin/../lib/gcc/arm-nacl/4.9.2/libgcc.a(_divdi3.o)
 .debug_ranges  0x00001a50       0x28 /home/jfb/nacl_sdk/pepper_42/toolchain/linux_arm_newlib/bin/../lib/gcc/arm-nacl/4.9.2/libgcc.a(_udivdi3.o)

.debug_macro
 *(.debug_macro)

.gnu.attributes
 *(.gnu.attributes)

.note.gnu.arm.ident
 *(.note.gnu.arm.ident)

/DISCARD/
 *(.note.GNU-stack)
 *(.gnu_debuglink)
 *(.gnu.lto_*)
OUTPUT(newlib/Release/debugging_unstripped_arm.nexe elf32-littlearm-nacl)
